

Microchip MPLAB XC8 Assembler V2.32 build 20210201212658 
                                                                                               Thu Dec 02 00:29:01 2021

Microchip MPLAB XC8 C Compiler v2.32 (Free license) build 20210201212658 Og1 
     1                           	processor	18F4550
     2                           	fnconf	rparam,??,?,0
     3                           	pagewidth 120
     4                           	opt	flic
     5                           	psect	idataCOMRAM,global,class=CODE,delta=1,noexec
     6                           	psect	nvCOMRAM,global,class=COMRAM,space=1,delta=1,lowdata,noexec
     7                           	psect	smallconst,global,reloc=2,class=SMALLCONST,delta=1,noexec
     8                           	psect	cinit,global,reloc=2,class=CODE,delta=1
     9                           	psect	bssCOMRAM,global,class=COMRAM,space=1,delta=1,lowdata,noexec
    10                           	psect	dataCOMRAM,global,class=COMRAM,space=1,delta=1,lowdata,noexec
    11                           	psect	bssBANK0,global,class=BANK0,space=1,delta=1,lowdata,noexec
    12                           	psect	bssBANK1,global,class=BANK1,space=1,delta=1,lowdata,noexec
    13                           	psect	cstackBANK1,global,class=BANK1,space=1,delta=1,lowdata,noexec
    14                           	psect	cstackBANK0,global,class=BANK0,space=1,delta=1,lowdata,noexec
    15                           	psect	cstackCOMRAM,global,class=COMRAM,space=1,delta=1,lowdata,noexec
    16                           	psect	text0,global,reloc=2,class=CODE,delta=1
    17                           	psect	text1,global,reloc=2,class=CODE,delta=1,group=3
    18                           	psect	text2,global,reloc=2,class=CODE,delta=1,group=1
    19                           	psect	text3,global,reloc=2,class=CODE,delta=1,group=1
    20                           	psect	text4,global,reloc=2,class=CODE,delta=1,group=3
    21                           	psect	text5,global,reloc=2,class=CODE,delta=1,group=1
    22                           	psect	text6,global,reloc=2,class=CODE,delta=1,group=3
    23                           	psect	text7,global,reloc=2,class=CODE,delta=1,group=3
    24                           	psect	text8,global,reloc=2,class=CODE,delta=1,group=3
    25                           	psect	text9,global,reloc=2,class=CODE,delta=1,group=1
    26                           	psect	text10,global,reloc=2,class=CODE,delta=1,group=3
    27                           	psect	text11,global,reloc=2,class=CODE,delta=1,group=3
    28                           	psect	text12,global,reloc=2,class=CODE,delta=1,group=3
    29                           	psect	text13,global,reloc=2,class=CODE,delta=1,group=3
    30                           	psect	text14,global,reloc=2,class=CODE,delta=1,group=3
    31                           	psect	text15,global,reloc=2,class=CODE,delta=1,group=2
    32                           	psect	text16,global,reloc=2,class=CODE,delta=1,group=2
    33                           	psect	text17,global,reloc=2,class=CODE,delta=1,group=2
    34                           	psect	text18,global,reloc=2,class=CODE,delta=1,group=2
    35                           	psect	text19,global,reloc=2,class=CODE,delta=1,group=2
    36                           	psect	text20,global,reloc=2,class=CODE,delta=1,group=2
    37                           	psect	text21,global,reloc=2,class=CODE,delta=1,group=2
    38                           	psect	text22,global,reloc=2,class=CODE,delta=1,group=2
    39                           	psect	text23,global,reloc=2,class=CODE,delta=1,group=2
    40                           	psect	text24,global,reloc=2,class=CODE,delta=1,group=2
    41                           	psect	text25,global,reloc=2,class=CODE,delta=1,group=3
    42                           	psect	text26,global,reloc=2,class=CODE,delta=1,group=3
    43                           	psect	text27,global,reloc=2,class=CODE,delta=1,group=3
    44                           	psect	text28,global,reloc=2,class=CODE,delta=1,group=2
    45                           	psect	text29,global,reloc=2,class=CODE,delta=1
    46                           	psect	text30,global,reloc=2,class=CODE,delta=1
    47                           	psect	text31,global,reloc=2,class=CODE,delta=1
    48                           	psect	text32,global,reloc=2,class=CODE,delta=1
    49                           	psect	text33,global,reloc=2,class=CODE,delta=1,group=3
    50                           	psect	text34,global,reloc=2,class=CODE,delta=1
    51                           	psect	text35,global,reloc=2,class=CODE,delta=1,group=2
    52                           	psect	intcode,global,reloc=2,class=CODE,delta=1
    53                           	psect	intcode_body,global,reloc=2,class=CODE,delta=1
    54                           	psect	text37,global,reloc=2,class=CODE,delta=1
    55                           	psect	text38,global,reloc=2,class=CODE,delta=1
    56                           	psect	text39,global,reloc=2,class=CODE,delta=1
    57                           	psect	text40,global,reloc=2,class=CODE,delta=1
    58                           	psect	text41,global,reloc=2,class=CODE,delta=1
    59                           	psect	text42,global,reloc=2,class=CODE,delta=1
    60                           	psect	text43,global,reloc=2,class=CODE,delta=1
    61                           	psect	text44,global,reloc=2,class=CODE,delta=1
    62                           	psect	text45,global,reloc=2,class=CODE,delta=1
    63                           	psect	text46,global,reloc=2,class=CODE,delta=1
    64                           	psect	intsave_regs,global,class=BIGRAM,space=1,delta=1,noexec
    65                           	psect	rparam,global,class=COMRAM,space=1,delta=1,noexec
    66                           	psect	temp,global,ovrld,common,class=COMRAM,space=1,delta=1
    67                           	psect	idloc,global,abs,ovrld,class=IDLOC,space=5,delta=1,noexec
    68                           	psect	config,global,abs,ovrld,class=CONFIG,space=4,delta=1,noexec
    69  0000                     
    70                           ; Version 2.20
    71                           ; Generated 12/02/2020 GMT
    72                           ; 
    73                           ; Copyright © 2020, Microchip Technology Inc. and its subsidiaries ("Microchip")
    74                           ; All rights reserved.
    75                           ; 
    76                           ; This software is developed by Microchip Technology Inc. and its subsidiaries ("Microch
      +                          ip").
    77                           ; 
    78                           ; Redistribution and use in source and binary forms, with or without modification, are
    79                           ; permitted provided that the following conditions are met:
    80                           ; 
    81                           ;     1. Redistributions of source code must retain the above copyright notice, this lis
      +                          t of
    82                           ;        conditions and the following disclaimer.
    83                           ; 
    84                           ;     2. Redistributions in binary form must reproduce the above copyright notice, this 
      +                          list
    85                           ;        of conditions and the following disclaimer in the documentation and/or other
    86                           ;        materials provided with the distribution.
    87                           ; 
    88                           ;     3. Microchip's name may not be used to endorse or promote products derived from th
      +                          is
    89                           ;        software without specific prior written permission.
    90                           ; 
    91                           ; THIS SOFTWARE IS PROVIDED BY MICROCHIP "AS IS" AND ANY EXPRESS OR IMPLIED WARRANTIES,
    92                           ; INCLUDING, BUT NOT LIMITED TO, THE IMPLIED WARRANTIES OF MERCHANTABILITY AND FITNESS F
      +                          OR
    93                           ; PURPOSE ARE DISCLAIMED.  IN NO EVENT SHALL MICROCHIP BE LIABLE FOR ANY DIRECT, INDIREC
      +                          T,
    94                           ; INCIDENTAL, SPECIAL, EXEMPLARY, OR CONSEQUENTIAL DAMAGES (INCLUDING BUT NOT LIMITED TO
    95                           ; PROCUREMENT OF SUBSTITUTE GOODS OR SERVICES; LOSS OF USE, DATA OR PROFITS; OR BUSINESS
    96                           ; INTERRUPTION) HOWSOEVER CAUSED AND ON ANY THEORY OF LIABILITY, WHETHER IN CONTRACT, ST
      +                          RICT
    97                           ; LIABILITY, OR TORT (INCLUDING NEGLIGENCE OR OTHERWISE) ARISING IN ANY WAY OUT OF THE U
      +                          SE OF
    98                           ; THIS SOFTWARE, EVEN IF ADVISED OF THE POSSIBILITY OF SUCH DAMAGE.
    99                           ; 
   100                           ; 
   101                           ; Code-generator required, PIC18F4550 Definitions
   102                           ; 
   103                           ; SFR Addresses
   104  0000                     
   105                           	psect	idataCOMRAM
   106  0045FC                     __pidataCOMRAM:
   107                           	callstack 0
   108                           
   109                           ;initializer for _temperaturaMin
   110  0045FC  002B               	dw	43
   111                           
   112                           ;initializer for _temperaturaMax
   113  0045FE  003C               	dw	60
   114                           
   115                           	psect	nvCOMRAM
   116  000039                     __pnvCOMRAM:
   117                           	callstack 0
   118  000039                     _temperatura:
   119                           	callstack 0
   120  000039                     	ds	4
   121  0000                     _ADRESL	set	4035
   122  0000                     _ADRESH	set	4036
   123  0000                     _INTCON2bits	set	4081
   124  0000                     _T2CON	set	4042
   125  0000                     _TRISCbits	set	3988
   126  0000                     _CCP1CON	set	4029
   127  0000                     _PR2	set	4043
   128  0000                     _TMR2	set	4044
   129  0000                     _PORTC	set	3970
   130  0000                     _TRISC	set	3988
   131  0000                     _TRISE	set	3990
   132  0000                     _TRISD	set	3989
   133  0000                     _T0CON	set	4053
   134  0000                     _PORTAbits	set	3968
   135  0000                     _TMR0L	set	4054
   136  0000                     _INTCONbits	set	4082
   137  0000                     _INTCON3bits	set	4080
   138  0000                     _CCPR1L	set	4030
   139  0000                     _ADCON0bits	set	4034
   140  0000                     _ADCON0	set	4034
   141  0000                     _ADCON2bits	set	4032
   142  0000                     _ADCON1	set	4033
   143  0000                     _TRISA	set	3986
   144  0000                     _PORTD	set	3971
   145  0000                     _PORTEbits	set	3972
   146  0000                     _TMR2IF	set	31985
   147                           
   148                           	psect	smallconst
   149  000800                     __psmallconst:
   150                           	callstack 0
   151  000800  00                 	db	0
   152  000801                     STR_7:
   153  000801  20                 	db	32
   154  000802  47                 	db	71	;'G'
   155  000803  72                 	db	114	;'r'
   156  000804  61                 	db	97	;'a'
   157  000805  75                 	db	117	;'u'
   158  000806  73                 	db	115	;'s'
   159  000807  20                 	db	32
   160  000808  43                 	db	67	;'C'
   161  000809  65                 	db	101	;'e'
   162  00080A  6C                 	db	108	;'l'
   163  00080B  73                 	db	115	;'s'
   164  00080C  69                 	db	105	;'i'
   165  00080D  75                 	db	117	;'u'
   166  00080E  73                 	db	115	;'s'
   167  00080F  00                 	db	0
   168  000810                     STR_3:
   169  000810  50                 	db	80	;'P'
   170  000811  45                 	db	69	;'E'
   171  000812  52                 	db	82	;'R'
   172  000813  49                 	db	73	;'I'
   173  000814  47                 	db	71	;'G'
   174  000815  4F                 	db	79	;'O'
   175  000816  20                 	db	32
   176  000817  42                 	db	66	;'B'
   177  000818  41                 	db	65	;'A'
   178  000819  49                 	db	73	;'I'
   179  00081A  58                 	db	88	;'X'
   180  00081B  41                 	db	65	;'A'
   181  00081C  00                 	db	0
   182  00081D                     STR_2:
   183  00081D  54                 	db	84	;'T'
   184  00081E  45                 	db	69	;'E'
   185  00081F  4D                 	db	77	;'M'
   186  000820  50                 	db	80	;'P'
   187  000821  45                 	db	69	;'E'
   188  000822  52                 	db	82	;'R'
   189  000823  41                 	db	65	;'A'
   190  000824  54                 	db	84	;'T'
   191  000825  55                 	db	85	;'U'
   192  000826  52                 	db	82	;'R'
   193  000827  41                 	db	65	;'A'
   194  000828  00                 	db	0
   195  000829                     STR_1:
   196  000829  50                 	db	80	;'P'
   197  00082A  45                 	db	69	;'E'
   198  00082B  52                 	db	82	;'R'
   199  00082C  49                 	db	73	;'I'
   200  00082D  47                 	db	71	;'G'
   201  00082E  4F                 	db	79	;'O'
   202  00082F  20                 	db	32
   203  000830  41                 	db	65	;'A'
   204  000831  4C                 	db	76	;'L'
   205  000832  54                 	db	84	;'T'
   206  000833  41                 	db	65	;'A'
   207  000834  00                 	db	0
   208  000835                     STR_5:
   209  000835  54                 	db	84	;'T'
   210  000836  65                 	db	101	;'e'
   211  000837  6D                 	db	109	;'m'
   212  000838  70                 	db	112	;'p'
   213  000839  65                 	db	101	;'e'
   214  00083A  72                 	db	114	;'r'
   215  00083B  61                 	db	97	;'a'
   216  00083C  74                 	db	116	;'t'
   217  00083D  75                 	db	117	;'u'
   218  00083E  72                 	db	114	;'r'
   219  00083F  61                 	db	97	;'a'
   220  000840  00                 	db	0
   221  000841                     STR_6:
   222  000841  25                 	db	37
   223  000842  33                 	db	51	;'3'
   224  000843  2E                 	db	46
   225  000844  32                 	db	50	;'2'
   226  000845  66                 	db	102	;'f'
   227  000846  00                 	db	0
   228  000847                     STR_8:
   229  000847  49                 	db	73	;'I'
   230  000848  4E                 	db	78	;'N'
   231  000849  46                 	db	70	;'F'
   232  00084A  00                 	db	0
   233  00084B                     STR_12:
   234  00084B  4E                 	db	78	;'N'
   235  00084C  41                 	db	65	;'A'
   236  00084D  4E                 	db	78	;'N'
   237  00084E  00                 	db	0
   238  00084F                     STR_9:
   239  00084F  69                 	db	105	;'i'
   240  000850  6E                 	db	110	;'n'
   241  000851  66                 	db	102	;'f'
   242  000852  00                 	db	0
   243  000853                     STR_13:
   244  000853  6E                 	db	110	;'n'
   245  000854  61                 	db	97	;'a'
   246  000855  6E                 	db	110	;'n'
   247  000856  00                 	db	0
   248  000857                     STR_16:
   249  000857  6C                 	db	108	;'l'
   250  000858  66                 	db	102	;'f'
   251  000859  00                 	db	0
   252  00085A  00                 	db	0	; dummy byte at the end
   253  0000                     
   254                           ; #config settings
   255                           
   256                           	psect	cinit
   257  00429A                     __pcinit:
   258                           	callstack 0
   259  00429A                     start_initialization:
   260                           	callstack 0
   261  00429A                     __initialization:
   262                           	callstack 0
   263                           
   264                           ; Initialize objects allocated to COMRAM (4 bytes)
   265                           ; load TBLPTR registers with __pidataCOMRAM
   266  00429A  0EFC               	movlw	low __pidataCOMRAM
   267  00429C  6EF6               	movwf	tblptrl,c
   268  00429E  0E45               	movlw	high __pidataCOMRAM
   269  0042A0  6EF7               	movwf	tblptrh,c
   270  0042A2  0E00               	movlw	low (__pidataCOMRAM shr (0+16))
   271  0042A4  6EF8               	movwf	tblptru,c
   272  0042A6  EE00  F03D         	lfsr	0,__pdataCOMRAM
   273  0042AA  EE10 F004          	lfsr	1,4
   274  0042AE                     copy_data0:
   275  0042AE  0009               	tblrd		*+
   276  0042B0  CFF5 FFEE          	movff	tablat,postinc0
   277  0042B4  50E5               	movf	postdec1,w,c
   278  0042B6  50E1               	movf	fsr1l,w,c
   279  0042B8  E1FA               	bnz	copy_data0
   280                           
   281                           ; Clear objects allocated to BANK1 (88 bytes)
   282  0042BA  EE01  F000         	lfsr	0,__pbssBANK1
   283  0042BE  0E58               	movlw	88
   284  0042C0                     clear_0:
   285  0042C0  6AEE               	clrf	postinc0,c
   286  0042C2  06E8               	decf	wreg,f,c
   287  0042C4  E1FD               	bnz	clear_0
   288                           
   289                           ; Clear objects allocated to BANK0 (8 bytes)
   290  0042C6  EE00  F0F7         	lfsr	0,__pbssBANK0
   291  0042CA  0E08               	movlw	8
   292  0042CC                     clear_1:
   293  0042CC  6AEE               	clrf	postinc0,c
   294  0042CE  06E8               	decf	wreg,f,c
   295  0042D0  E1FD               	bnz	clear_1
   296                           
   297                           ; Clear objects allocated to COMRAM (22 bytes)
   298  0042D2  EE00  F023         	lfsr	0,__pbssCOMRAM
   299  0042D6  0E16               	movlw	22
   300  0042D8                     clear_2:
   301  0042D8  6AEE               	clrf	postinc0,c
   302  0042DA  06E8               	decf	wreg,f,c
   303  0042DC  E1FD               	bnz	clear_2
   304  0042DE                     end_of_initialization:
   305                           	callstack 0
   306  0042DE                     __end_of__initialization:
   307                           	callstack 0
   308  0042DE  9041               	bcf	int$flags,0,c	;clear compiler interrupt flag (level 1)
   309  0042E0  9241               	bcf	int$flags,1,c	;clear compiler interrupt flag (level 2)
   310  0042E2  0E00               	movlw	low (__Lmediumconst shr (0+16))
   311  0042E4  6EF8               	movwf	tblptru,c
   312  0042E6  0100               	movlb	0
   313  0042E8  EFC7  F016         	goto	_main	;jump to C main() function
   314                           
   315                           	psect	bssCOMRAM
   316  000023                     __pbssCOMRAM:
   317                           	callstack 0
   318  000023                     floorf@F527:
   319                           	callstack 0
   320  000023                     	ds	4
   321  000027                     ___fpclassifyf@F465:
   322                           	callstack 0
   323  000027                     	ds	4
   324  00002B                     _velocidadeCooler:
   325                           	callstack 0
   326  00002B                     	ds	4
   327  00002F                     _flags:
   328                           	callstack 0
   329  00002F                     	ds	2
   330  000031                     _contadorInt:
   331                           	callstack 0
   332  000031                     	ds	2
   333  000033                     _tempdisp:
   334                           	callstack 0
   335  000033                     	ds	2
   336  000035                     _tensao:
   337                           	callstack 0
   338  000035                     	ds	4
   339                           
   340                           	psect	dataCOMRAM
   341  00003D                     __pdataCOMRAM:
   342                           	callstack 0
   343  00003D                     _temperaturaMin:
   344                           	callstack 0
   345  00003D                     	ds	2
   346  00003F                     _temperaturaMax:
   347                           	callstack 0
   348  00003F                     	ds	2
   349                           
   350                           	psect	bssBANK0
   351  0000F7                     __pbssBANK0:
   352                           	callstack 0
   353  0000F7                     _nout:
   354                           	callstack 0
   355  0000F7                     	ds	2
   356  0000F9                     _width:
   357                           	callstack 0
   358  0000F9                     	ds	2
   359  0000FB                     _prec:
   360                           	callstack 0
   361  0000FB                     	ds	2
   362  0000FD                     _contador:
   363                           	callstack 0
   364  0000FD                     	ds	2
   365                           
   366                           	psect	bssBANK1
   367  000100                     __pbssBANK1:
   368                           	callstack 0
   369  000100                     _dbuf:
   370                           	callstack 0
   371  000100                     	ds	80
   372  000150                     _temperature:
   373                           	callstack 0
   374  000150                     	ds	8
   375                           
   376                           	psect	cstackBANK1
   377  000158                     __pcstackBANK1:
   378                           	callstack 0
   379  000158                     ?_vfprintf:
   380                           	callstack 0
   381  000158                     vfprintf@fp:
   382                           	callstack 0
   383                           
   384                           ; 2 bytes @ 0x0
   385  000158                     	ds	2
   386  00015A                     vfprintf@fmt:
   387                           	callstack 0
   388                           
   389                           ; 2 bytes @ 0x2
   390  00015A                     	ds	2
   391  00015C                     vfprintf@ap:
   392                           	callstack 0
   393                           
   394                           ; 2 bytes @ 0x4
   395  00015C                     	ds	2
   396  00015E                     ?_sprintf:
   397                           	callstack 0
   398  00015E                     sprintf@s:
   399                           	callstack 0
   400                           
   401                           ; 2 bytes @ 0x6
   402  00015E                     	ds	2
   403  000160                     sprintf@fmt:
   404                           	callstack 0
   405                           
   406                           ; 2 bytes @ 0x8
   407  000160                     	ds	6
   408  000166                     sprintf@ap:
   409                           	callstack 0
   410                           
   411                           ; 2 bytes @ 0xE
   412  000166                     	ds	2
   413  000168                     sprintf@f:
   414                           	callstack 0
   415                           
   416                           ; 6 bytes @ 0x10
   417  000168                     	ds	6
   418  00016E                     ??_main:
   419                           
   420                           ; 1 bytes @ 0x16
   421  00016E                     	ds	2
   422                           
   423                           	psect	cstackBANK0
   424  000060                     __pcstackBANK0:
   425                           	callstack 0
   426  000060                     ?_strlen:
   427                           	callstack 0
   428  000060                     ?___fpclassifyf:
   429                           	callstack 0
   430  000060                     ?_isupper:
   431                           	callstack 0
   432  000060                     ?_isdigit:
   433                           	callstack 0
   434  000060                     ?_strncmp:
   435                           	callstack 0
   436  000060                     ?_isspace:
   437                           	callstack 0
   438  000060                     ?___wmul:
   439                           	callstack 0
   440  000060                     ?___awdiv:
   441                           	callstack 0
   442  000060                     ?___awmod:
   443                           	callstack 0
   444  000060                     ?___fladd:
   445                           	callstack 0
   446  000060                     ?___fldiv:
   447                           	callstack 0
   448  000060                     ?___flneg:
   449                           	callstack 0
   450  000060                     ?___fltol:
   451                           	callstack 0
   452  000060                     comando_lcd@comando:
   453                           	callstack 0
   454  000060                     dado_lcd@dado:
   455                           	callstack 0
   456  000060                     ___wmul@multiplier:
   457                           	callstack 0
   458  000060                     ___awdiv@dividend:
   459                           	callstack 0
   460  000060                     ___awmod@dividend:
   461                           	callstack 0
   462  000060                     isdigit@c:
   463                           	callstack 0
   464  000060                     isspace@c:
   465                           	callstack 0
   466  000060                     isupper@c:
   467                           	callstack 0
   468  000060                     fputc@c:
   469                           	callstack 0
   470  000060                     strcpy@dest:
   471                           	callstack 0
   472  000060                     strlen@s:
   473                           	callstack 0
   474  000060                     strncmp@_l:
   475                           	callstack 0
   476  000060                     ___fleq@ff1:
   477                           	callstack 0
   478  000060                     ___flneg@f1:
   479                           	callstack 0
   480  000060                     ___fltol@f1:
   481                           	callstack 0
   482  000060                     ___fladd@b:
   483                           	callstack 0
   484  000060                     ___fldiv@b:
   485                           	callstack 0
   486  000060                     ___fpclassifyf@x:
   487                           	callstack 0
   488                           
   489                           ; 4 bytes @ 0x0
   490  000060                     	ds	2
   491  000062                     ??_isupper:
   492  000062                     ??_isdigit:
   493  000062                     ??_isspace:
   494  000062                     ??_comando_lcd:
   495  000062                     ??_dado_lcd:
   496  000062                     ___wmul@multiplicand:
   497                           	callstack 0
   498  000062                     ___awdiv@divisor:
   499                           	callstack 0
   500  000062                     ___awmod@divisor:
   501                           	callstack 0
   502  000062                     fputc@fp:
   503                           	callstack 0
   504  000062                     strcpy@src:
   505                           	callstack 0
   506  000062                     strlen@a:
   507                           	callstack 0
   508  000062                     strncmp@_r:
   509                           	callstack 0
   510                           
   511                           ; 2 bytes @ 0x2
   512  000062                     	ds	1
   513  000063                     
   514                           ; 1 bytes @ 0x3
   515  000063                     	ds	1
   516  000064                     ??_fputc:
   517  000064                     ??___fpclassifyf:
   518  000064                     ??_strcpy:
   519  000064                     ??___fltol:
   520  000064                     ___awdiv@counter:
   521                           	callstack 0
   522  000064                     ___awmod@counter:
   523                           	callstack 0
   524  000064                     imprime_lcd@frase:
   525                           	callstack 0
   526  000064                     ___wmul@product:
   527                           	callstack 0
   528  000064                     strncmp@n:
   529                           	callstack 0
   530  000064                     ___fleq@ff2:
   531                           	callstack 0
   532  000064                     ___fladd@a:
   533                           	callstack 0
   534  000064                     ___fldiv@a:
   535                           	callstack 0
   536                           
   537                           ; 4 bytes @ 0x4
   538  000064                     	ds	1
   539  000065                     ___awdiv@sign:
   540                           	callstack 0
   541  000065                     ___awmod@sign:
   542                           	callstack 0
   543                           
   544                           ; 1 bytes @ 0x5
   545  000065                     	ds	1
   546  000066                     ??_strncmp:
   547  000066                     ??_imprime_lcd:
   548  000066                     ?_tolower:
   549                           	callstack 0
   550  000066                     ?___xxtofl:
   551                           	callstack 0
   552  000066                     _isspace$1202:
   553                           	callstack 0
   554  000066                     ___awdiv@quotient:
   555                           	callstack 0
   556  000066                     strcpy@s:
   557                           	callstack 0
   558  000066                     tolower@c:
   559                           	callstack 0
   560  000066                     ___xxtofl@val:
   561                           	callstack 0
   562                           
   563                           ; 4 bytes @ 0x6
   564  000066                     	ds	1
   565  000067                     ?_atoi:
   566                           	callstack 0
   567  000067                     atoi@s:
   568                           	callstack 0
   569  000067                     strncmp@l:
   570                           	callstack 0
   571                           
   572                           ; 2 bytes @ 0x7
   573  000067                     	ds	1
   574  000068                     ??___fladd:
   575  000068                     ??___fldiv:
   576  000068                     ??_tolower:
   577  000068                     ??___fleq:
   578  000068                     ___fltol@sign1:
   579                           	callstack 0
   580  000068                     ___fpclassifyf@e:
   581                           	callstack 0
   582  000068                     strcpy@d:
   583                           	callstack 0
   584                           
   585                           ; 2 bytes @ 0x8
   586  000068                     	ds	1
   587  000069                     ??_atoi:
   588  000069                     ___fltol@exp1:
   589                           	callstack 0
   590  000069                     imprime_lcd@tamanho:
   591                           	callstack 0
   592  000069                     fputs@s:
   593                           	callstack 0
   594  000069                     strncmp@r:
   595                           	callstack 0
   596                           
   597                           ; 2 bytes @ 0x9
   598  000069                     	ds	1
   599  00006A                     ??___xxtofl:
   600  00006A                     ___fpclassifyf@u:
   601                           	callstack 0
   602                           
   603                           ; 4 bytes @ 0xA
   604  00006A                     	ds	1
   605  00006B                     imprime_lcd@indice:
   606                           	callstack 0
   607  00006B                     fputs@fp:
   608                           	callstack 0
   609                           
   610                           ; 2 bytes @ 0xB
   611  00006B                     	ds	1
   612  00006C                     ___fladd@signs:
   613                           	callstack 0
   614  00006C                     _tolower$1266:
   615                           	callstack 0
   616  00006C                     ___fldiv@rem:
   617                           	callstack 0
   618                           
   619                           ; 4 bytes @ 0xC
   620  00006C                     	ds	1
   621  00006D                     ___fladd@aexp:
   622                           	callstack 0
   623  00006D                     fputs@c:
   624                           	callstack 0
   625  00006D                     atoi@neg:
   626                           	callstack 0
   627                           
   628                           ; 2 bytes @ 0xD
   629  00006D                     	ds	1
   630  00006E                     ___fladd@bexp:
   631                           	callstack 0
   632  00006E                     ___xxtofl@sign:
   633                           	callstack 0
   634  00006E                     fputs@i:
   635                           	callstack 0
   636                           
   637                           ; 2 bytes @ 0xE
   638  00006E                     	ds	1
   639  00006F                     ___fladd@grs:
   640                           	callstack 0
   641  00006F                     ___xxtofl@exp:
   642                           	callstack 0
   643  00006F                     _atoi$1171:
   644                           	callstack 0
   645                           
   646                           ; 2 bytes @ 0xF
   647  00006F                     	ds	1
   648  000070                     ?_pad:
   649                           	callstack 0
   650  000070                     ___fldiv@sign:
   651                           	callstack 0
   652  000070                     pad@fp:
   653                           	callstack 0
   654  000070                     ___xxtofl@arg:
   655                           	callstack 0
   656                           
   657                           ; 4 bytes @ 0x10
   658  000070                     	ds	1
   659  000071                     ___fldiv@new_exp:
   660                           	callstack 0
   661  000071                     _atoi$1173:
   662                           	callstack 0
   663                           
   664                           ; 2 bytes @ 0x11
   665  000071                     	ds	1
   666  000072                     pad@buf:
   667                           	callstack 0
   668                           
   669                           ; 2 bytes @ 0x12
   670  000072                     	ds	1
   671  000073                     _atoi$1172:
   672                           	callstack 0
   673  000073                     ___fldiv@grs:
   674                           	callstack 0
   675                           
   676                           ; 4 bytes @ 0x13
   677  000073                     	ds	1
   678  000074                     ?___flmul:
   679                           	callstack 0
   680  000074                     pad@p:
   681                           	callstack 0
   682  000074                     atoi@n:
   683                           	callstack 0
   684  000074                     ___flmul@b:
   685                           	callstack 0
   686                           
   687                           ; 4 bytes @ 0x14
   688  000074                     	ds	2
   689  000076                     ??_pad:
   690                           
   691                           ; 1 bytes @ 0x16
   692  000076                     	ds	1
   693  000077                     ___fldiv@bexp:
   694                           	callstack 0
   695  000077                     pad@i:
   696                           	callstack 0
   697                           
   698                           ; 2 bytes @ 0x17
   699  000077                     	ds	1
   700  000078                     ___fldiv@aexp:
   701                           	callstack 0
   702  000078                     ___flmul@a:
   703                           	callstack 0
   704                           
   705                           ; 4 bytes @ 0x18
   706  000078                     	ds	1
   707  000079                     ?_floorf:
   708                           	callstack 0
   709  000079                     pad@w:
   710                           	callstack 0
   711  000079                     floorf@x:
   712                           	callstack 0
   713                           
   714                           ; 4 bytes @ 0x19
   715  000079                     	ds	3
   716  00007C                     ??___flmul:
   717                           
   718                           ; 1 bytes @ 0x1C
   719  00007C                     	ds	1
   720  00007D                     ??_floorf:
   721                           
   722                           ; 1 bytes @ 0x1D
   723  00007D                     	ds	3
   724  000080                     ___flmul@sign:
   725                           	callstack 0
   726                           
   727                           ; 1 bytes @ 0x20
   728  000080                     	ds	1
   729  000081                     ___flmul@aexp:
   730                           	callstack 0
   731                           
   732                           ; 1 bytes @ 0x21
   733  000081                     	ds	1
   734  000082                     ___flmul@grs:
   735                           	callstack 0
   736                           
   737                           ; 4 bytes @ 0x22
   738  000082                     	ds	1
   739  000083                     floorf@m:
   740                           	callstack 0
   741                           
   742                           ; 4 bytes @ 0x23
   743  000083                     	ds	3
   744  000086                     ___flmul@bexp:
   745                           	callstack 0
   746                           
   747                           ; 1 bytes @ 0x26
   748  000086                     	ds	1
   749  000087                     floorf@e:
   750                           	callstack 0
   751  000087                     ___flmul@prod:
   752                           	callstack 0
   753                           
   754                           ; 4 bytes @ 0x27
   755  000087                     	ds	2
   756  000089                     floorf@u:
   757                           	callstack 0
   758                           
   759                           ; 4 bytes @ 0x29
   760  000089                     	ds	2
   761  00008B                     ___flmul@temp:
   762                           	callstack 0
   763                           
   764                           ; 2 bytes @ 0x2B
   765  00008B                     	ds	2
   766  00008D                     ?___flsub:
   767                           	callstack 0
   768  00008D                     ___flge@ff1:
   769                           	callstack 0
   770  00008D                     ___flsub@b:
   771                           	callstack 0
   772                           
   773                           ; 4 bytes @ 0x2D
   774  00008D                     	ds	4
   775  000091                     ___flge@ff2:
   776                           	callstack 0
   777  000091                     ___flsub@a:
   778                           	callstack 0
   779                           
   780                           ; 4 bytes @ 0x31
   781  000091                     	ds	4
   782  000095                     ??___flge:
   783                           
   784                           ; 1 bytes @ 0x35
   785  000095                     	ds	4
   786  000099                     ?_efgtoa:
   787                           	callstack 0
   788  000099                     efgtoa@fp:
   789                           	callstack 0
   790                           
   791                           ; 2 bytes @ 0x39
   792  000099                     	ds	2
   793  00009B                     efgtoa@f:
   794                           	callstack 0
   795                           
   796                           ; 4 bytes @ 0x3B
   797  00009B                     	ds	4
   798  00009F                     efgtoa@c:
   799                           	callstack 0
   800                           
   801                           ; 1 bytes @ 0x3F
   802  00009F                     	ds	1
   803  0000A0                     ??_efgtoa:
   804                           
   805                           ; 1 bytes @ 0x40
   806  0000A0                     	ds	5
   807  0000A5                     _efgtoa$1106:
   808                           	callstack 0
   809                           
   810                           ; 2 bytes @ 0x45
   811  0000A5                     	ds	2
   812  0000A7                     _efgtoa$1107:
   813                           	callstack 0
   814                           
   815                           ; 2 bytes @ 0x47
   816  0000A7                     	ds	2
   817  0000A9                     _efgtoa$1112:
   818                           	callstack 0
   819                           
   820                           ; 2 bytes @ 0x49
   821  0000A9                     	ds	2
   822  0000AB                     _efgtoa$1116:
   823                           	callstack 0
   824                           
   825                           ; 2 bytes @ 0x4B
   826  0000AB                     	ds	2
   827  0000AD                     _efgtoa$1117:
   828                           	callstack 0
   829                           
   830                           ; 2 bytes @ 0x4D
   831  0000AD                     	ds	2
   832  0000AF                     _efgtoa$1118:
   833                           	callstack 0
   834                           
   835                           ; 2 bytes @ 0x4F
   836  0000AF                     	ds	2
   837  0000B1                     efgtoa@t:
   838                           	callstack 0
   839                           
   840                           ; 2 bytes @ 0x51
   841  0000B1                     	ds	2
   842  0000B3                     efgtoa@pp:
   843                           	callstack 0
   844                           
   845                           ; 2 bytes @ 0x53
   846  0000B3                     	ds	2
   847  0000B5                     efgtoa@ne:
   848                           	callstack 0
   849                           
   850                           ; 2 bytes @ 0x55
   851  0000B5                     	ds	2
   852  0000B7                     efgtoa@m:
   853                           	callstack 0
   854                           
   855                           ; 2 bytes @ 0x57
   856  0000B7                     	ds	2
   857  0000B9                     efgtoa@ou:
   858                           	callstack 0
   859                           
   860                           ; 4 bytes @ 0x59
   861  0000B9                     	ds	4
   862  0000BD                     efgtoa@d:
   863                           	callstack 0
   864                           
   865                           ; 2 bytes @ 0x5D
   866  0000BD                     	ds	2
   867  0000BF                     efgtoa@sign:
   868                           	callstack 0
   869                           
   870                           ; 2 bytes @ 0x5F
   871  0000BF                     	ds	2
   872  0000C1                     efgtoa@p:
   873                           	callstack 0
   874                           
   875                           ; 2 bytes @ 0x61
   876  0000C1                     	ds	2
   877  0000C3                     efgtoa@w:
   878                           	callstack 0
   879                           
   880                           ; 2 bytes @ 0x63
   881  0000C3                     	ds	2
   882  0000C5                     efgtoa@nmode:
   883                           	callstack 0
   884                           
   885                           ; 1 bytes @ 0x65
   886  0000C5                     	ds	1
   887  0000C6                     efgtoa@mode:
   888                           	callstack 0
   889                           
   890                           ; 1 bytes @ 0x66
   891  0000C6                     	ds	1
   892  0000C7                     efgtoa@h:
   893                           	callstack 0
   894                           
   895                           ; 4 bytes @ 0x67
   896  0000C7                     	ds	4
   897  0000CB                     efgtoa@l:
   898                           	callstack 0
   899                           
   900                           ; 4 bytes @ 0x6B
   901  0000CB                     	ds	4
   902  0000CF                     efgtoa@i:
   903                           	callstack 0
   904                           
   905                           ; 2 bytes @ 0x6F
   906  0000CF                     	ds	2
   907  0000D1                     efgtoa@g:
   908                           	callstack 0
   909                           
   910                           ; 4 bytes @ 0x71
   911  0000D1                     	ds	4
   912  0000D5                     efgtoa@e:
   913                           	callstack 0
   914                           
   915                           ; 2 bytes @ 0x75
   916  0000D5                     	ds	2
   917  0000D7                     efgtoa@n:
   918                           	callstack 0
   919                           
   920                           ; 2 bytes @ 0x77
   921  0000D7                     	ds	2
   922  0000D9                     efgtoa@u:
   923                           	callstack 0
   924                           
   925                           ; 4 bytes @ 0x79
   926  0000D9                     	ds	4
   927  0000DD                     ?_vfpfcnvrt:
   928                           	callstack 0
   929  0000DD                     vfpfcnvrt@fp:
   930                           	callstack 0
   931                           
   932                           ; 2 bytes @ 0x7D
   933  0000DD                     	ds	2
   934  0000DF                     vfpfcnvrt@fmt:
   935                           	callstack 0
   936                           
   937                           ; 2 bytes @ 0x7F
   938  0000DF                     	ds	2
   939  0000E1                     vfpfcnvrt@ap:
   940                           	callstack 0
   941                           
   942                           ; 2 bytes @ 0x81
   943  0000E1                     	ds	2
   944  0000E3                     ??_vfpfcnvrt:
   945                           
   946                           ; 1 bytes @ 0x83
   947  0000E3                     	ds	4
   948  0000E7                     _vfpfcnvrt$1132:
   949                           	callstack 0
   950                           
   951                           ; 2 bytes @ 0x87
   952  0000E7                     	ds	2
   953  0000E9                     _vfpfcnvrt$1133:
   954                           	callstack 0
   955                           
   956                           ; 2 bytes @ 0x89
   957  0000E9                     	ds	2
   958  0000EB                     _vfpfcnvrt$1137:
   959                           	callstack 0
   960                           
   961                           ; 2 bytes @ 0x8B
   962  0000EB                     	ds	2
   963  0000ED                     vfpfcnvrt@f:
   964                           	callstack 0
   965                           
   966                           ; 4 bytes @ 0x8D
   967  0000ED                     	ds	4
   968  0000F1                     vfpfcnvrt@ct:
   969                           	callstack 0
   970                           
   971                           ; 3 bytes @ 0x91
   972  0000F1                     	ds	3
   973  0000F4                     vfpfcnvrt@c:
   974                           	callstack 0
   975                           
   976                           ; 1 bytes @ 0x94
   977  0000F4                     	ds	1
   978  0000F5                     vfprintf@cfmt:
   979                           	callstack 0
   980                           
   981                           ; 2 bytes @ 0x95
   982  0000F5                     	ds	2
   983  0000F7                     
   984                           ; 1 bytes @ 0x97
   985                           
   986                           	psect	cstackCOMRAM
   987  000001                     __pcstackCOMRAM:
   988                           	callstack 0
   989  000001                     ?i2_strlen:
   990                           	callstack 0
   991  000001                     ?i2___fladd:
   992                           	callstack 0
   993  000001                     ?i2___xxtofl:
   994                           	callstack 0
   995  000001                     i2comando_lcd@comando:
   996                           	callstack 0
   997  000001                     i2dado_lcd@dado:
   998                           	callstack 0
   999  000001                     i2strlen@s:
  1000                           	callstack 0
  1001  000001                     i2___fladd@b:
  1002                           	callstack 0
  1003  000001                     i2___xxtofl@val:
  1004                           	callstack 0
  1005                           
  1006                           ; 4 bytes @ 0x0
  1007  000001                     	ds	2
  1008  000003                     ??i2_comando_lcd:
  1009  000003                     ??i2_dado_lcd:
  1010  000003                     i2strlen@a:
  1011                           	callstack 0
  1012                           
  1013                           ; 2 bytes @ 0x2
  1014  000003                     	ds	1
  1015  000004                     
  1016                           ; 1 bytes @ 0x3
  1017  000004                     	ds	1
  1018  000005                     ??i2___xxtofl:
  1019  000005                     i2imprime_lcd@frase:
  1020                           	callstack 0
  1021  000005                     i2___fladd@a:
  1022                           	callstack 0
  1023                           
  1024                           ; 4 bytes @ 0x4
  1025  000005                     	ds	2
  1026  000007                     ??i2_imprime_lcd:
  1027                           
  1028                           ; 1 bytes @ 0x6
  1029  000007                     	ds	2
  1030  000009                     ??i2___fladd:
  1031  000009                     i2___xxtofl@sign:
  1032                           	callstack 0
  1033                           
  1034                           ; 1 bytes @ 0x8
  1035  000009                     	ds	1
  1036  00000A                     i2___xxtofl@exp:
  1037                           	callstack 0
  1038  00000A                     i2imprime_lcd@tamanho:
  1039                           	callstack 0
  1040                           
  1041                           ; 2 bytes @ 0x9
  1042  00000A                     	ds	1
  1043  00000B                     i2___xxtofl@arg:
  1044                           	callstack 0
  1045                           
  1046                           ; 4 bytes @ 0xA
  1047  00000B                     	ds	1
  1048  00000C                     i2imprime_lcd@indice:
  1049                           	callstack 0
  1050                           
  1051                           ; 2 bytes @ 0xB
  1052  00000C                     	ds	1
  1053  00000D                     i2___fladd@signs:
  1054                           	callstack 0
  1055                           
  1056                           ; 1 bytes @ 0xC
  1057  00000D                     	ds	1
  1058  00000E                     i2___fladd@aexp:
  1059                           	callstack 0
  1060                           
  1061                           ; 1 bytes @ 0xD
  1062  00000E                     	ds	1
  1063  00000F                     i2___fladd@bexp:
  1064                           	callstack 0
  1065  00000F                     i2___flge@ff1:
  1066                           	callstack 0
  1067                           
  1068                           ; 4 bytes @ 0xE
  1069  00000F                     	ds	1
  1070  000010                     i2___fladd@grs:
  1071                           	callstack 0
  1072                           
  1073                           ; 1 bytes @ 0xF
  1074  000010                     	ds	3
  1075  000013                     i2___flge@ff2:
  1076                           	callstack 0
  1077                           
  1078                           ; 4 bytes @ 0x12
  1079  000013                     	ds	4
  1080  000017                     ??i2___flge:
  1081                           
  1082                           ; 1 bytes @ 0x16
  1083  000017                     	ds	4
  1084  00001B                     ??_alarmeTemperatura:
  1085                           
  1086                           ; 1 bytes @ 0x1A
  1087  00001B                     	ds	2
  1088  00001D                     ??_isr:
  1089                           
  1090                           ; 1 bytes @ 0x1C
  1091  00001D                     	ds	6
  1092                           
  1093 ;;
  1094 ;;Main: autosize = 0, tempsize = 2, incstack = 0, save=0
  1095 ;;
  1096 ;; *************** function _main *****************
  1097 ;; Defined at:
  1098 ;;		line 98 in file "ADC_LM35_lcd.c"
  1099 ;; Parameters:    Size  Location     Type
  1100 ;;		None
  1101 ;; Auto vars:     Size  Location     Type
  1102 ;;		None
  1103 ;; Return value:  Size  Location     Type
  1104 ;;                  1    wreg      void 
  1105 ;; Registers used:
  1106 ;;		wreg, fsr1l, fsr1h, fsr2l, fsr2h, status,2, status,0, tblptrl, tblptrh, tblptru, prodl, prodh, cstack
  1107 ;; Tracked objects:
  1108 ;;		On entry : 0/0
  1109 ;;		On exit  : 0/0
  1110 ;;		Unchanged: 0/0
  1111 ;; Data sizes:     COMRAM   BANK0   BANK1   BANK2   BANK3   BANK4   BANK5   BANK6   BANK7
  1112 ;;      Params:         0       0       0       0       0       0       0       0       0
  1113 ;;      Locals:         0       0       0       0       0       0       0       0       0
  1114 ;;      Temps:          0       0       2       0       0       0       0       0       0
  1115 ;;      Totals:         0       0       2       0       0       0       0       0       0
  1116 ;;Total ram usage:        2 bytes
  1117 ;; Hardware stack levels required when called: 12
  1118 ;; This function calls:
  1119 ;;		___flmul
  1120 ;;		___fltol
  1121 ;;		___wmul
  1122 ;;		___xxtofl
  1123 ;;		_comando_lcd
  1124 ;;		_imprime_lcd
  1125 ;;		_limpa_lcd
  1126 ;;		_setupADC
  1127 ;;		_sprintf
  1128 ;; This function is called by:
  1129 ;;		Startup code after reset
  1130 ;; This function uses a non-reentrant model
  1131 ;;
  1132                           
  1133                           	psect	text0
  1134  002D8E                     __ptext0:
  1135                           	callstack 0
  1136  002D8E                     _main:
  1137                           	callstack 19
  1138  002D8E                     
  1139                           ;ADC_LM35_lcd.c: 99: 
  1140  002D8E  0E00               	movlw	0
  1141  002D90  6E39               	movwf	_temperatura^0,c
  1142  002D92  0E00               	movlw	0
  1143  002D94  6E3A               	movwf	(_temperatura+1)^0,c
  1144  002D96  0E40               	movlw	64
  1145  002D98  6E3B               	movwf	(_temperatura+2)^0,c
  1146  002D9A  0E42               	movlw	66
  1147  002D9C  6E3C               	movwf	(_temperatura+3)^0,c
  1148  002D9E                     
  1149                           ;ADC_LM35_lcd.c: 100:     TMR2 = 0x00;
  1150  002D9E  9880               	bcf	128,4,c	;volatile
  1151  002DA0                     
  1152                           ;ADC_LM35_lcd.c: 102:     CCP1CON = 0b00001100;
  1153  002DA0  8EF2               	bsf	242,7,c	;volatile
  1154  002DA2                     
  1155                           ;ADC_LM35_lcd.c: 103:     CCPR1L = 240;
  1156  002DA2  8AF2               	bsf	242,5,c	;volatile
  1157                           
  1158                           ;ADC_LM35_lcd.c: 104:     TMR2IF = 0;
  1159  002DA4  0EC7               	movlw	199
  1160  002DA6  6ED5               	movwf	213,c	;volatile
  1161                           
  1162                           ;ADC_LM35_lcd.c: 105:     TRISCbits.RC2 = 0;
  1163  002DA8  0E05               	movlw	5
  1164  002DAA  6ED6               	movwf	214,c	;volatile
  1165                           
  1166                           ;ADC_LM35_lcd.c: 107: 
  1167  002DAC  0E00               	movlw	0
  1168  002DAE  6E95               	movwf	149,c	;volatile
  1169                           
  1170                           ;ADC_LM35_lcd.c: 108:     INTCON3bits.INT1IE = 1;
  1171  002DB0  0E00               	movlw	0
  1172  002DB2  6E96               	movwf	150,c	;volatile
  1173                           
  1174                           ;ADC_LM35_lcd.c: 109:     INTCON3bits.INT1IF = 0;
  1175  002DB4  0E00               	movlw	0
  1176  002DB6  6E94               	movwf	148,c	;volatile
  1177                           
  1178                           ;ADC_LM35_lcd.c: 110:     INTCON2bits.INTEDG1 = 1;
  1179  002DB8  0E24               	movlw	36
  1180  002DBA  6E82               	movwf	130,c	;volatile
  1181                           
  1182                           ;ADC_LM35_lcd.c: 111: 
  1183  002DBC  0E0F               	movlw	15
  1184  002DBE  6EC1               	movwf	193,c	;volatile
  1185  002DC0                     
  1186                           ;ADC_LM35_lcd.c: 113:     comando_lcd(0b00001100);
  1187  002DC0  EC8E  F022         	call	_setupADC	;wreg free
  1188  002DC4                     
  1189                           ;ADC_LM35_lcd.c: 115: 
  1190  002DC4  0E00               	movlw	0
  1191  002DC6  6ECC               	movwf	204,c	;volatile
  1192  002DC8                     
  1193                           ;ADC_LM35_lcd.c: 116: while(1) {
  1194  002DC8  0EFA               	movlw	250
  1195  002DCA  6ECB               	movwf	203,c	;volatile
  1196  002DCC                     
  1197                           ;ADC_LM35_lcd.c: 117: 
  1198  002DCC  0E0C               	movlw	12
  1199  002DCE  6EBD               	movwf	189,c	;volatile
  1200  002DD0                     
  1201                           ;ADC_LM35_lcd.c: 118:         ADCON1 = 0b00001100;
  1202  002DD0  0EF0               	movlw	240
  1203  002DD2  6EBE               	movwf	190,c	;volatile
  1204  002DD4                     
  1205                           ;ADC_LM35_lcd.c: 119: 
  1206  002DD4  929E               	bcf	3998,1,c	;volatile
  1207  002DD6                     
  1208                           ;ADC_LM35_lcd.c: 120:         ADCON0bits.GO = 1;
  1209  002DD6  9494               	bcf	148,2,c	;volatile
  1210  002DD8                     
  1211                           ;ADC_LM35_lcd.c: 121:   while (ADCON0bits.GO) {
  1212  002DD8  0E04               	movlw	4
  1213  002DDA  6ECA               	movwf	202,c	;volatile
  1214  002DDC                     
  1215                           ;ADC_LM35_lcd.c: 123:   contador = (ADRESH * 0x100) + ADRESL;
  1216  002DDC  86F0               	bsf	240,3,c	;volatile
  1217  002DDE                     
  1218                           ;ADC_LM35_lcd.c: 124:   tensao = ((5 * contador) * 0.001 );
  1219  002DDE  90F0               	bcf	240,0,c	;volatile
  1220  002DE0                     
  1221                           ;ADC_LM35_lcd.c: 125:         temperatura = 100*tensao;
  1222  002DE0  8AF1               	bsf	241,5,c	;volatile
  1223                           
  1224                           ;ADC_LM35_lcd.c: 127: 
  1225  002DE2  0E00               	movlw	0
  1226  002DE4  0100               	movlb	0	; () banked
  1227  002DE6  6F61               	movwf	(comando_lcd@comando+1)& (0+255),b
  1228  002DE8  0E3C               	movlw	60
  1229  002DEA  6F60               	movwf	comando_lcd@comando& (0+255),b
  1230  002DEC  ECB7  F022         	call	_comando_lcd	;wreg free
  1231                           
  1232                           ;ADC_LM35_lcd.c: 128:         _delay((unsigned long)((1000)*(4000000/4000.0)));
  1233  002DF0  0E00               	movlw	0
  1234  002DF2  0100               	movlb	0	; () banked
  1235  002DF4  6F61               	movwf	(comando_lcd@comando+1)& (0+255),b
  1236  002DF6  0E0C               	movlw	12
  1237  002DF8  6F60               	movwf	comando_lcd@comando& (0+255),b
  1238  002DFA  ECB7  F022         	call	_comando_lcd	;wreg free
  1239                           
  1240                           ;ADC_LM35_lcd.c: 129: 
  1241  002DFE  ECEF  F022         	call	_limpa_lcd	;wreg free
  1242  002E02                     l6147:
  1243                           
  1244                           ;ADC_LM35_lcd.c: 133: 
  1245  002E02  0E0C               	movlw	12
  1246  002E04  6EC1               	movwf	193,c	;volatile
  1247  002E06                     
  1248                           ;ADC_LM35_lcd.c: 135:         sprintf(temperature, "%3.2f", temperatura);
  1249  002E06  82C2               	bsf	194,1,c	;volatile
  1250  002E08                     l121:
  1251                           
  1252                           ;ADC_LM35_lcd.c: 136: 
  1253  002E08  B2C2               	btfsc	194,1,c	;volatile
  1254  002E0A  EF09  F017         	goto	u8771
  1255  002E0E  EF0B  F017         	goto	u8770
  1256  002E12                     u8771:
  1257  002E12  EF04  F017         	goto	l121
  1258  002E16                     u8770:
  1259  002E16                     
  1260                           ;ADC_LM35_lcd.c: 138:         imprime_lcd(" Graus Celsius");
  1261  002E16  50C4               	movf	196,w,c	;volatile
  1262  002E18  0101               	movlb	1	; () banked
  1263  002E1A  6F6F               	movwf	(??_main+1)& (0+255),b
  1264  002E1C  6B6E               	clrf	??_main& (0+255),b
  1265  002E1E  50C3               	movf	195,w,c	;volatile
  1266  002E20  256E               	addwf	??_main& (0+255),w,b
  1267  002E22  0100               	movlb	0	; () banked
  1268  002E24  6FFD               	movwf	_contador& (0+255),b
  1269  002E26  0E00               	movlw	0
  1270  002E28  0101               	movlb	1	; () banked
  1271  002E2A  216F               	addwfc	(??_main+1)& (0+255),w,b
  1272  002E2C  0100               	movlb	0	; () banked
  1273  002E2E  6FFE               	movwf	(_contador+1)& (0+255),b
  1274  002E30                     
  1275                           ; BSR set to: 0
  1276                           ;ADC_LM35_lcd.c: 139:  }
  1277  002E30  C0FD  F060         	movff	_contador,___wmul@multiplier
  1278  002E34  C0FE  F061         	movff	_contador+1,___wmul@multiplier+1
  1279  002E38  0E00               	movlw	0
  1280  002E3A  6F63               	movwf	(___wmul@multiplicand+1)& (0+255),b
  1281  002E3C  0E05               	movlw	5
  1282  002E3E  6F62               	movwf	___wmul@multiplicand& (0+255),b
  1283  002E40  ECA3  F022         	call	___wmul	;wreg free
  1284  002E44  0100               	movlb	0	; () banked
  1285  002E46  C060  F066         	movff	?___wmul,___xxtofl@val
  1286  002E4A  C061  F067         	movff	?___wmul+1,___xxtofl@val+1
  1287  002E4E  0E00               	movlw	0
  1288  002E50  BF67               	btfsc	(___xxtofl@val+1)& (0+255),7,b
  1289  002E52  0EFF               	movlw	-1
  1290  002E54  6F68               	movwf	(___xxtofl@val+2)& (0+255),b
  1291  002E56  6F69               	movwf	(___xxtofl@val+3)& (0+255),b
  1292  002E58  0E01               	movlw	1
  1293  002E5A  ECBC  F017         	call	___xxtofl
  1294  002E5E  C066  F074         	movff	?___xxtofl,___flmul@b
  1295  002E62  C067  F075         	movff	?___xxtofl+1,___flmul@b+1
  1296  002E66  C068  F076         	movff	?___xxtofl+2,___flmul@b+2
  1297  002E6A  C069  F077         	movff	?___xxtofl+3,___flmul@b+3
  1298  002E6E  0E6F               	movlw	111
  1299  002E70  0100               	movlb	0	; () banked
  1300  002E72  6F78               	movwf	___flmul@a& (0+255),b
  1301  002E74  0E12               	movlw	18
  1302  002E76  6F79               	movwf	(___flmul@a+1)& (0+255),b
  1303  002E78  0E83               	movlw	131
  1304  002E7A  6F7A               	movwf	(___flmul@a+2)& (0+255),b
  1305  002E7C  0E3A               	movlw	58
  1306  002E7E  6F7B               	movwf	(___flmul@a+3)& (0+255),b
  1307  002E80  ECD8  F011         	call	___flmul	;wreg free
  1308  002E84  C074  F035         	movff	?___flmul,_tensao
  1309  002E88  C075  F036         	movff	?___flmul+1,_tensao+1
  1310  002E8C  C076  F037         	movff	?___flmul+2,_tensao+2
  1311  002E90  C077  F038         	movff	?___flmul+3,_tensao+3
  1312  002E94                     
  1313                           ;ADC_LM35_lcd.c: 140: 
  1314  002E94  C035  F074         	movff	_tensao,___flmul@b
  1315  002E98  C036  F075         	movff	_tensao+1,___flmul@b+1
  1316  002E9C  C037  F076         	movff	_tensao+2,___flmul@b+2
  1317  002EA0  C038  F077         	movff	_tensao+3,___flmul@b+3
  1318  002EA4  0E00               	movlw	0
  1319  002EA6  0100               	movlb	0	; () banked
  1320  002EA8  6F78               	movwf	___flmul@a& (0+255),b
  1321  002EAA  0E00               	movlw	0
  1322  002EAC  6F79               	movwf	(___flmul@a+1)& (0+255),b
  1323  002EAE  0EC8               	movlw	200
  1324  002EB0  6F7A               	movwf	(___flmul@a+2)& (0+255),b
  1325  002EB2  0E42               	movlw	66
  1326  002EB4  6F7B               	movwf	(___flmul@a+3)& (0+255),b
  1327  002EB6  ECD8  F011         	call	___flmul	;wreg free
  1328  002EBA  C074  F039         	movff	?___flmul,_temperatura
  1329  002EBE  C075  F03A         	movff	?___flmul+1,_temperatura+1
  1330  002EC2  C076  F03B         	movff	?___flmul+2,_temperatura+2
  1331  002EC6  C077  F03C         	movff	?___flmul+3,_temperatura+3
  1332  002ECA                     
  1333                           ;ADC_LM35_lcd.c: 141:     return;
  1334  002ECA  C039  F060         	movff	_temperatura,___fltol@f1
  1335  002ECE  C03A  F061         	movff	_temperatura+1,___fltol@f1+1
  1336  002ED2  C03B  F062         	movff	_temperatura+2,___fltol@f1+2
  1337  002ED6  C03C  F063         	movff	_temperatura+3,___fltol@f1+3
  1338  002EDA  ECEB  F01A         	call	___fltol	;wreg free
  1339  002EDE  C060  F033         	movff	?___fltol,_tempdisp
  1340  002EE2  C061  F034         	movff	?___fltol+1,_tempdisp+1
  1341  002EE6  0E06               	movlw	6
  1342  002EE8  0101               	movlb	1	; () banked
  1343  002EEA  6F6F               	movwf	(??_main+1)& (0+255),b
  1344  002EEC  0E13               	movlw	19
  1345  002EEE  6F6E               	movwf	??_main& (0+255),b
  1346  002EF0  0EAD               	movlw	173
  1347  002EF2                     u8787:
  1348  002EF2  2EE8               	decfsz	wreg,f,c
  1349  002EF4  D7FE               	bra	u8787
  1350  002EF6  2F6E               	decfsz	??_main& (0+255),f,b
  1351  002EF8  D7FC               	bra	u8787
  1352  002EFA  2F6F               	decfsz	(??_main+1)& (0+255),f,b
  1353  002EFC  D7FA               	bra	u8787
  1354  002EFE  D000               	nop2	
  1355  002F00  0E00               	movlw	0
  1356  002F02  6E95               	movwf	149,c	;volatile
  1357  002F04  0E00               	movlw	0
  1358  002F06  0100               	movlb	0	; () banked
  1359  002F08  6F61               	movwf	(comando_lcd@comando+1)& (0+255),b
  1360  002F0A  0E80               	movlw	128
  1361  002F0C  6F60               	movwf	comando_lcd@comando& (0+255),b
  1362  002F0E  ECB7  F022         	call	_comando_lcd	;wreg free
  1363  002F12  0E35               	movlw	low STR_5
  1364  002F14  0100               	movlb	0	; () banked
  1365  002F16  6F64               	movwf	imprime_lcd@frase& (0+255),b
  1366  002F18  0E08               	movlw	high STR_5
  1367  002F1A  6F65               	movwf	(imprime_lcd@frase+1)& (0+255),b
  1368  002F1C  EC12  F020         	call	_imprime_lcd	;wreg free
  1369  002F20  0E00               	movlw	0
  1370  002F22  0100               	movlb	0	; () banked
  1371  002F24  6F61               	movwf	(comando_lcd@comando+1)& (0+255),b
  1372  002F26  0EC0               	movlw	192
  1373  002F28  6F60               	movwf	comando_lcd@comando& (0+255),b
  1374  002F2A  ECB7  F022         	call	_comando_lcd	;wreg free
  1375  002F2E  0E50               	movlw	low _temperature
  1376  002F30  0101               	movlb	1	; () banked
  1377  002F32  6F5E               	movwf	sprintf@s& (0+255),b
  1378  002F34  0E01               	movlw	high _temperature
  1379  002F36  6F5F               	movwf	(sprintf@s+1)& (0+255),b
  1380  002F38  0E41               	movlw	low STR_6
  1381  002F3A  6F60               	movwf	sprintf@fmt& (0+255),b
  1382  002F3C  0E08               	movlw	high STR_6
  1383  002F3E  6F61               	movwf	(sprintf@fmt+1)& (0+255),b
  1384  002F40  C039  F162         	movff	_temperatura,?_sprintf+4
  1385  002F44  C03A  F163         	movff	_temperatura+1,?_sprintf+5
  1386  002F48  C03B  F164         	movff	_temperatura+2,?_sprintf+6
  1387  002F4C  C03C  F165         	movff	_temperatura+3,?_sprintf+7
  1388  002F50  EC76  F021         	call	_sprintf	;wreg free
  1389  002F54  0E50               	movlw	low _temperature
  1390  002F56  0100               	movlb	0	; () banked
  1391  002F58  6F64               	movwf	imprime_lcd@frase& (0+255),b
  1392  002F5A  0E01               	movlw	high _temperature
  1393  002F5C  6F65               	movwf	(imprime_lcd@frase+1)& (0+255),b
  1394  002F5E  EC12  F020         	call	_imprime_lcd	;wreg free
  1395  002F62  0E01               	movlw	low STR_7
  1396  002F64  0100               	movlb	0	; () banked
  1397  002F66  6F64               	movwf	imprime_lcd@frase& (0+255),b
  1398  002F68  0E08               	movlw	high STR_7
  1399  002F6A  6F65               	movwf	(imprime_lcd@frase+1)& (0+255),b
  1400  002F6C  EC12  F020         	call	_imprime_lcd	;wreg free
  1401  002F70  EF01  F017         	goto	l6147
  1402  002F74  EF07  F000         	goto	start
  1403  002F78                     __end_of_main:
  1404                           	callstack 0
  1405                           
  1406 ;; *************** function _sprintf *****************
  1407 ;; Defined at:
  1408 ;;		line 9 in file "C:\Program Files\Microchip\xc8\v2.32\pic\sources\c99\common\nf_sprintf.c"
  1409 ;; Parameters:    Size  Location     Type
  1410 ;;  s               2    6[BANK1 ] PTR unsigned char 
  1411 ;;		 -> temperature(8), 
  1412 ;;  fmt             2    8[BANK1 ] PTR const unsigned char 
  1413 ;;		 -> STR_6(6), 
  1414 ;; Auto vars:     Size  Location     Type
  1415 ;;  f               6   16[BANK1 ] struct _IO_FILE
  1416 ;;  ap              2   14[BANK1 ] PTR void [1]
  1417 ;;		 -> ?_sprintf(2), 
  1418 ;;  ret             2    0        int 
  1419 ;; Return value:  Size  Location     Type
  1420 ;;                  2    6[BANK1 ] int 
  1421 ;; Registers used:
  1422 ;;		wreg, fsr1l, fsr1h, fsr2l, fsr2h, status,2, status,0, tblptrl, tblptrh, tblptru, prodl, prodh, cstack
  1423 ;; Tracked objects:
  1424 ;;		On entry : 0/0
  1425 ;;		On exit  : 0/0
  1426 ;;		Unchanged: 0/0
  1427 ;; Data sizes:     COMRAM   BANK0   BANK1   BANK2   BANK3   BANK4   BANK5   BANK6   BANK7
  1428 ;;      Params:         0       0       8       0       0       0       0       0       0
  1429 ;;      Locals:         0       0       8       0       0       0       0       0       0
  1430 ;;      Temps:          0       0       0       0       0       0       0       0       0
  1431 ;;      Totals:         0       0      16       0       0       0       0       0       0
  1432 ;;Total ram usage:       16 bytes
  1433 ;; Hardware stack levels used: 1
  1434 ;; Hardware stack levels required when called: 11
  1435 ;; This function calls:
  1436 ;;		_vfprintf
  1437 ;; This function is called by:
  1438 ;;		_main
  1439 ;; This function uses a non-reentrant model
  1440 ;;
  1441                           
  1442                           	psect	text1
  1443  0042EC                     __ptext1:
  1444                           	callstack 0
  1445  0042EC                     _sprintf:
  1446                           	callstack 19
  1447  0042EC  0E62               	movlw	low (?_sprintf+4)
  1448  0042EE  0101               	movlb	1	; () banked
  1449  0042F0  6F66               	movwf	sprintf@ap& (0+255),b
  1450  0042F2  0E01               	movlw	high (?_sprintf+4)
  1451  0042F4  6F67               	movwf	(sprintf@ap+1)& (0+255),b
  1452  0042F6  C15E  F168         	movff	sprintf@s,sprintf@f
  1453  0042FA  C15F  F169         	movff	sprintf@s+1,sprintf@f+1
  1454  0042FE                     
  1455                           ; BSR set to: 1
  1456  0042FE  0E00               	movlw	0
  1457  004300  6F6B               	movwf	(sprintf@f+3)& (0+255),b
  1458  004302  0E00               	movlw	0
  1459  004304  6F6A               	movwf	(sprintf@f+2)& (0+255),b
  1460  004306                     
  1461                           ; BSR set to: 1
  1462  004306  0E00               	movlw	0
  1463  004308  6F6D               	movwf	(sprintf@f+5)& (0+255),b
  1464  00430A  0E00               	movlw	0
  1465  00430C  6F6C               	movwf	(sprintf@f+4)& (0+255),b
  1466  00430E                     
  1467                           ; BSR set to: 1
  1468  00430E  0E68               	movlw	low sprintf@f
  1469  004310  6F58               	movwf	vfprintf@fp& (0+255),b
  1470  004312  0E01               	movlw	high sprintf@f
  1471  004314  6F59               	movwf	(vfprintf@fp+1)& (0+255),b
  1472  004316  C160  F15A         	movff	sprintf@fmt,vfprintf@fmt
  1473  00431A  C161  F15B         	movff	sprintf@fmt+1,vfprintf@fmt+1
  1474  00431E  0E66               	movlw	low sprintf@ap
  1475  004320  6F5C               	movwf	vfprintf@ap& (0+255),b
  1476  004322  0E01               	movlw	high sprintf@ap
  1477  004324  6F5D               	movwf	(vfprintf@ap+1)& (0+255),b
  1478  004326  EC92  F020         	call	_vfprintf	;wreg free
  1479  00432A  0101               	movlb	1	; () banked
  1480  00432C  516A               	movf	(sprintf@f+2)& (0+255),w,b
  1481  00432E  255E               	addwf	sprintf@s& (0+255),w,b
  1482  004330  6ED9               	movwf	fsr2l,c
  1483  004332  516B               	movf	(sprintf@f+3)& (0+255),w,b
  1484  004334  215F               	addwfc	(sprintf@s+1)& (0+255),w,b
  1485  004336  6EDA               	movwf	fsr2h,c
  1486  004338  0E00               	movlw	0
  1487  00433A  6EDF               	movwf	indf2,c
  1488  00433C                     
  1489                           ; BSR set to: 1
  1490  00433C  0012               	return		;funcret
  1491  00433E                     __end_of_sprintf:
  1492                           	callstack 0
  1493                           
  1494 ;; *************** function _vfprintf *****************
  1495 ;; Defined at:
  1496 ;;		line 1390 in file "C:\Program Files\Microchip\xc8\v2.32\pic\sources\c99\common\doprnt.c"
  1497 ;; Parameters:    Size  Location     Type
  1498 ;;  fp              2    0[BANK1 ] PTR struct _IO_FILE
  1499 ;;		 -> sprintf@f(6), 
  1500 ;;  fmt             2    2[BANK1 ] PTR const unsigned char 
  1501 ;;		 -> STR_6(6), 
  1502 ;;  ap              2    4[BANK1 ] PTR PTR void 
  1503 ;;		 -> sprintf@ap(2), 
  1504 ;; Auto vars:     Size  Location     Type
  1505 ;;  cfmt            2  149[BANK0 ] PTR unsigned char 
  1506 ;;		 -> STR_6(6), 
  1507 ;; Return value:  Size  Location     Type
  1508 ;;                  2    0[BANK1 ] int 
  1509 ;; Registers used:
  1510 ;;		wreg, fsr1l, fsr1h, fsr2l, fsr2h, status,2, status,0, tblptrl, tblptrh, tblptru, prodl, prodh, cstack
  1511 ;; Tracked objects:
  1512 ;;		On entry : 0/0
  1513 ;;		On exit  : 0/0
  1514 ;;		Unchanged: 0/0
  1515 ;; Data sizes:     COMRAM   BANK0   BANK1   BANK2   BANK3   BANK4   BANK5   BANK6   BANK7
  1516 ;;      Params:         0       0       6       0       0       0       0       0       0
  1517 ;;      Locals:         0       2       0       0       0       0       0       0       0
  1518 ;;      Temps:          0       0       0       0       0       0       0       0       0
  1519 ;;      Totals:         0       2       6       0       0       0       0       0       0
  1520 ;;Total ram usage:        8 bytes
  1521 ;; Hardware stack levels used: 1
  1522 ;; Hardware stack levels required when called: 10
  1523 ;; This function calls:
  1524 ;;		_vfpfcnvrt
  1525 ;; This function is called by:
  1526 ;;		_sprintf
  1527 ;; This function uses a non-reentrant model
  1528 ;;
  1529                           
  1530                           	psect	text2
  1531  004124                     __ptext2:
  1532                           	callstack 0
  1533  004124                     _vfprintf:
  1534                           	callstack 19
  1535  004124                     
  1536                           ;C:\Program Files\Microchip\xc8\v2.32\pic\sources\c99\common\doprnt.c: 1390: int vfprint
      +                          f(FILE *fp, const char *fmt, va_list ap);C:\Program Files\Microchip\xc8\v2.32\pic\source
      +                          s\c99\common\doprnt.c: 1391: {;C:\Program Files\Microchip\xc8\v2.32\pic\sources\c99\comm
      +                          on\doprnt.c: 1393:     char *cfmt;;C:\Program Files\Microchip\xc8\v2.32\pic\sources\c99\
      +                          common\doprnt.c: 1395:     cfmt = (char *)fmt;
  1537  004124  C15A  F0F5         	movff	vfprintf@fmt,vfprintf@cfmt
  1538  004128  C15B  F0F6         	movff	vfprintf@fmt+1,vfprintf@cfmt+1
  1539  00412C                     
  1540                           ;C:\Program Files\Microchip\xc8\v2.32\pic\sources\c99\common\doprnt.c: 1396:     nout = 
      +                          0;
  1541  00412C  0E00               	movlw	0
  1542  00412E  0100               	movlb	0	; () banked
  1543  004130  6FF8               	movwf	(_nout+1)& (0+255),b
  1544  004132  0E00               	movlw	0
  1545  004134  6FF7               	movwf	_nout& (0+255),b
  1546                           
  1547                           ;C:\Program Files\Microchip\xc8\v2.32\pic\sources\c99\common\doprnt.c: 1397:     while (
      +                          *cfmt) {
  1548  004136  EFB0  F020         	goto	l6039
  1549  00413A                     l6037:
  1550                           
  1551                           ; BSR set to: 0
  1552                           ;C:\Program Files\Microchip\xc8\v2.32\pic\sources\c99\common\doprnt.c: 1398:         nou
      +                          t += vfpfcnvrt(fp, &cfmt, ap);
  1553  00413A  C158  F0DD         	movff	vfprintf@fp,vfpfcnvrt@fp
  1554  00413E  C159  F0DE         	movff	vfprintf@fp+1,vfpfcnvrt@fp+1
  1555  004142  0EF5               	movlw	low vfprintf@cfmt
  1556  004144  6FDF               	movwf	vfpfcnvrt@fmt& (0+255),b
  1557  004146  0E00               	movlw	high vfprintf@cfmt
  1558  004148  6FE0               	movwf	(vfpfcnvrt@fmt+1)& (0+255),b
  1559  00414A  C15C  F0E1         	movff	vfprintf@ap,vfpfcnvrt@ap
  1560  00414E  C15D  F0E2         	movff	vfprintf@ap+1,vfpfcnvrt@ap+1
  1561  004152  EC61  F00A         	call	_vfpfcnvrt	;wreg free
  1562  004156  0100               	movlb	0	; () banked
  1563  004158  51DD               	movf	?_vfpfcnvrt& (0+255),w,b
  1564  00415A  27F7               	addwf	_nout& (0+255),f,b
  1565  00415C  51DE               	movf	(?_vfpfcnvrt+1)& (0+255),w,b
  1566  00415E  23F8               	addwfc	(_nout+1)& (0+255),f,b
  1567  004160                     l6039:
  1568                           
  1569                           ; BSR set to: 0
  1570                           ;C:\Program Files\Microchip\xc8\v2.32\pic\sources\c99\common\doprnt.c: 1397:     while (
      +                          *cfmt) {
  1571  004160  C0F5  FFF6         	movff	vfprintf@cfmt,tblptrl
  1572  004164  C0F6  FFF7         	movff	vfprintf@cfmt+1,tblptrh
  1573  004168                     	if	0	;tblptru may be non-zero
  1574  004168                     	endif
  1575  004168                     	if	0	;tblptru may be non-zero
  1576  004168                     	endif
  1577  004168  0008               	tblrd		*
  1578  00416A  50F5               	movf	tablat,w,c
  1579  00416C  0900               	iorlw	0
  1580  00416E  A4D8               	btfss	status,2,c
  1581  004170  EFBC  F020         	goto	u8641
  1582  004174  EFBE  F020         	goto	u8640
  1583  004178                     u8641:
  1584  004178  EF9D  F020         	goto	l6037
  1585  00417C                     u8640:
  1586  00417C                     
  1587                           ; BSR set to: 0
  1588                           ;C:\Program Files\Microchip\xc8\v2.32\pic\sources\c99\common\doprnt.c: 1400:     return 
      +                          nout;
  1589  00417C  C0F7  F158         	movff	_nout,?_vfprintf
  1590  004180  C0F8  F159         	movff	_nout+1,?_vfprintf+1
  1591  004184                     
  1592                           ; BSR set to: 0
  1593  004184  0012               	return		;funcret
  1594  004186                     __end_of_vfprintf:
  1595                           	callstack 0
  1596                           
  1597 ;; *************** function _vfpfcnvrt *****************
  1598 ;; Defined at:
  1599 ;;		line 692 in file "C:\Program Files\Microchip\xc8\v2.32\pic\sources\c99\common\doprnt.c"
  1600 ;; Parameters:    Size  Location     Type
  1601 ;;  fp              2  125[BANK0 ] PTR struct _IO_FILE
  1602 ;;		 -> sprintf@f(6), 
  1603 ;;  fmt             2  127[BANK0 ] PTR PTR unsigned char 
  1604 ;;		 -> vfprintf@cfmt(2), 
  1605 ;;  ap              2  129[BANK0 ] PTR PTR void 
  1606 ;;		 -> sprintf@ap(2), 
  1607 ;; Auto vars:     Size  Location     Type
  1608 ;;  llu             8    0        unsigned long long 
  1609 ;;  ll              8    0        long long 
  1610 ;;  f               4  141[BANK0 ] long long 
  1611 ;;  ct              3  145[BANK0 ] unsigned char [3]
  1612 ;;  vp              3    0        PTR void 
  1613 ;;  cp              3    0        PTR unsigned char 
  1614 ;;  i               2    0        int 
  1615 ;;  done            2    0        int 
  1616 ;;  c               1  148[BANK0 ] unsigned char 
  1617 ;; Return value:  Size  Location     Type
  1618 ;;                  2  125[BANK0 ] int 
  1619 ;; Registers used:
  1620 ;;		wreg, fsr1l, fsr1h, fsr2l, fsr2h, status,2, status,0, tblptrl, tblptrh, tblptru, prodl, prodh, cstack
  1621 ;; Tracked objects:
  1622 ;;		On entry : 0/0
  1623 ;;		On exit  : 0/0
  1624 ;;		Unchanged: 0/0
  1625 ;; Data sizes:     COMRAM   BANK0   BANK1   BANK2   BANK3   BANK4   BANK5   BANK6   BANK7
  1626 ;;      Params:         0       6       0       0       0       0       0       0       0
  1627 ;;      Locals:         0      14       0       0       0       0       0       0       0
  1628 ;;      Temps:          0       4       0       0       0       0       0       0       0
  1629 ;;      Totals:         0      24       0       0       0       0       0       0       0
  1630 ;;Total ram usage:       24 bytes
  1631 ;; Hardware stack levels used: 1
  1632 ;; Hardware stack levels required when called: 9
  1633 ;; This function calls:
  1634 ;;		_atoi
  1635 ;;		_efgtoa
  1636 ;;		_fputc
  1637 ;;		_isdigit
  1638 ;;		_isupper
  1639 ;;		_strncmp
  1640 ;;		_tolower
  1641 ;; This function is called by:
  1642 ;;		_vfprintf
  1643 ;; This function uses a non-reentrant model
  1644 ;;
  1645                           
  1646                           	psect	text3
  1647  0014C2                     __ptext3:
  1648                           	callstack 0
  1649  0014C2                     _vfpfcnvrt:
  1650                           	callstack 19
  1651  0014C2                     
  1652                           ;C:\Program Files\Microchip\xc8\v2.32\pic\sources\c99\common\doprnt.c: 692: static int v
      +                          fpfcnvrt(FILE *fp, char *fmt[], va_list ap);C:\Program Files\Microchip\xc8\v2.32\pic\sou
      +                          rces\c99\common\doprnt.c: 693: {;C:\Program Files\Microchip\xc8\v2.32\pic\sources\c99\co
      +                          mmon\doprnt.c: 694:     char c, *cp, ct[3];;C:\Program Files\Microchip\xc8\v2.32\pic\sou
      +                          rces\c99\common\doprnt.c: 695:     int done, i;;C:\Program Files\Microchip\xc8\v2.32\pic
      +                          \sources\c99\common\doprnt.c: 696:     long long ll;;C:\Program Files\Microchip\xc8\v2.3
      +                          2\pic\sources\c99\common\doprnt.c: 697:     unsigned long long llu;
  1653  0014C2  C0DF  FFD9         	movff	vfpfcnvrt@fmt,fsr2l
  1654  0014C6  C0E0  FFDA         	movff	vfpfcnvrt@fmt+1,fsr2h
  1655  0014CA  CFDE FFF6          	movff	postinc2,tblptrl
  1656  0014CE  CFDD FFF7          	movff	postdec2,tblptrh
  1657  0014D2                     	if	0	;tblptru may be non-zero
  1658  0014D2                     	endif
  1659  0014D2                     	if	0	;tblptru may be non-zero
  1660  0014D2                     	endif
  1661  0014D2  0008               	tblrd		*
  1662  0014D4  50F5               	movf	tablat,w,c
  1663  0014D6  0A25               	xorlw	37
  1664  0014D8  A4D8               	btfss	status,2,c
  1665  0014DA  EF71  F00A         	goto	u8451
  1666  0014DE  EF73  F00A         	goto	u8450
  1667  0014E2                     u8451:
  1668  0014E2  EFFA  F00C         	goto	l6013
  1669  0014E6                     u8450:
  1670  0014E6                     
  1671                           ;C:\Program Files\Microchip\xc8\v2.32\pic\sources\c99\common\doprnt.c: 703:         ++*f
      +                          mt;
  1672  0014E6  C0DF  FFD9         	movff	vfpfcnvrt@fmt,fsr2l
  1673  0014EA  C0E0  FFDA         	movff	vfpfcnvrt@fmt+1,fsr2h
  1674  0014EE  2ADE               	incf	postinc2,f,c
  1675  0014F0  0E00               	movlw	0
  1676  0014F2  22DD               	addwfc	postdec2,f,c
  1677  0014F4                     
  1678                           ;C:\Program Files\Microchip\xc8\v2.32\pic\sources\c99\common\doprnt.c: 705:         flag
      +                          s = width = 0;
  1679  0014F4  0E00               	movlw	0
  1680  0014F6  0100               	movlb	0	; () banked
  1681  0014F8  6FFA               	movwf	(_width+1)& (0+255),b
  1682  0014FA  0E00               	movlw	0
  1683  0014FC  6FF9               	movwf	_width& (0+255),b
  1684  0014FE  C0F9  F02F         	movff	_width,_flags
  1685  001502  C0FA  F030         	movff	_width+1,_flags+1
  1686  001506                     
  1687                           ; BSR set to: 0
  1688                           ;C:\Program Files\Microchip\xc8\v2.32\pic\sources\c99\common\doprnt.c: 706:         prec
      +                           = -1;
  1689  001506  69FB               	setf	_prec& (0+255),b
  1690  001508  69FC               	setf	(_prec+1)& (0+255),b
  1691  00150A                     
  1692                           ; BSR set to: 0
  1693                           ;C:\Program Files\Microchip\xc8\v2.32\pic\sources\c99\common\doprnt.c: 745:         if (
      +                          (*fmt)[0] == '*') {
  1694  00150A  C0DF  FFD9         	movff	vfpfcnvrt@fmt,fsr2l
  1695  00150E  C0E0  FFDA         	movff	vfpfcnvrt@fmt+1,fsr2h
  1696  001512  CFDE FFF6          	movff	postinc2,tblptrl
  1697  001516  CFDD FFF7          	movff	postdec2,tblptrh
  1698  00151A                     	if	0	;tblptru may be non-zero
  1699  00151A                     	endif
  1700  00151A                     	if	0	;tblptru may be non-zero
  1701  00151A                     	endif
  1702  00151A  0008               	tblrd		*
  1703  00151C  50F5               	movf	tablat,w,c
  1704  00151E  0A2A               	xorlw	42
  1705  001520  A4D8               	btfss	status,2,c
  1706  001522  EF95  F00A         	goto	u8461
  1707  001526  EF97  F00A         	goto	u8460
  1708  00152A                     u8461:
  1709  00152A  EFC0  F00A         	goto	l5929
  1710  00152E                     u8460:
  1711  00152E                     
  1712                           ; BSR set to: 0
  1713                           ;C:\Program Files\Microchip\xc8\v2.32\pic\sources\c99\common\doprnt.c: 746:             
      +                          ++*fmt;
  1714  00152E  C0DF  FFD9         	movff	vfpfcnvrt@fmt,fsr2l
  1715  001532  C0E0  FFDA         	movff	vfpfcnvrt@fmt+1,fsr2h
  1716  001536  2ADE               	incf	postinc2,f,c
  1717  001538  0E00               	movlw	0
  1718  00153A  22DD               	addwfc	postdec2,f,c
  1719                           
  1720                           ;C:\Program Files\Microchip\xc8\v2.32\pic\sources\c99\common\doprnt.c: 747:             
      +                          width = (*(int *)__va_arg(*(int **)ap, (int)0));
  1721  00153C  C0E1  FFD9         	movff	vfpfcnvrt@ap,fsr2l
  1722  001540  C0E2  FFDA         	movff	vfpfcnvrt@ap+1,fsr2h
  1723  001544  CFDF F0E3          	movff	indf2,??_vfpfcnvrt
  1724  001548  0E02               	movlw	2
  1725  00154A  26DE               	addwf	postinc2,f,c
  1726  00154C  CFDF F0E4          	movff	indf2,??_vfpfcnvrt+1
  1727  001550  0E00               	movlw	0
  1728  001552  22DD               	addwfc	postdec2,f,c
  1729  001554  C0E3  FFD9         	movff	??_vfpfcnvrt,fsr2l
  1730  001558  C0E4  FFDA         	movff	??_vfpfcnvrt+1,fsr2h
  1731  00155C  CFDE F0F9          	movff	postinc2,_width
  1732  001560  CFDD F0FA          	movff	postdec2,_width+1
  1733  001564                     
  1734                           ; BSR set to: 0
  1735                           ;C:\Program Files\Microchip\xc8\v2.32\pic\sources\c99\common\doprnt.c: 748:             
      +                          if (width < 0) {
  1736  001564  BFFA               	btfsc	(_width+1)& (0+255),7,b
  1737  001566  EFB9  F00A         	goto	u8470
  1738  00156A  EFB7  F00A         	goto	u8471
  1739  00156E                     u8471:
  1740  00156E  EF04  F00B         	goto	l5939
  1741  001572                     u8470:
  1742  001572                     
  1743                           ; BSR set to: 0
  1744                           ;C:\Program Files\Microchip\xc8\v2.32\pic\sources\c99\common\doprnt.c: 749:             
      +                              flags |= (1 << 0);
  1745  001572  802F               	bsf	_flags^0,0,c
  1746                           
  1747                           ;C:\Program Files\Microchip\xc8\v2.32\pic\sources\c99\common\doprnt.c: 750:             
      +                              width = -width;
  1748  001574  6DF9               	negf	_width& (0+255),b
  1749  001576  1FFA               	comf	(_width+1)& (0+255),f,b
  1750  001578  B0D8               	btfsc	status,0,c
  1751  00157A  2BFA               	incf	(_width+1)& (0+255),f,b
  1752  00157C  EF04  F00B         	goto	l5939
  1753  001580                     l5929:
  1754                           
  1755                           ; BSR set to: 0
  1756                           ;C:\Program Files\Microchip\xc8\v2.32\pic\sources\c99\common\doprnt.c: 753:             
      +                          width = atoi(*fmt);
  1757  001580  C0DF  FFD9         	movff	vfpfcnvrt@fmt,fsr2l
  1758  001584  C0E0  FFDA         	movff	vfpfcnvrt@fmt+1,fsr2h
  1759  001588  CFDE F067          	movff	postinc2,atoi@s
  1760  00158C  CFDD F068          	movff	postdec2,atoi@s+1
  1761  001590  EC72  F019         	call	_atoi	;wreg free
  1762  001594  C067  F0F9         	movff	?_atoi,_width
  1763  001598  C068  F0FA         	movff	?_atoi+1,_width+1
  1764                           
  1765                           ;C:\Program Files\Microchip\xc8\v2.32\pic\sources\c99\common\doprnt.c: 754:             
      +                          while ((0 ? isdigit((*fmt)[0]) : ((unsigned)((*fmt)[0])-'0') < 10)) {
  1766  00159C  EFD7  F00A         	goto	l5933
  1767  0015A0                     l5931:
  1768                           
  1769                           ; BSR set to: 0
  1770                           ;C:\Program Files\Microchip\xc8\v2.32\pic\sources\c99\common\doprnt.c: 755:             
      +                              ++*fmt;
  1771  0015A0  C0DF  FFD9         	movff	vfpfcnvrt@fmt,fsr2l
  1772  0015A4  C0E0  FFDA         	movff	vfpfcnvrt@fmt+1,fsr2h
  1773  0015A8  2ADE               	incf	postinc2,f,c
  1774  0015AA  0E00               	movlw	0
  1775  0015AC  22DD               	addwfc	postdec2,f,c
  1776  0015AE                     l5933:
  1777  0015AE  0ED0               	movlw	208
  1778  0015B0  0100               	movlb	0	; () banked
  1779  0015B2  6FE3               	movwf	??_vfpfcnvrt& (0+255),b
  1780  0015B4  0EFF               	movlw	255
  1781  0015B6  6FE4               	movwf	(??_vfpfcnvrt+1)& (0+255),b
  1782  0015B8  C0DF  FFD9         	movff	vfpfcnvrt@fmt,fsr2l
  1783  0015BC  C0E0  FFDA         	movff	vfpfcnvrt@fmt+1,fsr2h
  1784  0015C0  CFDE FFF6          	movff	postinc2,tblptrl
  1785  0015C4  CFDD FFF7          	movff	postdec2,tblptrh
  1786  0015C8                     	if	0	;tblptru may be non-zero
  1787  0015C8                     	endif
  1788  0015C8                     	if	0	;tblptru may be non-zero
  1789  0015C8                     	endif
  1790  0015C8  0008               	tblrd		*
  1791  0015CA  50F5               	movf	tablat,w,c
  1792  0015CC  6FE5               	movwf	(??_vfpfcnvrt+2)& (0+255),b
  1793  0015CE  6BE6               	clrf	(??_vfpfcnvrt+3)& (0+255),b
  1794  0015D0  51E3               	movf	??_vfpfcnvrt& (0+255),w,b
  1795  0015D2  27E5               	addwf	(??_vfpfcnvrt+2)& (0+255),f,b
  1796  0015D4  51E4               	movf	(??_vfpfcnvrt+1)& (0+255),w,b
  1797  0015D6  23E6               	addwfc	(??_vfpfcnvrt+3)& (0+255),f,b
  1798  0015D8  51E6               	movf	(??_vfpfcnvrt+3)& (0+255),w,b
  1799  0015DA  E10A               	bnz	u8480
  1800  0015DC  0E0A               	movlw	10
  1801  0015DE  5DE5               	subwf	(??_vfpfcnvrt+2)& (0+255),w,b
  1802  0015E0  A0D8               	btfss	status,0,c
  1803  0015E2  EFF5  F00A         	goto	u8481
  1804  0015E6  EFF8  F00A         	goto	u8480
  1805  0015EA                     u8481:
  1806  0015EA  0E01               	movlw	1
  1807  0015EC  EFF9  F00A         	goto	u8490
  1808  0015F0                     u8480:
  1809  0015F0  0E00               	movlw	0
  1810  0015F2                     u8490:
  1811  0015F2  6FE7               	movwf	_vfpfcnvrt$1132& (0+255),b
  1812  0015F4  6BE8               	clrf	(_vfpfcnvrt$1132+1)& (0+255),b
  1813  0015F6                     
  1814                           ; BSR set to: 0
  1815  0015F6  51E7               	movf	_vfpfcnvrt$1132& (0+255),w,b
  1816  0015F8  11E8               	iorwf	(_vfpfcnvrt$1132+1)& (0+255),w,b
  1817  0015FA  A4D8               	btfss	status,2,c
  1818  0015FC  EF02  F00B         	goto	u8501
  1819  001600  EF04  F00B         	goto	u8500
  1820  001604                     u8501:
  1821  001604  EFD0  F00A         	goto	l5931
  1822  001608                     u8500:
  1823  001608                     l5939:
  1824                           
  1825                           ; BSR set to: 0
  1826                           ;C:\Program Files\Microchip\xc8\v2.32\pic\sources\c99\common\doprnt.c: 762:         if (
      +                          (*fmt)[0] == '.') {
  1827  001608  C0DF  FFD9         	movff	vfpfcnvrt@fmt,fsr2l
  1828  00160C  C0E0  FFDA         	movff	vfpfcnvrt@fmt+1,fsr2h
  1829  001610  CFDE FFF6          	movff	postinc2,tblptrl
  1830  001614  CFDD FFF7          	movff	postdec2,tblptrh
  1831  001618                     	if	0	;tblptru may be non-zero
  1832  001618                     	endif
  1833  001618                     	if	0	;tblptru may be non-zero
  1834  001618                     	endif
  1835  001618  0008               	tblrd		*
  1836  00161A  50F5               	movf	tablat,w,c
  1837  00161C  0A2E               	xorlw	46
  1838  00161E  A4D8               	btfss	status,2,c
  1839  001620  EF14  F00B         	goto	u8511
  1840  001624  EF16  F00B         	goto	u8510
  1841  001628                     u8511:
  1842  001628  EF94  F00B         	goto	l5959
  1843  00162C                     u8510:
  1844  00162C                     
  1845                           ; BSR set to: 0
  1846                           ;C:\Program Files\Microchip\xc8\v2.32\pic\sources\c99\common\doprnt.c: 763:             
      +                          prec = 0;
  1847  00162C  0E00               	movlw	0
  1848  00162E  6FFC               	movwf	(_prec+1)& (0+255),b
  1849  001630  0E00               	movlw	0
  1850  001632  6FFB               	movwf	_prec& (0+255),b
  1851  001634                     
  1852                           ; BSR set to: 0
  1853                           ;C:\Program Files\Microchip\xc8\v2.32\pic\sources\c99\common\doprnt.c: 764:             
      +                          ++*fmt;
  1854  001634  C0DF  FFD9         	movff	vfpfcnvrt@fmt,fsr2l
  1855  001638  C0E0  FFDA         	movff	vfpfcnvrt@fmt+1,fsr2h
  1856  00163C  2ADE               	incf	postinc2,f,c
  1857  00163E  0E00               	movlw	0
  1858  001640  22DD               	addwfc	postdec2,f,c
  1859  001642                     
  1860                           ; BSR set to: 0
  1861                           ;C:\Program Files\Microchip\xc8\v2.32\pic\sources\c99\common\doprnt.c: 765:             
      +                          if ((*fmt)[0] == '*') {
  1862  001642  C0DF  FFD9         	movff	vfpfcnvrt@fmt,fsr2l
  1863  001646  C0E0  FFDA         	movff	vfpfcnvrt@fmt+1,fsr2h
  1864  00164A  CFDE FFF6          	movff	postinc2,tblptrl
  1865  00164E  CFDD FFF7          	movff	postdec2,tblptrh
  1866  001652                     	if	0	;tblptru may be non-zero
  1867  001652                     	endif
  1868  001652                     	if	0	;tblptru may be non-zero
  1869  001652                     	endif
  1870  001652  0008               	tblrd		*
  1871  001654  50F5               	movf	tablat,w,c
  1872  001656  0A2A               	xorlw	42
  1873  001658  A4D8               	btfss	status,2,c
  1874  00165A  EF31  F00B         	goto	u8521
  1875  00165E  EF33  F00B         	goto	u8520
  1876  001662                     u8521:
  1877  001662  EF50  F00B         	goto	l5949
  1878  001666                     u8520:
  1879  001666                     
  1880                           ; BSR set to: 0
  1881                           ;C:\Program Files\Microchip\xc8\v2.32\pic\sources\c99\common\doprnt.c: 766:             
      +                              ++*fmt;
  1882  001666  C0DF  FFD9         	movff	vfpfcnvrt@fmt,fsr2l
  1883  00166A  C0E0  FFDA         	movff	vfpfcnvrt@fmt+1,fsr2h
  1884  00166E  2ADE               	incf	postinc2,f,c
  1885  001670  0E00               	movlw	0
  1886  001672  22DD               	addwfc	postdec2,f,c
  1887                           
  1888                           ;C:\Program Files\Microchip\xc8\v2.32\pic\sources\c99\common\doprnt.c: 767:             
      +                              prec = (*(int *)__va_arg(*(int **)ap, (int)0));
  1889  001674  C0E1  FFD9         	movff	vfpfcnvrt@ap,fsr2l
  1890  001678  C0E2  FFDA         	movff	vfpfcnvrt@ap+1,fsr2h
  1891  00167C  CFDF F0E3          	movff	indf2,??_vfpfcnvrt
  1892  001680  0E02               	movlw	2
  1893  001682  26DE               	addwf	postinc2,f,c
  1894  001684  CFDF F0E4          	movff	indf2,??_vfpfcnvrt+1
  1895  001688  0E00               	movlw	0
  1896  00168A  22DD               	addwfc	postdec2,f,c
  1897  00168C  C0E3  FFD9         	movff	??_vfpfcnvrt,fsr2l
  1898  001690  C0E4  FFDA         	movff	??_vfpfcnvrt+1,fsr2h
  1899  001694  CFDE F0FB          	movff	postinc2,_prec
  1900  001698  CFDD F0FC          	movff	postdec2,_prec+1
  1901                           
  1902                           ;C:\Program Files\Microchip\xc8\v2.32\pic\sources\c99\common\doprnt.c: 768:             
      +                          } else {
  1903  00169C  EF94  F00B         	goto	l5959
  1904  0016A0                     l5949:
  1905                           
  1906                           ; BSR set to: 0
  1907                           ;C:\Program Files\Microchip\xc8\v2.32\pic\sources\c99\common\doprnt.c: 769:             
      +                              prec = atoi(*fmt);
  1908  0016A0  C0DF  FFD9         	movff	vfpfcnvrt@fmt,fsr2l
  1909  0016A4  C0E0  FFDA         	movff	vfpfcnvrt@fmt+1,fsr2h
  1910  0016A8  CFDE F067          	movff	postinc2,atoi@s
  1911  0016AC  CFDD F068          	movff	postdec2,atoi@s+1
  1912  0016B0  EC72  F019         	call	_atoi	;wreg free
  1913  0016B4  C067  F0FB         	movff	?_atoi,_prec
  1914  0016B8  C068  F0FC         	movff	?_atoi+1,_prec+1
  1915                           
  1916                           ;C:\Program Files\Microchip\xc8\v2.32\pic\sources\c99\common\doprnt.c: 770:             
      +                              while ((0 ? isdigit((*fmt)[0]) : ((unsigned)((*fmt)[0])-'0') < 10)) {
  1917  0016BC  EF67  F00B         	goto	l5953
  1918  0016C0                     l5951:
  1919                           
  1920                           ; BSR set to: 0
  1921                           ;C:\Program Files\Microchip\xc8\v2.32\pic\sources\c99\common\doprnt.c: 771:             
      +                                  ++*fmt;
  1922  0016C0  C0DF  FFD9         	movff	vfpfcnvrt@fmt,fsr2l
  1923  0016C4  C0E0  FFDA         	movff	vfpfcnvrt@fmt+1,fsr2h
  1924  0016C8  2ADE               	incf	postinc2,f,c
  1925  0016CA  0E00               	movlw	0
  1926  0016CC  22DD               	addwfc	postdec2,f,c
  1927  0016CE                     l5953:
  1928  0016CE  0ED0               	movlw	208
  1929  0016D0  0100               	movlb	0	; () banked
  1930  0016D2  6FE3               	movwf	??_vfpfcnvrt& (0+255),b
  1931  0016D4  0EFF               	movlw	255
  1932  0016D6  6FE4               	movwf	(??_vfpfcnvrt+1)& (0+255),b
  1933  0016D8  C0DF  FFD9         	movff	vfpfcnvrt@fmt,fsr2l
  1934  0016DC  C0E0  FFDA         	movff	vfpfcnvrt@fmt+1,fsr2h
  1935  0016E0  CFDE FFF6          	movff	postinc2,tblptrl
  1936  0016E4  CFDD FFF7          	movff	postdec2,tblptrh
  1937  0016E8                     	if	0	;tblptru may be non-zero
  1938  0016E8                     	endif
  1939  0016E8                     	if	0	;tblptru may be non-zero
  1940  0016E8                     	endif
  1941  0016E8  0008               	tblrd		*
  1942  0016EA  50F5               	movf	tablat,w,c
  1943  0016EC  6FE5               	movwf	(??_vfpfcnvrt+2)& (0+255),b
  1944  0016EE  6BE6               	clrf	(??_vfpfcnvrt+3)& (0+255),b
  1945  0016F0  51E3               	movf	??_vfpfcnvrt& (0+255),w,b
  1946  0016F2  27E5               	addwf	(??_vfpfcnvrt+2)& (0+255),f,b
  1947  0016F4  51E4               	movf	(??_vfpfcnvrt+1)& (0+255),w,b
  1948  0016F6  23E6               	addwfc	(??_vfpfcnvrt+3)& (0+255),f,b
  1949  0016F8  51E6               	movf	(??_vfpfcnvrt+3)& (0+255),w,b
  1950  0016FA  E10A               	bnz	u8530
  1951  0016FC  0E0A               	movlw	10
  1952  0016FE  5DE5               	subwf	(??_vfpfcnvrt+2)& (0+255),w,b
  1953  001700  A0D8               	btfss	status,0,c
  1954  001702  EF85  F00B         	goto	u8531
  1955  001706  EF88  F00B         	goto	u8530
  1956  00170A                     u8531:
  1957  00170A  0E01               	movlw	1
  1958  00170C  EF89  F00B         	goto	u8540
  1959  001710                     u8530:
  1960  001710  0E00               	movlw	0
  1961  001712                     u8540:
  1962  001712  6FE9               	movwf	_vfpfcnvrt$1133& (0+255),b
  1963  001714  6BEA               	clrf	(_vfpfcnvrt$1133+1)& (0+255),b
  1964  001716                     
  1965                           ; BSR set to: 0
  1966  001716  51E9               	movf	_vfpfcnvrt$1133& (0+255),w,b
  1967  001718  11EA               	iorwf	(_vfpfcnvrt$1133+1)& (0+255),w,b
  1968  00171A  A4D8               	btfss	status,2,c
  1969  00171C  EF92  F00B         	goto	u8551
  1970  001720  EF94  F00B         	goto	u8550
  1971  001724                     u8551:
  1972  001724  EF60  F00B         	goto	l5951
  1973  001728                     u8550:
  1974  001728                     l5959:
  1975                           
  1976                           ; BSR set to: 0
  1977                           ;C:\Program Files\Microchip\xc8\v2.32\pic\sources\c99\common\doprnt.c: 779:         ct[0
      +                          ] = (char)tolower((int)(*fmt)[0]);
  1978  001728  C0DF  FFD9         	movff	vfpfcnvrt@fmt,fsr2l
  1979  00172C  C0E0  FFDA         	movff	vfpfcnvrt@fmt+1,fsr2h
  1980  001730  CFDE FFF6          	movff	postinc2,tblptrl
  1981  001734  CFDD FFF7          	movff	postdec2,tblptrh
  1982  001738                     	if	0	;tblptru may be non-zero
  1983  001738                     	endif
  1984  001738                     	if	0	;tblptru may be non-zero
  1985  001738                     	endif
  1986  001738  0008               	tblrd		*
  1987  00173A  50F5               	movf	tablat,w,c
  1988  00173C  6F66               	movwf	tolower@c& (0+255),b
  1989  00173E  6B67               	clrf	(tolower@c+1)& (0+255),b
  1990  001740  ECC3  F020         	call	_tolower	;wreg free
  1991  001744  0100               	movlb	0	; () banked
  1992  001746  5166               	movf	?_tolower& (0+255),w,b
  1993  001748  6FF1               	movwf	vfpfcnvrt@ct& (0+255),b
  1994  00174A                     
  1995                           ; BSR set to: 0
  1996                           ;C:\Program Files\Microchip\xc8\v2.32\pic\sources\c99\common\doprnt.c: 780:         if (
      +                          ct[0]) {
  1997  00174A  51F1               	movf	vfpfcnvrt@ct& (0+255),w,b
  1998  00174C  B4D8               	btfsc	status,2,c
  1999  00174E  EFAB  F00B         	goto	u8561
  2000  001752  EFAD  F00B         	goto	u8560
  2001  001756                     u8561:
  2002  001756  EFE7  F00B         	goto	l5969
  2003  00175A                     u8560:
  2004  00175A                     
  2005                           ; BSR set to: 0
  2006                           ;C:\Program Files\Microchip\xc8\v2.32\pic\sources\c99\common\doprnt.c: 781:             
      +                          ct[1] = (char)tolower((int)(*fmt)[1]);
  2007  00175A  C0DF  FFD9         	movff	vfpfcnvrt@fmt,fsr2l
  2008  00175E  C0E0  FFDA         	movff	vfpfcnvrt@fmt+1,fsr2h
  2009  001762  CFDE F0E3          	movff	postinc2,??_vfpfcnvrt
  2010  001766  CFDD F0E4          	movff	postdec2,??_vfpfcnvrt+1
  2011  00176A  0E01               	movlw	1
  2012  00176C  27E3               	addwf	??_vfpfcnvrt& (0+255),f,b
  2013  00176E  0E00               	movlw	0
  2014  001770  23E4               	addwfc	(??_vfpfcnvrt+1)& (0+255),f,b
  2015  001772  C0E3  FFF6         	movff	??_vfpfcnvrt,tblptrl
  2016  001776  C0E4  FFF7         	movff	??_vfpfcnvrt+1,tblptrh
  2017  00177A                     	if	0	;tblptru may be non-zero
  2018  00177A                     	endif
  2019  00177A                     	if	0	;tblptru may be non-zero
  2020  00177A                     	endif
  2021  00177A  0008               	tblrd		*
  2022  00177C  50F5               	movf	tablat,w,c
  2023  00177E  6F66               	movwf	tolower@c& (0+255),b
  2024  001780  6B67               	clrf	(tolower@c+1)& (0+255),b
  2025  001782  ECC3  F020         	call	_tolower	;wreg free
  2026  001786  0100               	movlb	0	; () banked
  2027  001788  5166               	movf	?_tolower& (0+255),w,b
  2028  00178A  6FF2               	movwf	(vfpfcnvrt@ct+1)& (0+255),b
  2029  00178C                     
  2030                           ; BSR set to: 0
  2031                           ;C:\Program Files\Microchip\xc8\v2.32\pic\sources\c99\common\doprnt.c: 782:             
      +                          if (ct[1]) {
  2032  00178C  51F2               	movf	(vfpfcnvrt@ct+1)& (0+255),w,b
  2033  00178E  B4D8               	btfsc	status,2,c
  2034  001790  EFCC  F00B         	goto	u8571
  2035  001794  EFCE  F00B         	goto	u8570
  2036  001798                     u8571:
  2037  001798  EFE7  F00B         	goto	l5969
  2038  00179C                     u8570:
  2039  00179C                     
  2040                           ; BSR set to: 0
  2041                           ;C:\Program Files\Microchip\xc8\v2.32\pic\sources\c99\common\doprnt.c: 783:             
      +                              ct[2] = (char)tolower((int)(*fmt)[2]);
  2042  00179C  C0DF  FFD9         	movff	vfpfcnvrt@fmt,fsr2l
  2043  0017A0  C0E0  FFDA         	movff	vfpfcnvrt@fmt+1,fsr2h
  2044  0017A4  CFDE F0E3          	movff	postinc2,??_vfpfcnvrt
  2045  0017A8  CFDD F0E4          	movff	postdec2,??_vfpfcnvrt+1
  2046  0017AC  0E02               	movlw	2
  2047  0017AE  27E3               	addwf	??_vfpfcnvrt& (0+255),f,b
  2048  0017B0  0E00               	movlw	0
  2049  0017B2  23E4               	addwfc	(??_vfpfcnvrt+1)& (0+255),f,b
  2050  0017B4  C0E3  FFF6         	movff	??_vfpfcnvrt,tblptrl
  2051  0017B8  C0E4  FFF7         	movff	??_vfpfcnvrt+1,tblptrh
  2052  0017BC                     	if	0	;tblptru may be non-zero
  2053  0017BC                     	endif
  2054  0017BC                     	if	0	;tblptru may be non-zero
  2055  0017BC                     	endif
  2056  0017BC  0008               	tblrd		*
  2057  0017BE  50F5               	movf	tablat,w,c
  2058  0017C0  6F66               	movwf	tolower@c& (0+255),b
  2059  0017C2  6B67               	clrf	(tolower@c+1)& (0+255),b
  2060  0017C4  ECC3  F020         	call	_tolower	;wreg free
  2061  0017C8  0100               	movlb	0	; () banked
  2062  0017CA  5166               	movf	?_tolower& (0+255),w,b
  2063  0017CC  6FF3               	movwf	(vfpfcnvrt@ct+2)& (0+255),b
  2064  0017CE                     l5969:
  2065                           
  2066                           ; BSR set to: 0
  2067                           ;C:\Program Files\Microchip\xc8\v2.32\pic\sources\c99\common\doprnt.c: 942:         if (
      +                          ct[0] == 'f') {
  2068  0017CE  0E66               	movlw	102
  2069  0017D0  19F1               	xorwf	vfpfcnvrt@ct& (0+255),w,b
  2070  0017D2  A4D8               	btfss	status,2,c
  2071  0017D4  EFEE  F00B         	goto	u8581
  2072  0017D8  EFF0  F00B         	goto	u8580
  2073  0017DC                     u8581:
  2074  0017DC  EF30  F00C         	goto	l5981
  2075  0017E0                     u8580:
  2076  0017E0                     
  2077                           ; BSR set to: 0
  2078                           ;C:\Program Files\Microchip\xc8\v2.32\pic\sources\c99\common\doprnt.c: 944:             
      +                          c = (*fmt)[0];
  2079  0017E0  C0DF  FFD9         	movff	vfpfcnvrt@fmt,fsr2l
  2080  0017E4  C0E0  FFDA         	movff	vfpfcnvrt@fmt+1,fsr2h
  2081  0017E8  CFDE FFF6          	movff	postinc2,tblptrl
  2082  0017EC  CFDD FFF7          	movff	postdec2,tblptrh
  2083  0017F0                     	if	0	;tblptru may be non-zero
  2084  0017F0                     	endif
  2085  0017F0                     	if	0	;tblptru may be non-zero
  2086  0017F0                     	endif
  2087  0017F0  0008               	tblrd		*
  2088  0017F2  CFF5 F0F4          	movff	tablat,vfpfcnvrt@c
  2089  0017F6                     
  2090                           ; BSR set to: 0
  2091                           ;C:\Program Files\Microchip\xc8\v2.32\pic\sources\c99\common\doprnt.c: 945:             
      +                          ++*fmt;
  2092  0017F6  C0DF  FFD9         	movff	vfpfcnvrt@fmt,fsr2l
  2093  0017FA  C0E0  FFDA         	movff	vfpfcnvrt@fmt+1,fsr2h
  2094  0017FE  2ADE               	incf	postinc2,f,c
  2095  001800  0E00               	movlw	0
  2096  001802  22DD               	addwfc	postdec2,f,c
  2097  001804                     
  2098                           ; BSR set to: 0
  2099                           ;C:\Program Files\Microchip\xc8\v2.32\pic\sources\c99\common\doprnt.c: 946:             
      +                          f = (long double)(*(double *)__va_arg(*(double **)ap, (double)0));
  2100  001804  C0E1  FFD9         	movff	vfpfcnvrt@ap,fsr2l
  2101  001808  C0E2  FFDA         	movff	vfpfcnvrt@ap+1,fsr2h
  2102  00180C  CFDF F0E3          	movff	indf2,??_vfpfcnvrt
  2103  001810  0E04               	movlw	4
  2104  001812  26DE               	addwf	postinc2,f,c
  2105  001814  CFDF F0E4          	movff	indf2,??_vfpfcnvrt+1
  2106  001818  0E00               	movlw	0
  2107  00181A  22DD               	addwfc	postdec2,f,c
  2108  00181C  C0E3  FFD9         	movff	??_vfpfcnvrt,fsr2l
  2109  001820  C0E4  FFDA         	movff	??_vfpfcnvrt+1,fsr2h
  2110  001824  CFDE F0ED          	movff	postinc2,vfpfcnvrt@f
  2111  001828  CFDE F0EE          	movff	postinc2,vfpfcnvrt@f+1
  2112  00182C  CFDE F0EF          	movff	postinc2,vfpfcnvrt@f+2
  2113  001830  CFDE F0F0          	movff	postinc2,vfpfcnvrt@f+3
  2114  001834                     l5977:
  2115                           
  2116                           ; BSR set to: 0
  2117                           ;C:\Program Files\Microchip\xc8\v2.32\pic\sources\c99\common\doprnt.c: 948:             
      +                          return efgtoa(fp, f, c);
  2118  001834  C0DD  F099         	movff	vfpfcnvrt@fp,efgtoa@fp
  2119  001838  C0DE  F09A         	movff	vfpfcnvrt@fp+1,efgtoa@fp+1
  2120  00183C  C0ED  F09B         	movff	vfpfcnvrt@f,efgtoa@f
  2121  001840  C0EE  F09C         	movff	vfpfcnvrt@f+1,efgtoa@f+1
  2122  001844  C0EF  F09D         	movff	vfpfcnvrt@f+2,efgtoa@f+2
  2123  001848  C0F0  F09E         	movff	vfpfcnvrt@f+3,efgtoa@f+3
  2124  00184C  C0F4  F09F         	movff	vfpfcnvrt@c,efgtoa@c
  2125  001850  EC2E  F004         	call	_efgtoa	;wreg free
  2126  001854  C099  F0DD         	movff	?_efgtoa,?_vfpfcnvrt
  2127  001858  C09A  F0DE         	movff	?_efgtoa+1,?_vfpfcnvrt+1
  2128  00185C  EF16  F00D         	goto	l973
  2129  001860                     l5981:
  2130                           
  2131                           ; BSR set to: 0
  2132                           ;C:\Program Files\Microchip\xc8\v2.32\pic\sources\c99\common\doprnt.c: 950:         if (
      +                          !strncmp(ct, "lf", ((sizeof("lf")/sizeof("lf"[0]))-1))) {
  2133  001860  0EF1               	movlw	low vfpfcnvrt@ct
  2134  001862  6F60               	movwf	strncmp@_l& (0+255),b
  2135  001864  0E00               	movlw	high vfpfcnvrt@ct
  2136  001866  6F61               	movwf	(strncmp@_l+1)& (0+255),b
  2137  001868  0E57               	movlw	low STR_16
  2138  00186A  6F62               	movwf	strncmp@_r& (0+255),b
  2139  00186C  0E08               	movlw	high STR_16
  2140  00186E  6F63               	movwf	(strncmp@_r+1)& (0+255),b
  2141  001870  0E00               	movlw	0
  2142  001872  6F65               	movwf	(strncmp@n+1)& (0+255),b
  2143  001874  0E02               	movlw	2
  2144  001876  6F64               	movwf	strncmp@n& (0+255),b
  2145  001878  EC73  F01D         	call	_strncmp	;wreg free
  2146  00187C  0100               	movlb	0	; () banked
  2147  00187E  5160               	movf	?_strncmp& (0+255),w,b
  2148  001880  1161               	iorwf	(?_strncmp+1)& (0+255),w,b
  2149  001882  A4D8               	btfss	status,2,c
  2150  001884  EF46  F00C         	goto	u8591
  2151  001888  EF48  F00C         	goto	u8590
  2152  00188C                     u8591:
  2153  00188C  EFC3  F00C         	goto	l5997
  2154  001890                     u8590:
  2155  001890                     
  2156                           ; BSR set to: 0
  2157                           ;C:\Program Files\Microchip\xc8\v2.32\pic\sources\c99\common\doprnt.c: 953:             
      +                          if ((0 ? isupper((int)(*fmt)[0]) : ((unsigned)((int)(*fmt)[0])-'A') < 26)) {
  2158  001890  C0DF  FFD9         	movff	vfpfcnvrt@fmt,fsr2l
  2159  001894  C0E0  FFDA         	movff	vfpfcnvrt@fmt+1,fsr2h
  2160  001898  CFDE F0E3          	movff	postinc2,??_vfpfcnvrt
  2161  00189C  CFDD F0E4          	movff	postdec2,??_vfpfcnvrt+1
  2162  0018A0  0E01               	movlw	1
  2163  0018A2  27E3               	addwf	??_vfpfcnvrt& (0+255),f,b
  2164  0018A4  0E00               	movlw	0
  2165  0018A6  23E4               	addwfc	(??_vfpfcnvrt+1)& (0+255),f,b
  2166  0018A8  C0E3  FFF6         	movff	??_vfpfcnvrt,tblptrl
  2167  0018AC  C0E4  FFF7         	movff	??_vfpfcnvrt+1,tblptrh
  2168  0018B0                     	if	0	;tblptru may be non-zero
  2169  0018B0                     	endif
  2170  0018B0                     	if	0	;tblptru may be non-zero
  2171  0018B0                     	endif
  2172  0018B0  0008               	tblrd		*
  2173  0018B2  CFF5 F0F4          	movff	tablat,vfpfcnvrt@c
  2174  0018B6  0EBF               	movlw	191
  2175  0018B8  6FE3               	movwf	??_vfpfcnvrt& (0+255),b
  2176  0018BA  0EFF               	movlw	255
  2177  0018BC  6FE4               	movwf	(??_vfpfcnvrt+1)& (0+255),b
  2178  0018BE  C0DF  FFD9         	movff	vfpfcnvrt@fmt,fsr2l
  2179  0018C2  C0E0  FFDA         	movff	vfpfcnvrt@fmt+1,fsr2h
  2180  0018C6  CFDE FFF6          	movff	postinc2,tblptrl
  2181  0018CA  CFDD FFF7          	movff	postdec2,tblptrh
  2182  0018CE                     	if	0	;tblptru may be non-zero
  2183  0018CE                     	endif
  2184  0018CE                     	if	0	;tblptru may be non-zero
  2185  0018CE                     	endif
  2186  0018CE  0008               	tblrd		*
  2187  0018D0  50F5               	movf	tablat,w,c
  2188  0018D2  6FE5               	movwf	(??_vfpfcnvrt+2)& (0+255),b
  2189  0018D4  6BE6               	clrf	(??_vfpfcnvrt+3)& (0+255),b
  2190  0018D6  51E3               	movf	??_vfpfcnvrt& (0+255),w,b
  2191  0018D8  27E5               	addwf	(??_vfpfcnvrt+2)& (0+255),f,b
  2192  0018DA  51E4               	movf	(??_vfpfcnvrt+1)& (0+255),w,b
  2193  0018DC  23E6               	addwfc	(??_vfpfcnvrt+3)& (0+255),f,b
  2194  0018DE  51E6               	movf	(??_vfpfcnvrt+3)& (0+255),w,b
  2195  0018E0  E10A               	bnz	u8600
  2196  0018E2  0E1A               	movlw	26
  2197  0018E4  5DE5               	subwf	(??_vfpfcnvrt+2)& (0+255),w,b
  2198  0018E6  A0D8               	btfss	status,0,c
  2199  0018E8  EF78  F00C         	goto	u8601
  2200  0018EC  EF7B  F00C         	goto	u8600
  2201  0018F0                     u8601:
  2202  0018F0  0E01               	movlw	1
  2203  0018F2  EF7C  F00C         	goto	u8610
  2204  0018F6                     u8600:
  2205  0018F6  0E00               	movlw	0
  2206  0018F8                     u8610:
  2207  0018F8  6FEB               	movwf	_vfpfcnvrt$1137& (0+255),b
  2208  0018FA  6BEC               	clrf	(_vfpfcnvrt$1137+1)& (0+255),b
  2209  0018FC                     
  2210                           ; BSR set to: 0
  2211  0018FC  51EB               	movf	_vfpfcnvrt$1137& (0+255),w,b
  2212  0018FE  11EC               	iorwf	(_vfpfcnvrt$1137+1)& (0+255),w,b
  2213  001900  B4D8               	btfsc	status,2,c
  2214  001902  EF85  F00C         	goto	u8621
  2215  001906  EF87  F00C         	goto	u8620
  2216  00190A                     u8621:
  2217  00190A  EFA1  F00C         	goto	l5991
  2218  00190E                     u8620:
  2219  00190E                     
  2220                           ; BSR set to: 0
  2221                           ;C:\Program Files\Microchip\xc8\v2.32\pic\sources\c99\common\doprnt.c: 954:             
      +                              f = (*(long double *)__va_arg(*(long double **)ap, (long double)0));
  2222  00190E  C0E1  FFD9         	movff	vfpfcnvrt@ap,fsr2l
  2223  001912  C0E2  FFDA         	movff	vfpfcnvrt@ap+1,fsr2h
  2224  001916  CFDF F0E3          	movff	indf2,??_vfpfcnvrt
  2225  00191A  0E04               	movlw	4
  2226  00191C  26DE               	addwf	postinc2,f,c
  2227  00191E  CFDF F0E4          	movff	indf2,??_vfpfcnvrt+1
  2228  001922  0E00               	movlw	0
  2229  001924  22DD               	addwfc	postdec2,f,c
  2230  001926  C0E3  FFD9         	movff	??_vfpfcnvrt,fsr2l
  2231  00192A  C0E4  FFDA         	movff	??_vfpfcnvrt+1,fsr2h
  2232  00192E  CFDE F0ED          	movff	postinc2,vfpfcnvrt@f
  2233  001932  CFDE F0EE          	movff	postinc2,vfpfcnvrt@f+1
  2234  001936  CFDE F0EF          	movff	postinc2,vfpfcnvrt@f+2
  2235  00193A  CFDE F0F0          	movff	postinc2,vfpfcnvrt@f+3
  2236                           
  2237                           ;C:\Program Files\Microchip\xc8\v2.32\pic\sources\c99\common\doprnt.c: 955:             
      +                          } else {
  2238  00193E  EFB9  F00C         	goto	l980
  2239  001942                     l5991:
  2240                           
  2241                           ; BSR set to: 0
  2242                           ;C:\Program Files\Microchip\xc8\v2.32\pic\sources\c99\common\doprnt.c: 956:             
      +                              f = (long double)(*(double *)__va_arg(*(double **)ap, (double)0));
  2243  001942  C0E1  FFD9         	movff	vfpfcnvrt@ap,fsr2l
  2244  001946  C0E2  FFDA         	movff	vfpfcnvrt@ap+1,fsr2h
  2245  00194A  CFDF F0E3          	movff	indf2,??_vfpfcnvrt
  2246  00194E  0E04               	movlw	4
  2247  001950  26DE               	addwf	postinc2,f,c
  2248  001952  CFDF F0E4          	movff	indf2,??_vfpfcnvrt+1
  2249  001956  0E00               	movlw	0
  2250  001958  22DD               	addwfc	postdec2,f,c
  2251  00195A  C0E3  FFD9         	movff	??_vfpfcnvrt,fsr2l
  2252  00195E  C0E4  FFDA         	movff	??_vfpfcnvrt+1,fsr2h
  2253  001962  CFDE F0ED          	movff	postinc2,vfpfcnvrt@f
  2254  001966  CFDE F0EE          	movff	postinc2,vfpfcnvrt@f+1
  2255  00196A  CFDE F0EF          	movff	postinc2,vfpfcnvrt@f+2
  2256  00196E  CFDE F0F0          	movff	postinc2,vfpfcnvrt@f+3
  2257  001972                     l980:
  2258                           
  2259                           ; BSR set to: 0
  2260                           ;C:\Program Files\Microchip\xc8\v2.32\pic\sources\c99\common\doprnt.c: 958:             
      +                          *fmt += ((sizeof("lf")/sizeof("lf"[0]))-1);
  2261  001972  0E02               	movlw	2
  2262  001974  C0DF  FFD9         	movff	vfpfcnvrt@fmt,fsr2l
  2263  001978  C0E0  FFDA         	movff	vfpfcnvrt@fmt+1,fsr2h
  2264  00197C  26DE               	addwf	postinc2,f,c
  2265  00197E  0E00               	movlw	0
  2266  001980  22DD               	addwfc	postdec2,f,c
  2267  001982  EF1A  F00C         	goto	l5977
  2268  001986                     l5997:
  2269                           
  2270                           ; BSR set to: 0
  2271                           ;C:\Program Files\Microchip\xc8\v2.32\pic\sources\c99\common\doprnt.c: 1372:         if 
      +                          ((*fmt)[0] == '%') {
  2272  001986  C0DF  FFD9         	movff	vfpfcnvrt@fmt,fsr2l
  2273  00198A  C0E0  FFDA         	movff	vfpfcnvrt@fmt+1,fsr2h
  2274  00198E  CFDE FFF6          	movff	postinc2,tblptrl
  2275  001992  CFDD FFF7          	movff	postdec2,tblptrh
  2276  001996                     	if	0	;tblptru may be non-zero
  2277  001996                     	endif
  2278  001996                     	if	0	;tblptru may be non-zero
  2279  001996                     	endif
  2280  001996  0008               	tblrd		*
  2281  001998  50F5               	movf	tablat,w,c
  2282  00199A  0A25               	xorlw	37
  2283  00199C  A4D8               	btfss	status,2,c
  2284  00199E  EFD3  F00C         	goto	u8631
  2285  0019A2  EFD5  F00C         	goto	u8630
  2286  0019A6                     u8631:
  2287  0019A6  EFED  F00C         	goto	l6007
  2288  0019AA                     u8630:
  2289  0019AA                     
  2290                           ; BSR set to: 0
  2291                           ;C:\Program Files\Microchip\xc8\v2.32\pic\sources\c99\common\doprnt.c: 1373:            
      +                           ++*fmt;
  2292  0019AA  C0DF  FFD9         	movff	vfpfcnvrt@fmt,fsr2l
  2293  0019AE  C0E0  FFDA         	movff	vfpfcnvrt@fmt+1,fsr2h
  2294  0019B2  2ADE               	incf	postinc2,f,c
  2295  0019B4  0E00               	movlw	0
  2296  0019B6  22DD               	addwfc	postdec2,f,c
  2297  0019B8                     
  2298                           ; BSR set to: 0
  2299                           ;C:\Program Files\Microchip\xc8\v2.32\pic\sources\c99\common\doprnt.c: 1374:            
      +                           fputc((int)'%', fp);
  2300  0019B8  0E00               	movlw	0
  2301  0019BA  6F61               	movwf	(fputc@c+1)& (0+255),b
  2302  0019BC  0E25               	movlw	37
  2303  0019BE  6F60               	movwf	fputc@c& (0+255),b
  2304  0019C0  C0DD  F062         	movff	vfpfcnvrt@fp,fputc@fp
  2305  0019C4  C0DE  F063         	movff	vfpfcnvrt@fp+1,fputc@fp+1
  2306  0019C8  ECDF  F01D         	call	_fputc	;wreg free
  2307  0019CC                     l6003:
  2308                           
  2309                           ;C:\Program Files\Microchip\xc8\v2.32\pic\sources\c99\common\doprnt.c: 1375:            
      +                           return 1;
  2310  0019CC  0E00               	movlw	0
  2311  0019CE  0100               	movlb	0	; () banked
  2312  0019D0  6FDE               	movwf	(?_vfpfcnvrt+1)& (0+255),b
  2313  0019D2  0E01               	movlw	1
  2314  0019D4  6FDD               	movwf	?_vfpfcnvrt& (0+255),b
  2315  0019D6  EF16  F00D         	goto	l973
  2316  0019DA                     l6007:
  2317                           
  2318                           ; BSR set to: 0
  2319                           ;C:\Program Files\Microchip\xc8\v2.32\pic\sources\c99\common\doprnt.c: 1379:         ++*
      +                          fmt;
  2320  0019DA  C0DF  FFD9         	movff	vfpfcnvrt@fmt,fsr2l
  2321  0019DE  C0E0  FFDA         	movff	vfpfcnvrt@fmt+1,fsr2h
  2322  0019E2  2ADE               	incf	postinc2,f,c
  2323  0019E4  0E00               	movlw	0
  2324  0019E6  22DD               	addwfc	postdec2,f,c
  2325  0019E8                     
  2326                           ; BSR set to: 0
  2327                           ;C:\Program Files\Microchip\xc8\v2.32\pic\sources\c99\common\doprnt.c: 1380:         ret
      +                          urn 0;
  2328  0019E8  0E00               	movlw	0
  2329  0019EA  6FDE               	movwf	(?_vfpfcnvrt+1)& (0+255),b
  2330  0019EC  0E00               	movlw	0
  2331  0019EE  6FDD               	movwf	?_vfpfcnvrt& (0+255),b
  2332  0019F0  EF16  F00D         	goto	l973
  2333  0019F4                     l6013:
  2334                           
  2335                           ;C:\Program Files\Microchip\xc8\v2.32\pic\sources\c99\common\doprnt.c: 1384:     fputc((
      +                          int)(*fmt)[0], fp);
  2336  0019F4  C0DF  FFD9         	movff	vfpfcnvrt@fmt,fsr2l
  2337  0019F8  C0E0  FFDA         	movff	vfpfcnvrt@fmt+1,fsr2h
  2338  0019FC  CFDE FFF6          	movff	postinc2,tblptrl
  2339  001A00  CFDD FFF7          	movff	postdec2,tblptrh
  2340  001A04                     	if	0	;tblptru may be non-zero
  2341  001A04                     	endif
  2342  001A04                     	if	0	;tblptru may be non-zero
  2343  001A04                     	endif
  2344  001A04  0008               	tblrd		*
  2345  001A06  50F5               	movf	tablat,w,c
  2346  001A08  0100               	movlb	0	; () banked
  2347  001A0A  6F60               	movwf	fputc@c& (0+255),b
  2348  001A0C  6B61               	clrf	(fputc@c+1)& (0+255),b
  2349  001A0E  C0DD  F062         	movff	vfpfcnvrt@fp,fputc@fp
  2350  001A12  C0DE  F063         	movff	vfpfcnvrt@fp+1,fputc@fp+1
  2351  001A16  ECDF  F01D         	call	_fputc	;wreg free
  2352  001A1A                     
  2353                           ;C:\Program Files\Microchip\xc8\v2.32\pic\sources\c99\common\doprnt.c: 1385:     ++*fmt;
  2354  001A1A  C0DF  FFD9         	movff	vfpfcnvrt@fmt,fsr2l
  2355  001A1E  C0E0  FFDA         	movff	vfpfcnvrt@fmt+1,fsr2h
  2356  001A22  2ADE               	incf	postinc2,f,c
  2357  001A24  0E00               	movlw	0
  2358  001A26  22DD               	addwfc	postdec2,f,c
  2359  001A28  EFE6  F00C         	goto	l6003
  2360  001A2C                     l973:
  2361  001A2C  0012               	return		;funcret
  2362  001A2E                     __end_of_vfpfcnvrt:
  2363                           	callstack 0
  2364                           
  2365 ;; *************** function _strncmp *****************
  2366 ;; Defined at:
  2367 ;;		line 3 in file "C:\Program Files\Microchip\xc8\v2.32\pic\sources\c99\common\strncmp.c"
  2368 ;; Parameters:    Size  Location     Type
  2369 ;;  _l              2    0[BANK0 ] PTR const unsigned char 
  2370 ;;		 -> vfpfcnvrt@ct(3), 
  2371 ;;  _r              2    2[BANK0 ] PTR const unsigned char 
  2372 ;;		 -> STR_18(3), 
  2373 ;;  n               2    4[BANK0 ] unsigned int 
  2374 ;; Auto vars:     Size  Location     Type
  2375 ;;  r               2    9[BANK0 ] PTR const unsigned char 
  2376 ;;		 -> STR_18(3), 
  2377 ;;  l               2    7[BANK0 ] PTR const unsigned char 
  2378 ;;		 -> vfpfcnvrt@ct(3), 
  2379 ;; Return value:  Size  Location     Type
  2380 ;;                  2    0[BANK0 ] int 
  2381 ;; Registers used:
  2382 ;;		wreg, fsr2l, fsr2h, status,2, status,0, tblptrl, tblptrh, tblptru
  2383 ;; Tracked objects:
  2384 ;;		On entry : 0/0
  2385 ;;		On exit  : 0/0
  2386 ;;		Unchanged: 0/0
  2387 ;; Data sizes:     COMRAM   BANK0   BANK1   BANK2   BANK3   BANK4   BANK5   BANK6   BANK7
  2388 ;;      Params:         0       6       0       0       0       0       0       0       0
  2389 ;;      Locals:         0       4       0       0       0       0       0       0       0
  2390 ;;      Temps:          0       1       0       0       0       0       0       0       0
  2391 ;;      Totals:         0      11       0       0       0       0       0       0       0
  2392 ;;Total ram usage:       11 bytes
  2393 ;; Hardware stack levels used: 1
  2394 ;; Hardware stack levels required when called: 4
  2395 ;; This function calls:
  2396 ;;		Nothing
  2397 ;; This function is called by:
  2398 ;;		_vfpfcnvrt
  2399 ;; This function uses a non-reentrant model
  2400 ;;
  2401                           
  2402                           	psect	text4
  2403  003AE6                     __ptext4:
  2404                           	callstack 0
  2405  003AE6                     _strncmp:
  2406                           	callstack 23
  2407  003AE6  C060  F067         	movff	strncmp@_l,strncmp@l
  2408  003AEA  C061  F068         	movff	strncmp@_l+1,strncmp@l+1
  2409  003AEE  C062  F069         	movff	strncmp@_r,strncmp@r
  2410  003AF2  C063  F06A         	movff	strncmp@_r+1,strncmp@r+1
  2411  003AF6  0100               	movlb	0	; () banked
  2412  003AF8  0764               	decf	strncmp@n& (0+255),f,b
  2413  003AFA  A0D8               	btfss	status,0,c
  2414  003AFC  0765               	decf	(strncmp@n+1)& (0+255),f,b
  2415  003AFE  2964               	incf	strncmp@n& (0+255),w,b
  2416  003B00  E106               	bnz	u8401
  2417  003B02  2965               	incf	(strncmp@n+1)& (0+255),w,b
  2418  003B04  A4D8               	btfss	status,2,c
  2419  003B06  EF87  F01D         	goto	u8401
  2420  003B0A  EF89  F01D         	goto	u8400
  2421  003B0E                     u8401:
  2422  003B0E  EF96  F01D         	goto	l5901
  2423  003B12                     u8400:
  2424  003B12                     
  2425                           ; BSR set to: 0
  2426  003B12  0E00               	movlw	0
  2427  003B14  6F61               	movwf	(?_strncmp+1)& (0+255),b
  2428  003B16  0E00               	movlw	0
  2429  003B18  6F60               	movwf	?_strncmp& (0+255),b
  2430  003B1A  EFDE  F01D         	goto	l1101
  2431  003B1E                     l5899:
  2432                           
  2433                           ; BSR set to: 0
  2434  003B1E  4B67               	infsnz	strncmp@l& (0+255),f,b
  2435  003B20  2B68               	incf	(strncmp@l+1)& (0+255),f,b
  2436  003B22  4B69               	infsnz	strncmp@r& (0+255),f,b
  2437  003B24  2B6A               	incf	(strncmp@r+1)& (0+255),f,b
  2438  003B26  0764               	decf	strncmp@n& (0+255),f,b
  2439  003B28  A0D8               	btfss	status,0,c
  2440  003B2A  0765               	decf	(strncmp@n+1)& (0+255),f,b
  2441  003B2C                     l5901:
  2442                           
  2443                           ; BSR set to: 0
  2444  003B2C  C067  FFD9         	movff	strncmp@l,fsr2l
  2445  003B30  C068  FFDA         	movff	strncmp@l+1,fsr2h
  2446  003B34  50DF               	movf	indf2,w,c
  2447  003B36  B4D8               	btfsc	status,2,c
  2448  003B38  EFA0  F01D         	goto	u8411
  2449  003B3C  EFA2  F01D         	goto	u8410
  2450  003B40                     u8411:
  2451  003B40  EFCD  F01D         	goto	l5909
  2452  003B44                     u8410:
  2453  003B44                     
  2454                           ; BSR set to: 0
  2455  003B44  C069  FFF6         	movff	strncmp@r,tblptrl
  2456  003B48  C06A  FFF7         	movff	strncmp@r+1,tblptrh
  2457  003B4C                     	if	0	;tblptru may be non-zero
  2458  003B4C                     	endif
  2459  003B4C                     	if	0	;tblptru may be non-zero
  2460  003B4C                     	endif
  2461  003B4C  0008               	tblrd		*
  2462  003B4E  50F5               	movf	tablat,w,c
  2463  003B50  0900               	iorlw	0
  2464  003B52  B4D8               	btfsc	status,2,c
  2465  003B54  EFAE  F01D         	goto	u8421
  2466  003B58  EFB0  F01D         	goto	u8420
  2467  003B5C                     u8421:
  2468  003B5C  EFCD  F01D         	goto	l5909
  2469  003B60                     u8420:
  2470  003B60                     
  2471                           ; BSR set to: 0
  2472  003B60  5164               	movf	strncmp@n& (0+255),w,b
  2473  003B62  1165               	iorwf	(strncmp@n+1)& (0+255),w,b
  2474  003B64  B4D8               	btfsc	status,2,c
  2475  003B66  EFB7  F01D         	goto	u8431
  2476  003B6A  EFB9  F01D         	goto	u8430
  2477  003B6E                     u8431:
  2478  003B6E  EFCD  F01D         	goto	l5909
  2479  003B72                     u8430:
  2480  003B72                     
  2481                           ; BSR set to: 0
  2482  003B72  C067  FFD9         	movff	strncmp@l,fsr2l
  2483  003B76  C068  FFDA         	movff	strncmp@l+1,fsr2h
  2484  003B7A  50DF               	movf	indf2,w,c
  2485  003B7C  6F66               	movwf	??_strncmp& (0+255),b
  2486  003B7E  C069  FFF6         	movff	strncmp@r,tblptrl
  2487  003B82  C06A  FFF7         	movff	strncmp@r+1,tblptrh
  2488  003B86                     	if	0	;tblptru may be non-zero
  2489  003B86                     	endif
  2490  003B86                     	if	0	;tblptru may be non-zero
  2491  003B86                     	endif
  2492  003B86  0008               	tblrd		*
  2493  003B88  50F5               	movf	tablat,w,c
  2494  003B8A  1966               	xorwf	??_strncmp& (0+255),w,b
  2495  003B8C  B4D8               	btfsc	status,2,c
  2496  003B8E  EFCB  F01D         	goto	u8441
  2497  003B92  EFCD  F01D         	goto	u8440
  2498  003B96                     u8441:
  2499  003B96  EF8F  F01D         	goto	l5899
  2500  003B9A                     u8440:
  2501  003B9A                     l5909:
  2502                           
  2503                           ; BSR set to: 0
  2504  003B9A  C067  FFD9         	movff	strncmp@l,fsr2l
  2505  003B9E  C068  FFDA         	movff	strncmp@l+1,fsr2h
  2506  003BA2  50DF               	movf	indf2,w,c
  2507  003BA4  6F66               	movwf	??_strncmp& (0+255),b
  2508  003BA6  C069  FFF6         	movff	strncmp@r,tblptrl
  2509  003BAA  C06A  FFF7         	movff	strncmp@r+1,tblptrh
  2510  003BAE                     	if	0	;tblptru may be non-zero
  2511  003BAE                     	endif
  2512  003BAE                     	if	0	;tblptru may be non-zero
  2513  003BAE                     	endif
  2514  003BAE  0008               	tblrd		*
  2515  003BB0  50F5               	movf	tablat,w,c
  2516  003BB2  5D66               	subwf	??_strncmp& (0+255),w,b
  2517  003BB4  6F60               	movwf	?_strncmp& (0+255),b
  2518  003BB6  6B61               	clrf	(?_strncmp+1)& (0+255),b
  2519  003BB8  A0D8               	btfss	status,0,c
  2520  003BBA  0761               	decf	(?_strncmp+1)& (0+255),f,b
  2521  003BBC                     l1101:
  2522                           
  2523                           ; BSR set to: 0
  2524  003BBC  0012               	return		;funcret
  2525  003BBE                     __end_of_strncmp:
  2526                           	callstack 0
  2527                           
  2528 ;; *************** function _efgtoa *****************
  2529 ;; Defined at:
  2530 ;;		line 332 in file "C:\Program Files\Microchip\xc8\v2.32\pic\sources\c99\common\doprnt.c"
  2531 ;; Parameters:    Size  Location     Type
  2532 ;;  fp              2   57[BANK0 ] PTR struct _IO_FILE
  2533 ;;		 -> sprintf@f(6), 
  2534 ;;  f               4   59[BANK0 ] PTR struct _IO_FILE
  2535 ;;  c               1   63[BANK0 ] unsigned char 
  2536 ;; Auto vars:     Size  Location     Type
  2537 ;;  u               4  121[BANK0 ] unsigned char 
  2538 ;;  g               4  113[BANK0 ] unsigned char 
  2539 ;;  l               4  107[BANK0 ] unsigned char 
  2540 ;;  h               4  103[BANK0 ] unsigned char 
  2541 ;;  ou              4   89[BANK0 ] unsigned char 
  2542 ;;  n               2  119[BANK0 ] int 
  2543 ;;  e               2  117[BANK0 ] int 
  2544 ;;  i               2  111[BANK0 ] int 
  2545 ;;  w               2   99[BANK0 ] int 
  2546 ;;  p               2   97[BANK0 ] int 
  2547 ;;  sign            2   95[BANK0 ] int 
  2548 ;;  d               2   93[BANK0 ] int 
  2549 ;;  m               2   87[BANK0 ] int 
  2550 ;;  ne              2   85[BANK0 ] int 
  2551 ;;  pp              2   83[BANK0 ] int 
  2552 ;;  t               2   81[BANK0 ] int 
  2553 ;;  mode            1  102[BANK0 ] unsigned char 
  2554 ;;  nmode           1  101[BANK0 ] unsigned char 
  2555 ;; Return value:  Size  Location     Type
  2556 ;;                  2   57[BANK0 ] int 
  2557 ;; Registers used:
  2558 ;;		wreg, fsr1l, fsr1h, fsr2l, fsr2h, status,2, status,0, tblptrl, tblptrh, tblptru, prodl, prodh, cstack
  2559 ;; Tracked objects:
  2560 ;;		On entry : 0/0
  2561 ;;		On exit  : 0/0
  2562 ;;		Unchanged: 0/0
  2563 ;; Data sizes:     COMRAM   BANK0   BANK1   BANK2   BANK3   BANK4   BANK5   BANK6   BANK7
  2564 ;;      Params:         0       7       0       0       0       0       0       0       0
  2565 ;;      Locals:         0      56       0       0       0       0       0       0       0
  2566 ;;      Temps:          0       5       0       0       0       0       0       0       0
  2567 ;;      Totals:         0      68       0       0       0       0       0       0       0
  2568 ;;Total ram usage:       68 bytes
  2569 ;; Hardware stack levels used: 1
  2570 ;; Hardware stack levels required when called: 8
  2571 ;; This function calls:
  2572 ;;		___awdiv
  2573 ;;		___awmod
  2574 ;;		___fladd
  2575 ;;		___fldiv
  2576 ;;		___fleq
  2577 ;;		___flge
  2578 ;;		___flmul
  2579 ;;		___flneg
  2580 ;;		___flsub
  2581 ;;		___fltol
  2582 ;;		___fpclassifyf
  2583 ;;		_floorf
  2584 ;;		_isupper
  2585 ;;		_pad
  2586 ;;		_strcpy
  2587 ;;		_tolower
  2588 ;; This function is called by:
  2589 ;;		_vfpfcnvrt
  2590 ;; This function uses a non-reentrant model
  2591 ;;
  2592                           
  2593                           	psect	text5
  2594  00085C                     __ptext5:
  2595                           	callstack 0
  2596  00085C                     _efgtoa:
  2597                           	callstack 19
  2598  00085C                     
  2599                           ;C:\Program Files\Microchip\xc8\v2.32\pic\sources\c99\common\doprnt.c: 332: static int e
      +                          fgtoa(FILE *fp, long double f, char c);C:\Program Files\Microchip\xc8\v2.32\pic\sources\
      +                          c99\common\doprnt.c: 333: {;C:\Program Files\Microchip\xc8\v2.32\pic\sources\c99\common\
      +                          doprnt.c: 334:     char mode, nmode;;C:\Program Files\Microchip\xc8\v2.32\pic\sources\c9
      +                          9\common\doprnt.c: 335:     int d, e, i, m, n, ne, p, pp, sign, t, w;;C:\Program Files\M
      +                          icrochip\xc8\v2.32\pic\sources\c99\common\doprnt.c: 336:     long double g, h, l, ou, u;
  2600  00085C  0E00               	movlw	0
  2601  00085E  0100               	movlb	0	; () banked
  2602  000860  6FC0               	movwf	(efgtoa@sign+1)& (0+255),b
  2603  000862  0E00               	movlw	0
  2604  000864  6FBF               	movwf	efgtoa@sign& (0+255),b
  2605  000866                     
  2606                           ; BSR set to: 0
  2607                           ;C:\Program Files\Microchip\xc8\v2.32\pic\sources\c99\common\doprnt.c: 340:     g = f;
  2608  000866  C09B  F0D1         	movff	efgtoa@f,efgtoa@g
  2609  00086A  C09C  F0D2         	movff	efgtoa@f+1,efgtoa@g+1
  2610  00086E  C09D  F0D3         	movff	efgtoa@f+2,efgtoa@g+2
  2611  000872  C09E  F0D4         	movff	efgtoa@f+3,efgtoa@g+3
  2612  000876                     
  2613                           ; BSR set to: 0
  2614                           ;C:\Program Files\Microchip\xc8\v2.32\pic\sources\c99\common\doprnt.c: 341:     if (g < 
      +                          0.0) {
  2615  000876  BFD4               	btfsc	(efgtoa@g+3)& (0+255),7,b
  2616  000878  EF42  F004         	goto	u7790
  2617  00087C  EF40  F004         	goto	u7791
  2618  000880                     u7791:
  2619  000880  EF58  F004         	goto	l5553
  2620  000884                     u7790:
  2621  000884                     
  2622                           ; BSR set to: 0
  2623                           ;C:\Program Files\Microchip\xc8\v2.32\pic\sources\c99\common\doprnt.c: 342:         sign
      +                           = 1;
  2624  000884  0E00               	movlw	0
  2625  000886  6FC0               	movwf	(efgtoa@sign+1)& (0+255),b
  2626  000888  0E01               	movlw	1
  2627  00088A  6FBF               	movwf	efgtoa@sign& (0+255),b
  2628  00088C                     
  2629                           ; BSR set to: 0
  2630                           ;C:\Program Files\Microchip\xc8\v2.32\pic\sources\c99\common\doprnt.c: 343:         g = 
      +                          -g;
  2631  00088C  C0D1  F060         	movff	efgtoa@g,___flneg@f1
  2632  000890  C0D2  F061         	movff	efgtoa@g+1,___flneg@f1+1
  2633  000894  C0D3  F062         	movff	efgtoa@g+2,___flneg@f1+2
  2634  000898  C0D4  F063         	movff	efgtoa@g+3,___flneg@f1+3
  2635  00089C  EC54  F022         	call	___flneg	;wreg free
  2636  0008A0  C060  F0D1         	movff	?___flneg,efgtoa@g
  2637  0008A4  C061  F0D2         	movff	?___flneg+1,efgtoa@g+1
  2638  0008A8  C062  F0D3         	movff	?___flneg+2,efgtoa@g+2
  2639  0008AC  C063  F0D4         	movff	?___flneg+3,efgtoa@g+3
  2640  0008B0                     l5553:
  2641                           
  2642                           ;C:\Program Files\Microchip\xc8\v2.32\pic\sources\c99\common\doprnt.c: 347:     n = 0;
  2643  0008B0  0E00               	movlw	0
  2644  0008B2  0100               	movlb	0	; () banked
  2645  0008B4  6FD8               	movwf	(efgtoa@n+1)& (0+255),b
  2646  0008B6  0E00               	movlw	0
  2647  0008B8  6FD7               	movwf	efgtoa@n& (0+255),b
  2648  0008BA                     
  2649                           ; BSR set to: 0
  2650                           ;C:\Program Files\Microchip\xc8\v2.32\pic\sources\c99\common\doprnt.c: 348:     w = widt
      +                          h;
  2651  0008BA  C0F9  F0C3         	movff	_width,efgtoa@w
  2652  0008BE  C0FA  F0C4         	movff	_width+1,efgtoa@w+1
  2653  0008C2                     
  2654                           ; BSR set to: 0
  2655                           ;C:\Program Files\Microchip\xc8\v2.32\pic\sources\c99\common\doprnt.c: 349:     if (sign
      +                           || (flags & (1 << 2))) {
  2656  0008C2  51BF               	movf	efgtoa@sign& (0+255),w,b
  2657  0008C4  11C0               	iorwf	(efgtoa@sign+1)& (0+255),w,b
  2658  0008C6  A4D8               	btfss	status,2,c
  2659  0008C8  EF68  F004         	goto	u7801
  2660  0008CC  EF6A  F004         	goto	u7800
  2661  0008D0                     u7801:
  2662  0008D0  EF71  F004         	goto	l5561
  2663  0008D4                     u7800:
  2664  0008D4                     
  2665                           ; BSR set to: 0
  2666  0008D4  A42F               	btfss	_flags^0,2,c
  2667  0008D6  EF6F  F004         	goto	u7811
  2668  0008DA  EF71  F004         	goto	u7810
  2669  0008DE                     u7811:
  2670  0008DE  EF8B  F004         	goto	l5573
  2671  0008E2                     u7810:
  2672  0008E2                     l5561:
  2673                           
  2674                           ; BSR set to: 0
  2675                           ;C:\Program Files\Microchip\xc8\v2.32\pic\sources\c99\common\doprnt.c: 350:         dbuf
      +                          [n] = sign ? '-' : '+';
  2676  0008E2  51BF               	movf	efgtoa@sign& (0+255),w,b
  2677  0008E4  11C0               	iorwf	(efgtoa@sign+1)& (0+255),w,b
  2678  0008E6  A4D8               	btfss	status,2,c
  2679  0008E8  EF78  F004         	goto	u7821
  2680  0008EC  EF7A  F004         	goto	u7820
  2681  0008F0                     u7821:
  2682  0008F0  EF80  F004         	goto	l5565
  2683  0008F4                     u7820:
  2684  0008F4                     
  2685                           ; BSR set to: 0
  2686  0008F4  0E00               	movlw	0
  2687  0008F6  6FA6               	movwf	(_efgtoa$1106+1)& (0+255),b
  2688  0008F8  0E2B               	movlw	43
  2689  0008FA  6FA5               	movwf	_efgtoa$1106& (0+255),b
  2690  0008FC  EF84  F004         	goto	l5567
  2691  000900                     l5565:
  2692                           
  2693                           ; BSR set to: 0
  2694  000900  0E00               	movlw	0
  2695  000902  6FA6               	movwf	(_efgtoa$1106+1)& (0+255),b
  2696  000904  0E2D               	movlw	45
  2697  000906  6FA5               	movwf	_efgtoa$1106& (0+255),b
  2698  000908                     l5567:
  2699                           
  2700                           ; BSR set to: 0
  2701  000908  C0A5  F100         	movff	_efgtoa$1106,_dbuf
  2702  00090C                     
  2703                           ; BSR set to: 0
  2704                           ;C:\Program Files\Microchip\xc8\v2.32\pic\sources\c99\common\doprnt.c: 351:         ++n;
  2705  00090C  4BD7               	infsnz	efgtoa@n& (0+255),f,b
  2706  00090E  2BD8               	incf	(efgtoa@n+1)& (0+255),f,b
  2707  000910                     
  2708                           ; BSR set to: 0
  2709                           ;C:\Program Files\Microchip\xc8\v2.32\pic\sources\c99\common\doprnt.c: 352:         --w;
  2710  000910  07C3               	decf	efgtoa@w& (0+255),f,b
  2711  000912  A0D8               	btfss	status,0,c
  2712  000914  07C4               	decf	(efgtoa@w+1)& (0+255),f,b
  2713  000916                     l5573:
  2714                           
  2715                           ; BSR set to: 0
  2716                           ;C:\Program Files\Microchip\xc8\v2.32\pic\sources\c99\common\doprnt.c: 357:         if (
      +                          (0 ? isupper((int)c) : ((unsigned)((int)c)-'A') < 26)) {
  2717  000916  C0D1  F060         	movff	efgtoa@g,___fpclassifyf@x
  2718  00091A  C0D2  F061         	movff	efgtoa@g+1,___fpclassifyf@x+1
  2719  00091E  C0D3  F062         	movff	efgtoa@g+2,___fpclassifyf@x+2
  2720  000922  C0D4  F063         	movff	efgtoa@g+3,___fpclassifyf@x+3
  2721  000926  EC74  F01C         	call	___fpclassifyf	;wreg free
  2722  00092A  0100               	movlb	0	; () banked
  2723  00092C  0560               	decf	?___fpclassifyf& (0+255),w,b
  2724  00092E  1161               	iorwf	(?___fpclassifyf+1)& (0+255),w,b
  2725  000930  A4D8               	btfss	status,2,c
  2726  000932  EF9D  F004         	goto	u7831
  2727  000936  EF9F  F004         	goto	u7830
  2728  00093A                     u7831:
  2729  00093A  EFF6  F004         	goto	l5591
  2730  00093E                     u7830:
  2731  00093E                     
  2732                           ; BSR set to: 0
  2733  00093E  0EBF               	movlw	191
  2734  000940  6FA0               	movwf	??_efgtoa& (0+255),b
  2735  000942  0EFF               	movlw	255
  2736  000944  6FA1               	movwf	(??_efgtoa+1)& (0+255),b
  2737  000946  519F               	movf	efgtoa@c& (0+255),w,b
  2738  000948  6FA2               	movwf	(??_efgtoa+2)& (0+255),b
  2739  00094A  6BA3               	clrf	(??_efgtoa+3)& (0+255),b
  2740  00094C  51A0               	movf	??_efgtoa& (0+255),w,b
  2741  00094E  27A2               	addwf	(??_efgtoa+2)& (0+255),f,b
  2742  000950  51A1               	movf	(??_efgtoa+1)& (0+255),w,b
  2743  000952  23A3               	addwfc	(??_efgtoa+3)& (0+255),f,b
  2744  000954  51A3               	movf	(??_efgtoa+3)& (0+255),w,b
  2745  000956  E10A               	bnz	u7840
  2746  000958  0E1A               	movlw	26
  2747  00095A  5DA2               	subwf	(??_efgtoa+2)& (0+255),w,b
  2748  00095C  A0D8               	btfss	status,0,c
  2749  00095E  EFB3  F004         	goto	u7841
  2750  000962  EFB6  F004         	goto	u7840
  2751  000966                     u7841:
  2752  000966  0E01               	movlw	1
  2753  000968  EFB7  F004         	goto	u7850
  2754  00096C                     u7840:
  2755  00096C  0E00               	movlw	0
  2756  00096E                     u7850:
  2757  00096E  6FA7               	movwf	_efgtoa$1107& (0+255),b
  2758  000970  6BA8               	clrf	(_efgtoa$1107+1)& (0+255),b
  2759  000972                     
  2760                           ; BSR set to: 0
  2761  000972  51A7               	movf	_efgtoa$1107& (0+255),w,b
  2762  000974  11A8               	iorwf	(_efgtoa$1107+1)& (0+255),w,b
  2763  000976  B4D8               	btfsc	status,2,c
  2764  000978  EFC0  F004         	goto	u7861
  2765  00097C  EFC2  F004         	goto	u7860
  2766  000980                     u7861:
  2767  000980  EFD0  F004         	goto	l5583
  2768  000984                     u7860:
  2769  000984                     
  2770                           ; BSR set to: 0
  2771                           ;C:\Program Files\Microchip\xc8\v2.32\pic\sources\c99\common\doprnt.c: 358:             
      +                          strcpy(&dbuf[n], "INF");
  2772  000984  0E00               	movlw	low _dbuf
  2773  000986  25D7               	addwf	efgtoa@n& (0+255),w,b
  2774  000988  6F60               	movwf	strcpy@dest& (0+255),b
  2775  00098A  0E01               	movlw	high _dbuf
  2776  00098C  21D8               	addwfc	(efgtoa@n+1)& (0+255),w,b
  2777  00098E  6F61               	movwf	(strcpy@dest+1)& (0+255),b
  2778  000990  0E47               	movlw	low STR_8
  2779  000992  6F62               	movwf	strcpy@src& (0+255),b
  2780  000994  0E08               	movlw	high STR_8
  2781  000996  6F63               	movwf	(strcpy@src+1)& (0+255),b
  2782  000998  ECF4  F020         	call	_strcpy	;wreg free
  2783                           
  2784                           ;C:\Program Files\Microchip\xc8\v2.32\pic\sources\c99\common\doprnt.c: 359:         } el
      +                          se {
  2785  00099C  EFDC  F004         	goto	l5585
  2786  0009A0                     l5583:
  2787                           
  2788                           ; BSR set to: 0
  2789                           ;C:\Program Files\Microchip\xc8\v2.32\pic\sources\c99\common\doprnt.c: 360:             
      +                          strcpy(&dbuf[n], "inf");
  2790  0009A0  0E00               	movlw	low _dbuf
  2791  0009A2  25D7               	addwf	efgtoa@n& (0+255),w,b
  2792  0009A4  6F60               	movwf	strcpy@dest& (0+255),b
  2793  0009A6  0E01               	movlw	high _dbuf
  2794  0009A8  21D8               	addwfc	(efgtoa@n+1)& (0+255),w,b
  2795  0009AA  6F61               	movwf	(strcpy@dest+1)& (0+255),b
  2796  0009AC  0E4F               	movlw	low STR_9
  2797  0009AE  6F62               	movwf	strcpy@src& (0+255),b
  2798  0009B0  0E08               	movlw	high STR_9
  2799  0009B2  6F63               	movwf	(strcpy@src+1)& (0+255),b
  2800  0009B4  ECF4  F020         	call	_strcpy	;wreg free
  2801  0009B8                     l5585:
  2802                           
  2803                           ;C:\Program Files\Microchip\xc8\v2.32\pic\sources\c99\common\doprnt.c: 362:         w -=
      +                           ((sizeof("inf")/sizeof("inf"[0]))-1);
  2804  0009B8  0100               	movlb	0	; () banked
  2805  0009BA  0EFD               	movlw	253
  2806  0009BC  27C3               	addwf	efgtoa@w& (0+255),f,b
  2807  0009BE  0EFF               	movlw	255
  2808  0009C0  23C4               	addwfc	(efgtoa@w+1)& (0+255),f,b
  2809  0009C2                     l5587:
  2810                           
  2811                           ;C:\Program Files\Microchip\xc8\v2.32\pic\sources\c99\common\doprnt.c: 363:         retu
      +                          rn pad(fp, &dbuf[0], w);
  2812  0009C2  C099  F070         	movff	efgtoa@fp,pad@fp
  2813  0009C6  C09A  F071         	movff	efgtoa@fp+1,pad@fp+1
  2814  0009CA  0E00               	movlw	low _dbuf
  2815  0009CC  0100               	movlb	0	; () banked
  2816  0009CE  6F72               	movwf	pad@buf& (0+255),b
  2817  0009D0  0E01               	movlw	high _dbuf
  2818  0009D2  6F73               	movwf	(pad@buf+1)& (0+255),b
  2819  0009D4  C0C3  F074         	movff	efgtoa@w,pad@p
  2820  0009D8  C0C4  F075         	movff	efgtoa@w+1,pad@p+1
  2821  0009DC  EC45  F01E         	call	_pad	;wreg free
  2822  0009E0  C070  F099         	movff	?_pad,?_efgtoa
  2823  0009E4  C071  F09A         	movff	?_pad+1,?_efgtoa+1
  2824  0009E8  EF60  F00A         	goto	l871
  2825  0009EC                     l5591:
  2826                           
  2827                           ; BSR set to: 0
  2828                           ;C:\Program Files\Microchip\xc8\v2.32\pic\sources\c99\common\doprnt.c: 366:         if (
      +                          (0 ? isupper((int)c) : ((unsigned)((int)c)-'A') < 26)) {
  2829  0009EC  C0D1  F060         	movff	efgtoa@g,___fpclassifyf@x
  2830  0009F0  C0D2  F061         	movff	efgtoa@g+1,___fpclassifyf@x+1
  2831  0009F4  C0D3  F062         	movff	efgtoa@g+2,___fpclassifyf@x+2
  2832  0009F8  C0D4  F063         	movff	efgtoa@g+3,___fpclassifyf@x+3
  2833  0009FC  EC74  F01C         	call	___fpclassifyf	;wreg free
  2834  000A00  0100               	movlb	0	; () banked
  2835  000A02  5160               	movf	?___fpclassifyf& (0+255),w,b
  2836  000A04  1161               	iorwf	(?___fpclassifyf+1)& (0+255),w,b
  2837  000A06  A4D8               	btfss	status,2,c
  2838  000A08  EF08  F005         	goto	u7871
  2839  000A0C  EF0A  F005         	goto	u7870
  2840  000A10                     u7871:
  2841  000A10  EF49  F005         	goto	l5609
  2842  000A14                     u7870:
  2843  000A14                     
  2844                           ; BSR set to: 0
  2845  000A14  0EBF               	movlw	191
  2846  000A16  6FA0               	movwf	??_efgtoa& (0+255),b
  2847  000A18  0EFF               	movlw	255
  2848  000A1A  6FA1               	movwf	(??_efgtoa+1)& (0+255),b
  2849  000A1C  519F               	movf	efgtoa@c& (0+255),w,b
  2850  000A1E  6FA2               	movwf	(??_efgtoa+2)& (0+255),b
  2851  000A20  6BA3               	clrf	(??_efgtoa+3)& (0+255),b
  2852  000A22  51A0               	movf	??_efgtoa& (0+255),w,b
  2853  000A24  27A2               	addwf	(??_efgtoa+2)& (0+255),f,b
  2854  000A26  51A1               	movf	(??_efgtoa+1)& (0+255),w,b
  2855  000A28  23A3               	addwfc	(??_efgtoa+3)& (0+255),f,b
  2856  000A2A  51A3               	movf	(??_efgtoa+3)& (0+255),w,b
  2857  000A2C  E10A               	bnz	u7880
  2858  000A2E  0E1A               	movlw	26
  2859  000A30  5DA2               	subwf	(??_efgtoa+2)& (0+255),w,b
  2860  000A32  A0D8               	btfss	status,0,c
  2861  000A34  EF1E  F005         	goto	u7881
  2862  000A38  EF21  F005         	goto	u7880
  2863  000A3C                     u7881:
  2864  000A3C  0E01               	movlw	1
  2865  000A3E  EF22  F005         	goto	u7890
  2866  000A42                     u7880:
  2867  000A42  0E00               	movlw	0
  2868  000A44                     u7890:
  2869  000A44  6FA9               	movwf	_efgtoa$1112& (0+255),b
  2870  000A46  6BAA               	clrf	(_efgtoa$1112+1)& (0+255),b
  2871  000A48                     
  2872                           ; BSR set to: 0
  2873  000A48  51A9               	movf	_efgtoa$1112& (0+255),w,b
  2874  000A4A  11AA               	iorwf	(_efgtoa$1112+1)& (0+255),w,b
  2875  000A4C  B4D8               	btfsc	status,2,c
  2876  000A4E  EF2B  F005         	goto	u7901
  2877  000A52  EF2D  F005         	goto	u7900
  2878  000A56                     u7901:
  2879  000A56  EF3B  F005         	goto	l5601
  2880  000A5A                     u7900:
  2881  000A5A                     
  2882                           ; BSR set to: 0
  2883                           ;C:\Program Files\Microchip\xc8\v2.32\pic\sources\c99\common\doprnt.c: 367:             
      +                          strcpy(&dbuf[n], "NAN");
  2884  000A5A  0E00               	movlw	low _dbuf
  2885  000A5C  25D7               	addwf	efgtoa@n& (0+255),w,b
  2886  000A5E  6F60               	movwf	strcpy@dest& (0+255),b
  2887  000A60  0E01               	movlw	high _dbuf
  2888  000A62  21D8               	addwfc	(efgtoa@n+1)& (0+255),w,b
  2889  000A64  6F61               	movwf	(strcpy@dest+1)& (0+255),b
  2890  000A66  0E4B               	movlw	low STR_12
  2891  000A68  6F62               	movwf	strcpy@src& (0+255),b
  2892  000A6A  0E08               	movlw	high STR_12
  2893  000A6C  6F63               	movwf	(strcpy@src+1)& (0+255),b
  2894  000A6E  ECF4  F020         	call	_strcpy	;wreg free
  2895                           
  2896                           ;C:\Program Files\Microchip\xc8\v2.32\pic\sources\c99\common\doprnt.c: 368:         } el
      +                          se {
  2897  000A72  EFDC  F004         	goto	l5585
  2898  000A76                     l5601:
  2899                           
  2900                           ; BSR set to: 0
  2901                           ;C:\Program Files\Microchip\xc8\v2.32\pic\sources\c99\common\doprnt.c: 369:             
      +                          strcpy(&dbuf[n], "nan");
  2902  000A76  0E00               	movlw	low _dbuf
  2903  000A78  25D7               	addwf	efgtoa@n& (0+255),w,b
  2904  000A7A  6F60               	movwf	strcpy@dest& (0+255),b
  2905  000A7C  0E01               	movlw	high _dbuf
  2906  000A7E  21D8               	addwfc	(efgtoa@n+1)& (0+255),w,b
  2907  000A80  6F61               	movwf	(strcpy@dest+1)& (0+255),b
  2908  000A82  0E53               	movlw	low STR_13
  2909  000A84  6F62               	movwf	strcpy@src& (0+255),b
  2910  000A86  0E08               	movlw	high STR_13
  2911  000A88  6F63               	movwf	(strcpy@src+1)& (0+255),b
  2912  000A8A  ECF4  F020         	call	_strcpy	;wreg free
  2913  000A8E  EFDC  F004         	goto	l5585
  2914  000A92                     l5609:
  2915                           
  2916                           ; BSR set to: 0
  2917                           ;C:\Program Files\Microchip\xc8\v2.32\pic\sources\c99\common\doprnt.c: 376:     u = 1.0;
  2918  000A92  0E00               	movlw	0
  2919  000A94  6FD9               	movwf	efgtoa@u& (0+255),b
  2920  000A96  0E00               	movlw	0
  2921  000A98  6FDA               	movwf	(efgtoa@u+1)& (0+255),b
  2922  000A9A  0E80               	movlw	128
  2923  000A9C  6FDB               	movwf	(efgtoa@u+2)& (0+255),b
  2924  000A9E  0E3F               	movlw	63
  2925  000AA0  6FDC               	movwf	(efgtoa@u+3)& (0+255),b
  2926                           
  2927                           ;C:\Program Files\Microchip\xc8\v2.32\pic\sources\c99\common\doprnt.c: 377:     e = 0;
  2928  000AA2  0E00               	movlw	0
  2929  000AA4  6FD6               	movwf	(efgtoa@e+1)& (0+255),b
  2930  000AA6  0E00               	movlw	0
  2931  000AA8  6FD5               	movwf	efgtoa@e& (0+255),b
  2932  000AAA                     
  2933                           ; BSR set to: 0
  2934                           ;C:\Program Files\Microchip\xc8\v2.32\pic\sources\c99\common\doprnt.c: 378:     if (!(g 
      +                          == 0.0)) {
  2935  000AAA  C0D1  F060         	movff	efgtoa@g,___fleq@ff1
  2936  000AAE  C0D2  F061         	movff	efgtoa@g+1,___fleq@ff1+1
  2937  000AB2  C0D3  F062         	movff	efgtoa@g+2,___fleq@ff1+2
  2938  000AB6  C0D4  F063         	movff	efgtoa@g+3,___fleq@ff1+3
  2939  000ABA  0E00               	movlw	0
  2940  000ABC  6F64               	movwf	___fleq@ff2& (0+255),b
  2941  000ABE  0E00               	movlw	0
  2942  000AC0  6F65               	movwf	(___fleq@ff2+1)& (0+255),b
  2943  000AC2  0E00               	movlw	0
  2944  000AC4  6F66               	movwf	(___fleq@ff2+2)& (0+255),b
  2945  000AC6  0E00               	movlw	0
  2946  000AC8  6F67               	movwf	(___fleq@ff2+3)& (0+255),b
  2947  000ACA  ECBC  F01F         	call	___fleq	;wreg free
  2948  000ACE  0100               	movlb	0	; () banked
  2949  000AD0  B0D8               	btfsc	status,0,c
  2950  000AD2  EF6D  F005         	goto	u7911
  2951  000AD6  EF6F  F005         	goto	u7910
  2952  000ADA                     u7911:
  2953  000ADA  EFF4  F005         	goto	l5627
  2954  000ADE                     u7910:
  2955  000ADE  EF8E  F005         	goto	l5619
  2956  000AE2                     l5615:
  2957                           
  2958                           ; BSR set to: 0
  2959                           ;C:\Program Files\Microchip\xc8\v2.32\pic\sources\c99\common\doprnt.c: 380:             
      +                          u = u*10.0;
  2960  000AE2  C0D9  F074         	movff	efgtoa@u,___flmul@b
  2961  000AE6  C0DA  F075         	movff	efgtoa@u+1,___flmul@b+1
  2962  000AEA  C0DB  F076         	movff	efgtoa@u+2,___flmul@b+2
  2963  000AEE  C0DC  F077         	movff	efgtoa@u+3,___flmul@b+3
  2964  000AF2  0E00               	movlw	0
  2965  000AF4  6F78               	movwf	___flmul@a& (0+255),b
  2966  000AF6  0E00               	movlw	0
  2967  000AF8  6F79               	movwf	(___flmul@a+1)& (0+255),b
  2968  000AFA  0E20               	movlw	32
  2969  000AFC  6F7A               	movwf	(___flmul@a+2)& (0+255),b
  2970  000AFE  0E41               	movlw	65
  2971  000B00  6F7B               	movwf	(___flmul@a+3)& (0+255),b
  2972  000B02  ECD8  F011         	call	___flmul	;wreg free
  2973  000B06  C074  F0D9         	movff	?___flmul,efgtoa@u
  2974  000B0A  C075  F0DA         	movff	?___flmul+1,efgtoa@u+1
  2975  000B0E  C076  F0DB         	movff	?___flmul+2,efgtoa@u+2
  2976  000B12  C077  F0DC         	movff	?___flmul+3,efgtoa@u+3
  2977  000B16                     
  2978                           ;C:\Program Files\Microchip\xc8\v2.32\pic\sources\c99\common\doprnt.c: 381:             
      +                          ++e;
  2979  000B16  0100               	movlb	0	; () banked
  2980  000B18  4BD5               	infsnz	efgtoa@e& (0+255),f,b
  2981  000B1A  2BD6               	incf	(efgtoa@e+1)& (0+255),f,b
  2982  000B1C                     l5619:
  2983                           
  2984                           ; BSR set to: 0
  2985                           ;C:\Program Files\Microchip\xc8\v2.32\pic\sources\c99\common\doprnt.c: 379:         whil
      +                          e (!(g < (u*10.0))) {
  2986  000B1C  C0D1  F08D         	movff	efgtoa@g,___flge@ff1
  2987  000B20  C0D2  F08E         	movff	efgtoa@g+1,___flge@ff1+1
  2988  000B24  C0D3  F08F         	movff	efgtoa@g+2,___flge@ff1+2
  2989  000B28  C0D4  F090         	movff	efgtoa@g+3,___flge@ff1+3
  2990  000B2C  0E00               	movlw	0
  2991  000B2E  6F78               	movwf	___flmul@a& (0+255),b
  2992  000B30  0E00               	movlw	0
  2993  000B32  6F79               	movwf	(___flmul@a+1)& (0+255),b
  2994  000B34  0E20               	movlw	32
  2995  000B36  6F7A               	movwf	(___flmul@a+2)& (0+255),b
  2996  000B38  0E41               	movlw	65
  2997  000B3A  6F7B               	movwf	(___flmul@a+3)& (0+255),b
  2998  000B3C  C0D9  F074         	movff	efgtoa@u,___flmul@b
  2999  000B40  C0DA  F075         	movff	efgtoa@u+1,___flmul@b+1
  3000  000B44  C0DB  F076         	movff	efgtoa@u+2,___flmul@b+2
  3001  000B48  C0DC  F077         	movff	efgtoa@u+3,___flmul@b+3
  3002  000B4C  ECD8  F011         	call	___flmul	;wreg free
  3003  000B50  C074  F091         	movff	?___flmul,___flge@ff2
  3004  000B54  C075  F092         	movff	?___flmul+1,___flge@ff2+1
  3005  000B58  C076  F093         	movff	?___flmul+2,___flge@ff2+2
  3006  000B5C  C077  F094         	movff	?___flmul+3,___flge@ff2+3
  3007  000B60  EC6F  F01B         	call	___flge	;wreg free
  3008  000B64  0100               	movlb	0	; () banked
  3009  000B66  B0D8               	btfsc	status,0,c
  3010  000B68  EFB8  F005         	goto	u7921
  3011  000B6C  EFBA  F005         	goto	u7920
  3012  000B70                     u7921:
  3013  000B70  EF71  F005         	goto	l5615
  3014  000B74                     u7920:
  3015  000B74  EFDA  F005         	goto	l5625
  3016  000B78                     l5621:
  3017                           
  3018                           ; BSR set to: 0
  3019                           ;C:\Program Files\Microchip\xc8\v2.32\pic\sources\c99\common\doprnt.c: 384:             
      +                          u = u/10.0;
  3020  000B78  C0D9  F060         	movff	efgtoa@u,___fldiv@b
  3021  000B7C  C0DA  F061         	movff	efgtoa@u+1,___fldiv@b+1
  3022  000B80  C0DB  F062         	movff	efgtoa@u+2,___fldiv@b+2
  3023  000B84  C0DC  F063         	movff	efgtoa@u+3,___fldiv@b+3
  3024  000B88  0E00               	movlw	0
  3025  000B8A  6F64               	movwf	___fldiv@a& (0+255),b
  3026  000B8C  0E00               	movlw	0
  3027  000B8E  6F65               	movwf	(___fldiv@a+1)& (0+255),b
  3028  000B90  0E20               	movlw	32
  3029  000B92  6F66               	movwf	(___fldiv@a+2)& (0+255),b
  3030  000B94  0E41               	movlw	65
  3031  000B96  6F67               	movwf	(___fldiv@a+3)& (0+255),b
  3032  000B98  ECEE  F013         	call	___fldiv	;wreg free
  3033  000B9C  C060  F0D9         	movff	?___fldiv,efgtoa@u
  3034  000BA0  C061  F0DA         	movff	?___fldiv+1,efgtoa@u+1
  3035  000BA4  C062  F0DB         	movff	?___fldiv+2,efgtoa@u+2
  3036  000BA8  C063  F0DC         	movff	?___fldiv+3,efgtoa@u+3
  3037  000BAC                     
  3038                           ;C:\Program Files\Microchip\xc8\v2.32\pic\sources\c99\common\doprnt.c: 385:             
      +                          --e;
  3039  000BAC  0100               	movlb	0	; () banked
  3040  000BAE  07D5               	decf	efgtoa@e& (0+255),f,b
  3041  000BB0  A0D8               	btfss	status,0,c
  3042  000BB2  07D6               	decf	(efgtoa@e+1)& (0+255),f,b
  3043  000BB4                     l5625:
  3044                           
  3045                           ; BSR set to: 0
  3046                           ;C:\Program Files\Microchip\xc8\v2.32\pic\sources\c99\common\doprnt.c: 383:         whil
      +                          e (g < u) {
  3047  000BB4  C0D1  F08D         	movff	efgtoa@g,___flge@ff1
  3048  000BB8  C0D2  F08E         	movff	efgtoa@g+1,___flge@ff1+1
  3049  000BBC  C0D3  F08F         	movff	efgtoa@g+2,___flge@ff1+2
  3050  000BC0  C0D4  F090         	movff	efgtoa@g+3,___flge@ff1+3
  3051  000BC4  C0D9  F091         	movff	efgtoa@u,___flge@ff2
  3052  000BC8  C0DA  F092         	movff	efgtoa@u+1,___flge@ff2+1
  3053  000BCC  C0DB  F093         	movff	efgtoa@u+2,___flge@ff2+2
  3054  000BD0  C0DC  F094         	movff	efgtoa@u+3,___flge@ff2+3
  3055  000BD4  EC6F  F01B         	call	___flge	;wreg free
  3056  000BD8  0100               	movlb	0	; () banked
  3057  000BDA  A0D8               	btfss	status,0,c
  3058  000BDC  EFF2  F005         	goto	u7931
  3059  000BE0  EFF4  F005         	goto	u7930
  3060  000BE4                     u7931:
  3061  000BE4  EFBC  F005         	goto	l5621
  3062  000BE8                     u7930:
  3063  000BE8                     l5627:
  3064                           
  3065                           ; BSR set to: 0
  3066                           ;C:\Program Files\Microchip\xc8\v2.32\pic\sources\c99\common\doprnt.c: 390:     mode = (
      +                          char)tolower((int)c);
  3067  000BE8  C09F  F066         	movff	efgtoa@c,tolower@c
  3068  000BEC  6B67               	clrf	(tolower@c+1)& (0+255),b
  3069  000BEE  ECC3  F020         	call	_tolower	;wreg free
  3070  000BF2  0100               	movlb	0	; () banked
  3071  000BF4  5166               	movf	?_tolower& (0+255),w,b
  3072  000BF6  6FC6               	movwf	efgtoa@mode& (0+255),b
  3073  000BF8                     
  3074                           ; BSR set to: 0
  3075                           ;C:\Program Files\Microchip\xc8\v2.32\pic\sources\c99\common\doprnt.c: 391:     nmode = 
      +                          mode;
  3076  000BF8  C0C6  F0C5         	movff	efgtoa@mode,efgtoa@nmode
  3077  000BFC                     
  3078                           ; BSR set to: 0
  3079                           ;C:\Program Files\Microchip\xc8\v2.32\pic\sources\c99\common\doprnt.c: 392:     if (mode
      +                           == 'g') {
  3080  000BFC  0E67               	movlw	103
  3081  000BFE  19C6               	xorwf	efgtoa@mode& (0+255),w,b
  3082  000C00  A4D8               	btfss	status,2,c
  3083  000C02  EF05  F006         	goto	u7941
  3084  000C06  EF07  F006         	goto	u7940
  3085  000C0A                     u7941:
  3086  000C0A  EF2D  F006         	goto	l5641
  3087  000C0E                     u7940:
  3088  000C0E                     
  3089                           ; BSR set to: 0
  3090                           ;C:\Program Files\Microchip\xc8\v2.32\pic\sources\c99\common\doprnt.c: 393:   if (prec =
      +                          = 0) {
  3091  000C0E  51FB               	movf	_prec& (0+255),w,b
  3092  000C10  11FC               	iorwf	(_prec+1)& (0+255),w,b
  3093  000C12  A4D8               	btfss	status,2,c
  3094  000C14  EF0E  F006         	goto	u7951
  3095  000C18  EF10  F006         	goto	u7950
  3096  000C1C                     u7951:
  3097  000C1C  EF14  F006         	goto	l5637
  3098  000C20                     u7950:
  3099  000C20                     
  3100                           ; BSR set to: 0
  3101                           ;C:\Program Files\Microchip\xc8\v2.32\pic\sources\c99\common\doprnt.c: 394:    prec = 1;
  3102  000C20  0E00               	movlw	0
  3103  000C22  6FFC               	movwf	(_prec+1)& (0+255),b
  3104  000C24  0E01               	movlw	1
  3105  000C26  6FFB               	movwf	_prec& (0+255),b
  3106  000C28                     l5637:
  3107                           
  3108                           ; BSR set to: 0
  3109                           ;C:\Program Files\Microchip\xc8\v2.32\pic\sources\c99\common\doprnt.c: 396:         p = 
      +                          (0 < prec) ? prec : 6;
  3110  000C28  BFFC               	btfsc	(_prec+1)& (0+255),7,b
  3111  000C2A  EF21  F006         	goto	u7960
  3112  000C2E  51FC               	movf	(_prec+1)& (0+255),w,b
  3113  000C30  E106               	bnz	u7961
  3114  000C32  05FB               	decf	_prec& (0+255),w,b
  3115  000C34  B0D8               	btfsc	status,0,c
  3116  000C36  EF1F  F006         	goto	u7961
  3117  000C3A  EF21  F006         	goto	u7960
  3118  000C3E                     u7961:
  3119  000C3E  EF27  F006         	goto	l889
  3120  000C42                     u7960:
  3121  000C42                     l5639:
  3122                           
  3123                           ; BSR set to: 0
  3124  000C42  0E00               	movlw	0
  3125  000C44  6FC2               	movwf	(efgtoa@p+1)& (0+255),b
  3126  000C46  0E06               	movlw	6
  3127  000C48  6FC1               	movwf	efgtoa@p& (0+255),b
  3128  000C4A  EF36  F006         	goto	l5647
  3129  000C4E                     l889:
  3130                           
  3131                           ; BSR set to: 0
  3132  000C4E  C0FB  F0C1         	movff	_prec,efgtoa@p
  3133  000C52  C0FC  F0C2         	movff	_prec+1,efgtoa@p+1
  3134  000C56  EF36  F006         	goto	l5647
  3135  000C5A                     l5641:
  3136                           
  3137                           ; BSR set to: 0
  3138                           ;C:\Program Files\Microchip\xc8\v2.32\pic\sources\c99\common\doprnt.c: 398:         p = 
      +                          (prec < 0) ? 6 : prec;
  3139  000C5A  BFFC               	btfsc	(_prec+1)& (0+255),7,b
  3140  000C5C  EF32  F006         	goto	u7971
  3141  000C60  EF34  F006         	goto	u7970
  3142  000C64                     u7971:
  3143  000C64  EF21  F006         	goto	l5639
  3144  000C68                     u7970:
  3145  000C68  EF27  F006         	goto	l889
  3146  000C6C                     l5647:
  3147                           
  3148                           ; BSR set to: 0
  3149                           ;C:\Program Files\Microchip\xc8\v2.32\pic\sources\c99\common\doprnt.c: 402:     if (mode
      +                           == 'g') {
  3150  000C6C  0E67               	movlw	103
  3151  000C6E  19C6               	xorwf	efgtoa@mode& (0+255),w,b
  3152  000C70  A4D8               	btfss	status,2,c
  3153  000C72  EF3D  F006         	goto	u7981
  3154  000C76  EF3F  F006         	goto	u7980
  3155  000C7A                     u7981:
  3156  000C7A  EF6E  F006         	goto	l5657
  3157  000C7E                     u7980:
  3158  000C7E                     
  3159                           ; BSR set to: 0
  3160                           ;C:\Program Files\Microchip\xc8\v2.32\pic\sources\c99\common\doprnt.c: 403:         if (
      +                          !(e < -4) && !((p - 1) < e)) {
  3161  000C7E  AFD6               	btfss	(efgtoa@e+1)& (0+255),7,b
  3162  000C80  EF4D  F006         	goto	u7990
  3163  000C84  0EFC               	movlw	252
  3164  000C86  5DD5               	subwf	efgtoa@e& (0+255),w,b
  3165  000C88  0EFF               	movlw	255
  3166  000C8A  59D6               	subwfb	(efgtoa@e+1)& (0+255),w,b
  3167  000C8C  A0D8               	btfss	status,0,c
  3168  000C8E  EF4B  F006         	goto	u7991
  3169  000C92  EF4D  F006         	goto	u7990
  3170  000C96                     u7991:
  3171  000C96  EF6C  F006         	goto	l5655
  3172  000C9A                     u7990:
  3173  000C9A                     
  3174                           ; BSR set to: 0
  3175  000C9A  0EFF               	movlw	255
  3176  000C9C  6FA0               	movwf	??_efgtoa& (0+255),b
  3177  000C9E  0EFF               	movlw	255
  3178  000CA0  6FA1               	movwf	(??_efgtoa+1)& (0+255),b
  3179  000CA2  C0C1  F0A2         	movff	efgtoa@p,??_efgtoa+2
  3180  000CA6  C0C2  F0A3         	movff	efgtoa@p+1,??_efgtoa+3
  3181  000CAA  51A0               	movf	??_efgtoa& (0+255),w,b
  3182  000CAC  27A2               	addwf	(??_efgtoa+2)& (0+255),f,b
  3183  000CAE  51A1               	movf	(??_efgtoa+1)& (0+255),w,b
  3184  000CB0  23A3               	addwfc	(??_efgtoa+3)& (0+255),f,b
  3185  000CB2  51D5               	movf	efgtoa@e& (0+255),w,b
  3186  000CB4  5DA2               	subwf	(??_efgtoa+2)& (0+255),w,b
  3187  000CB6  51A3               	movf	(??_efgtoa+3)& (0+255),w,b
  3188  000CB8  0A80               	xorlw	128
  3189  000CBA  6FA4               	movwf	(??_efgtoa+4)& (0+255),b
  3190  000CBC  51D6               	movf	(efgtoa@e+1)& (0+255),w,b
  3191  000CBE  0A80               	xorlw	128
  3192  000CC0  59A4               	subwfb	(??_efgtoa+4)& (0+255),w,b
  3193  000CC2  A0D8               	btfss	status,0,c
  3194  000CC4  EF66  F006         	goto	u8001
  3195  000CC8  EF68  F006         	goto	u8000
  3196  000CCC                     u8001:
  3197  000CCC  EF6C  F006         	goto	l5655
  3198  000CD0                     u8000:
  3199  000CD0                     
  3200                           ; BSR set to: 0
  3201                           ;C:\Program Files\Microchip\xc8\v2.32\pic\sources\c99\common\doprnt.c: 404:             
      +                          nmode = 'f';
  3202  000CD0  0E66               	movlw	102
  3203  000CD2  6FC5               	movwf	efgtoa@nmode& (0+255),b
  3204                           
  3205                           ;C:\Program Files\Microchip\xc8\v2.32\pic\sources\c99\common\doprnt.c: 405:         } el
      +                          se {
  3206  000CD4  EF6E  F006         	goto	l5657
  3207  000CD8                     l5655:
  3208                           
  3209                           ; BSR set to: 0
  3210                           ;C:\Program Files\Microchip\xc8\v2.32\pic\sources\c99\common\doprnt.c: 406:             
      +                          nmode = 'e';
  3211  000CD8  0E65               	movlw	101
  3212  000CDA  6FC5               	movwf	efgtoa@nmode& (0+255),b
  3213  000CDC                     l5657:
  3214                           
  3215                           ; BSR set to: 0
  3216                           ;C:\Program Files\Microchip\xc8\v2.32\pic\sources\c99\common\doprnt.c: 411:     m = p;
  3217  000CDC  C0C1  F0B7         	movff	efgtoa@p,efgtoa@m
  3218  000CE0  C0C2  F0B8         	movff	efgtoa@p+1,efgtoa@m+1
  3219  000CE4                     
  3220                           ; BSR set to: 0
  3221                           ;C:\Program Files\Microchip\xc8\v2.32\pic\sources\c99\common\doprnt.c: 412:     if (!(mo
      +                          de == 'g') || ((nmode == 'f') && (e < 0))) {
  3222  000CE4  0E67               	movlw	103
  3223  000CE6  19C6               	xorwf	efgtoa@mode& (0+255),w,b
  3224  000CE8  A4D8               	btfss	status,2,c
  3225  000CEA  EF79  F006         	goto	u8011
  3226  000CEE  EF7B  F006         	goto	u8010
  3227  000CF2                     u8011:
  3228  000CF2  EF8B  F006         	goto	l5665
  3229  000CF6                     u8010:
  3230  000CF6                     
  3231                           ; BSR set to: 0
  3232  000CF6  0E66               	movlw	102
  3233  000CF8  19C5               	xorwf	efgtoa@nmode& (0+255),w,b
  3234  000CFA  A4D8               	btfss	status,2,c
  3235  000CFC  EF82  F006         	goto	u8021
  3236  000D00  EF84  F006         	goto	u8020
  3237  000D04                     u8021:
  3238  000D04  EF8D  F006         	goto	l5667
  3239  000D08                     u8020:
  3240  000D08                     
  3241                           ; BSR set to: 0
  3242  000D08  BFD6               	btfsc	(efgtoa@e+1)& (0+255),7,b
  3243  000D0A  EF8B  F006         	goto	u8030
  3244  000D0E  EF89  F006         	goto	u8031
  3245  000D12                     u8031:
  3246  000D12  EF8D  F006         	goto	l5667
  3247  000D16                     u8030:
  3248  000D16                     l5665:
  3249                           
  3250                           ; BSR set to: 0
  3251                           ;C:\Program Files\Microchip\xc8\v2.32\pic\sources\c99\common\doprnt.c: 413:         ++m;
  3252  000D16  4BB7               	infsnz	efgtoa@m& (0+255),f,b
  3253  000D18  2BB8               	incf	(efgtoa@m+1)& (0+255),f,b
  3254  000D1A                     l5667:
  3255                           
  3256                           ; BSR set to: 0
  3257                           ;C:\Program Files\Microchip\xc8\v2.32\pic\sources\c99\common\doprnt.c: 417:     if (nmod
      +                          e == 'f') {
  3258  000D1A  0E66               	movlw	102
  3259  000D1C  19C5               	xorwf	efgtoa@nmode& (0+255),w,b
  3260  000D1E  A4D8               	btfss	status,2,c
  3261  000D20  EF94  F006         	goto	u8041
  3262  000D24  EF96  F006         	goto	u8040
  3263  000D28                     u8041:
  3264  000D28  EFB6  F006         	goto	l5677
  3265  000D2C                     u8040:
  3266  000D2C                     
  3267                           ; BSR set to: 0
  3268                           ;C:\Program Files\Microchip\xc8\v2.32\pic\sources\c99\common\doprnt.c: 418:         if (
      +                          e < 0) {
  3269  000D2C  BFD6               	btfsc	(efgtoa@e+1)& (0+255),7,b
  3270  000D2E  EF9D  F006         	goto	u8050
  3271  000D32  EF9B  F006         	goto	u8051
  3272  000D36                     u8051:
  3273  000D36  EFA9  F006         	goto	l5673
  3274  000D3A                     u8050:
  3275  000D3A                     
  3276                           ; BSR set to: 0
  3277                           ;C:\Program Files\Microchip\xc8\v2.32\pic\sources\c99\common\doprnt.c: 419:             
      +                          u = 1.0;
  3278  000D3A  0E00               	movlw	0
  3279  000D3C  6FD9               	movwf	efgtoa@u& (0+255),b
  3280  000D3E  0E00               	movlw	0
  3281  000D40  6FDA               	movwf	(efgtoa@u+1)& (0+255),b
  3282  000D42  0E80               	movlw	128
  3283  000D44  6FDB               	movwf	(efgtoa@u+2)& (0+255),b
  3284  000D46  0E3F               	movlw	63
  3285  000D48  6FDC               	movwf	(efgtoa@u+3)& (0+255),b
  3286                           
  3287                           ;C:\Program Files\Microchip\xc8\v2.32\pic\sources\c99\common\doprnt.c: 420:             
      +                          e = 0;
  3288  000D4A  0E00               	movlw	0
  3289  000D4C  6FD6               	movwf	(efgtoa@e+1)& (0+255),b
  3290  000D4E  0E00               	movlw	0
  3291  000D50  6FD5               	movwf	efgtoa@e& (0+255),b
  3292  000D52                     l5673:
  3293                           
  3294                           ; BSR set to: 0
  3295                           ;C:\Program Files\Microchip\xc8\v2.32\pic\sources\c99\common\doprnt.c: 422:         if (
      +                          !(mode == 'g')) {
  3296  000D52  0E67               	movlw	103
  3297  000D54  19C6               	xorwf	efgtoa@mode& (0+255),w,b
  3298  000D56  B4D8               	btfsc	status,2,c
  3299  000D58  EFB0  F006         	goto	u8061
  3300  000D5C  EFB2  F006         	goto	u8060
  3301  000D60                     u8061:
  3302  000D60  EFB6  F006         	goto	l5677
  3303  000D64                     u8060:
  3304  000D64                     
  3305                           ; BSR set to: 0
  3306                           ;C:\Program Files\Microchip\xc8\v2.32\pic\sources\c99\common\doprnt.c: 423:             
      +                          m += e;
  3307  000D64  51D5               	movf	efgtoa@e& (0+255),w,b
  3308  000D66  27B7               	addwf	efgtoa@m& (0+255),f,b
  3309  000D68  51D6               	movf	(efgtoa@e+1)& (0+255),w,b
  3310  000D6A  23B8               	addwfc	(efgtoa@m+1)& (0+255),f,b
  3311  000D6C                     l5677:
  3312                           
  3313                           ; BSR set to: 0
  3314                           ;C:\Program Files\Microchip\xc8\v2.32\pic\sources\c99\common\doprnt.c: 428:     i = 0;
  3315  000D6C  0E00               	movlw	0
  3316  000D6E  6FD0               	movwf	(efgtoa@i+1)& (0+255),b
  3317  000D70  0E00               	movlw	0
  3318  000D72  6FCF               	movwf	efgtoa@i& (0+255),b
  3319  000D74                     
  3320                           ; BSR set to: 0
  3321                           ;C:\Program Files\Microchip\xc8\v2.32\pic\sources\c99\common\doprnt.c: 429:     h = g;
  3322  000D74  C0D1  F0C7         	movff	efgtoa@g,efgtoa@h
  3323  000D78  C0D2  F0C8         	movff	efgtoa@g+1,efgtoa@h+1
  3324  000D7C  C0D3  F0C9         	movff	efgtoa@g+2,efgtoa@h+2
  3325  000D80  C0D4  F0CA         	movff	efgtoa@g+3,efgtoa@h+3
  3326  000D84                     
  3327                           ; BSR set to: 0
  3328                           ;C:\Program Files\Microchip\xc8\v2.32\pic\sources\c99\common\doprnt.c: 430:     ou = u;
  3329  000D84  C0D9  F0B9         	movff	efgtoa@u,efgtoa@ou
  3330  000D88  C0DA  F0BA         	movff	efgtoa@u+1,efgtoa@ou+1
  3331  000D8C  C0DB  F0BB         	movff	efgtoa@u+2,efgtoa@ou+2
  3332  000D90  C0DC  F0BC         	movff	efgtoa@u+3,efgtoa@ou+3
  3333                           
  3334                           ;C:\Program Files\Microchip\xc8\v2.32\pic\sources\c99\common\doprnt.c: 431:     while (i
      +                           < m) {
  3335  000D94  EF48  F007         	goto	l5691
  3336  000D98                     l5683:
  3337                           
  3338                           ; BSR set to: 0
  3339                           ;C:\Program Files\Microchip\xc8\v2.32\pic\sources\c99\common\doprnt.c: 432:         l = 
      +                          floorf(h/u);
  3340  000D98  C0C7  F060         	movff	efgtoa@h,___fldiv@b
  3341  000D9C  C0C8  F061         	movff	efgtoa@h+1,___fldiv@b+1
  3342  000DA0  C0C9  F062         	movff	efgtoa@h+2,___fldiv@b+2
  3343  000DA4  C0CA  F063         	movff	efgtoa@h+3,___fldiv@b+3
  3344  000DA8  C0D9  F064         	movff	efgtoa@u,___fldiv@a
  3345  000DAC  C0DA  F065         	movff	efgtoa@u+1,___fldiv@a+1
  3346  000DB0  C0DB  F066         	movff	efgtoa@u+2,___fldiv@a+2
  3347  000DB4  C0DC  F067         	movff	efgtoa@u+3,___fldiv@a+3
  3348  000DB8  ECEE  F013         	call	___fldiv	;wreg free
  3349  000DBC  C060  F079         	movff	?___fldiv,floorf@x
  3350  000DC0  C061  F07A         	movff	?___fldiv+1,floorf@x+1
  3351  000DC4  C062  F07B         	movff	?___fldiv+2,floorf@x+2
  3352  000DC8  C063  F07C         	movff	?___fldiv+3,floorf@x+3
  3353  000DCC  ECBC  F015         	call	_floorf	;wreg free
  3354  000DD0  C079  F0CB         	movff	?_floorf,efgtoa@l
  3355  000DD4  C07A  F0CC         	movff	?_floorf+1,efgtoa@l+1
  3356  000DD8  C07B  F0CD         	movff	?_floorf+2,efgtoa@l+2
  3357  000DDC  C07C  F0CE         	movff	?_floorf+3,efgtoa@l+3
  3358                           
  3359                           ;C:\Program Files\Microchip\xc8\v2.32\pic\sources\c99\common\doprnt.c: 433:         d = 
      +                          (int)l;
  3360  000DE0  C0CB  F060         	movff	efgtoa@l,___fltol@f1
  3361  000DE4  C0CC  F061         	movff	efgtoa@l+1,___fltol@f1+1
  3362  000DE8  C0CD  F062         	movff	efgtoa@l+2,___fltol@f1+2
  3363  000DEC  C0CE  F063         	movff	efgtoa@l+3,___fltol@f1+3
  3364  000DF0  ECEB  F01A         	call	___fltol	;wreg free
  3365  000DF4  C060  F0BD         	movff	?___fltol,efgtoa@d
  3366  000DF8  C061  F0BE         	movff	?___fltol+1,efgtoa@d+1
  3367  000DFC                     
  3368                           ;C:\Program Files\Microchip\xc8\v2.32\pic\sources\c99\common\doprnt.c: 434:         h -=
      +                           l*u;
  3369  000DFC  C0C7  F08D         	movff	efgtoa@h,___flsub@b
  3370  000E00  C0C8  F08E         	movff	efgtoa@h+1,___flsub@b+1
  3371  000E04  C0C9  F08F         	movff	efgtoa@h+2,___flsub@b+2
  3372  000E08  C0CA  F090         	movff	efgtoa@h+3,___flsub@b+3
  3373  000E0C  C0D9  F078         	movff	efgtoa@u,___flmul@a
  3374  000E10  C0DA  F079         	movff	efgtoa@u+1,___flmul@a+1
  3375  000E14  C0DB  F07A         	movff	efgtoa@u+2,___flmul@a+2
  3376  000E18  C0DC  F07B         	movff	efgtoa@u+3,___flmul@a+3
  3377  000E1C  C0CB  F074         	movff	efgtoa@l,___flmul@b
  3378  000E20  C0CC  F075         	movff	efgtoa@l+1,___flmul@b+1
  3379  000E24  C0CD  F076         	movff	efgtoa@l+2,___flmul@b+2
  3380  000E28  C0CE  F077         	movff	efgtoa@l+3,___flmul@b+3
  3381  000E2C  ECD8  F011         	call	___flmul	;wreg free
  3382  000E30  C074  F091         	movff	?___flmul,___flsub@a
  3383  000E34  C075  F092         	movff	?___flmul+1,___flsub@a+1
  3384  000E38  C076  F093         	movff	?___flmul+2,___flsub@a+2
  3385  000E3C  C077  F094         	movff	?___flmul+3,___flsub@a+3
  3386  000E40  EC13  F022         	call	___flsub	;wreg free
  3387  000E44  C08D  F0C7         	movff	?___flsub,efgtoa@h
  3388  000E48  C08E  F0C8         	movff	?___flsub+1,efgtoa@h+1
  3389  000E4C  C08F  F0C9         	movff	?___flsub+2,efgtoa@h+2
  3390  000E50  C090  F0CA         	movff	?___flsub+3,efgtoa@h+3
  3391  000E54                     
  3392                           ;C:\Program Files\Microchip\xc8\v2.32\pic\sources\c99\common\doprnt.c: 435:         u = 
      +                          u/10.0;
  3393  000E54  C0D9  F060         	movff	efgtoa@u,___fldiv@b
  3394  000E58  C0DA  F061         	movff	efgtoa@u+1,___fldiv@b+1
  3395  000E5C  C0DB  F062         	movff	efgtoa@u+2,___fldiv@b+2
  3396  000E60  C0DC  F063         	movff	efgtoa@u+3,___fldiv@b+3
  3397  000E64  0E00               	movlw	0
  3398  000E66  0100               	movlb	0	; () banked
  3399  000E68  6F64               	movwf	___fldiv@a& (0+255),b
  3400  000E6A  0E00               	movlw	0
  3401  000E6C  6F65               	movwf	(___fldiv@a+1)& (0+255),b
  3402  000E6E  0E20               	movlw	32
  3403  000E70  6F66               	movwf	(___fldiv@a+2)& (0+255),b
  3404  000E72  0E41               	movlw	65
  3405  000E74  6F67               	movwf	(___fldiv@a+3)& (0+255),b
  3406  000E76  ECEE  F013         	call	___fldiv	;wreg free
  3407  000E7A  C060  F0D9         	movff	?___fldiv,efgtoa@u
  3408  000E7E  C061  F0DA         	movff	?___fldiv+1,efgtoa@u+1
  3409  000E82  C062  F0DB         	movff	?___fldiv+2,efgtoa@u+2
  3410  000E86  C063  F0DC         	movff	?___fldiv+3,efgtoa@u+3
  3411  000E8A                     
  3412                           ;C:\Program Files\Microchip\xc8\v2.32\pic\sources\c99\common\doprnt.c: 436:         ++i;
  3413  000E8A  0100               	movlb	0	; () banked
  3414  000E8C  4BCF               	infsnz	efgtoa@i& (0+255),f,b
  3415  000E8E  2BD0               	incf	(efgtoa@i+1)& (0+255),f,b
  3416  000E90                     l5691:
  3417                           
  3418                           ; BSR set to: 0
  3419                           ;C:\Program Files\Microchip\xc8\v2.32\pic\sources\c99\common\doprnt.c: 431:     while (i
      +                           < m) {
  3420  000E90  51B7               	movf	efgtoa@m& (0+255),w,b
  3421  000E92  5DCF               	subwf	efgtoa@i& (0+255),w,b
  3422  000E94  51D0               	movf	(efgtoa@i+1)& (0+255),w,b
  3423  000E96  0A80               	xorlw	128
  3424  000E98  6FA0               	movwf	??_efgtoa& (0+255),b
  3425  000E9A  51B8               	movf	(efgtoa@m+1)& (0+255),w,b
  3426  000E9C  0A80               	xorlw	128
  3427  000E9E  59A0               	subwfb	??_efgtoa& (0+255),w,b
  3428  000EA0  A0D8               	btfss	status,0,c
  3429  000EA2  EF55  F007         	goto	u8071
  3430  000EA6  EF57  F007         	goto	u8070
  3431  000EAA                     u8071:
  3432  000EAA  EFCC  F006         	goto	l5683
  3433  000EAE                     u8070:
  3434  000EAE                     
  3435                           ; BSR set to: 0
  3436                           ;C:\Program Files\Microchip\xc8\v2.32\pic\sources\c99\common\doprnt.c: 440:     l = u*5.
      +                          0;
  3437  000EAE  C0D9  F074         	movff	efgtoa@u,___flmul@b
  3438  000EB2  C0DA  F075         	movff	efgtoa@u+1,___flmul@b+1
  3439  000EB6  C0DB  F076         	movff	efgtoa@u+2,___flmul@b+2
  3440  000EBA  C0DC  F077         	movff	efgtoa@u+3,___flmul@b+3
  3441  000EBE  0E00               	movlw	0
  3442  000EC0  6F78               	movwf	___flmul@a& (0+255),b
  3443  000EC2  0E00               	movlw	0
  3444  000EC4  6F79               	movwf	(___flmul@a+1)& (0+255),b
  3445  000EC6  0EA0               	movlw	160
  3446  000EC8  6F7A               	movwf	(___flmul@a+2)& (0+255),b
  3447  000ECA  0E40               	movlw	64
  3448  000ECC  6F7B               	movwf	(___flmul@a+3)& (0+255),b
  3449  000ECE  ECD8  F011         	call	___flmul	;wreg free
  3450  000ED2  C074  F0CB         	movff	?___flmul,efgtoa@l
  3451  000ED6  C075  F0CC         	movff	?___flmul+1,efgtoa@l+1
  3452  000EDA  C076  F0CD         	movff	?___flmul+2,efgtoa@l+2
  3453  000EDE  C077  F0CE         	movff	?___flmul+3,efgtoa@l+3
  3454  000EE2                     
  3455                           ;C:\Program Files\Microchip\xc8\v2.32\pic\sources\c99\common\doprnt.c: 441:     if (h < 
      +                          l) {
  3456  000EE2  C0C7  F08D         	movff	efgtoa@h,___flge@ff1
  3457  000EE6  C0C8  F08E         	movff	efgtoa@h+1,___flge@ff1+1
  3458  000EEA  C0C9  F08F         	movff	efgtoa@h+2,___flge@ff1+2
  3459  000EEE  C0CA  F090         	movff	efgtoa@h+3,___flge@ff1+3
  3460  000EF2  C0CB  F091         	movff	efgtoa@l,___flge@ff2
  3461  000EF6  C0CC  F092         	movff	efgtoa@l+1,___flge@ff2+1
  3462  000EFA  C0CD  F093         	movff	efgtoa@l+2,___flge@ff2+2
  3463  000EFE  C0CE  F094         	movff	efgtoa@l+3,___flge@ff2+3
  3464  000F02  EC6F  F01B         	call	___flge	;wreg free
  3465  000F06  0100               	movlb	0	; () banked
  3466  000F08  B0D8               	btfsc	status,0,c
  3467  000F0A  EF89  F007         	goto	u8081
  3468  000F0E  EF8B  F007         	goto	u8080
  3469  000F12                     u8081:
  3470  000F12  EF95  F007         	goto	l5699
  3471  000F16                     u8080:
  3472  000F16                     
  3473                           ; BSR set to: 0
  3474                           ;C:\Program Files\Microchip\xc8\v2.32\pic\sources\c99\common\doprnt.c: 442:         l = 
      +                          0.0;
  3475  000F16  0E00               	movlw	0
  3476  000F18  6FCB               	movwf	efgtoa@l& (0+255),b
  3477  000F1A  0E00               	movlw	0
  3478  000F1C  6FCC               	movwf	(efgtoa@l+1)& (0+255),b
  3479  000F1E  0E00               	movlw	0
  3480  000F20  6FCD               	movwf	(efgtoa@l+2)& (0+255),b
  3481  000F22  0E00               	movlw	0
  3482  000F24  6FCE               	movwf	(efgtoa@l+3)& (0+255),b
  3483                           
  3484                           ;C:\Program Files\Microchip\xc8\v2.32\pic\sources\c99\common\doprnt.c: 443:     } else {
  3485  000F26  EFBE  F007         	goto	l5705
  3486  000F2A                     l5699:
  3487                           
  3488                           ; BSR set to: 0
  3489                           ;C:\Program Files\Microchip\xc8\v2.32\pic\sources\c99\common\doprnt.c: 445:         if (
      +                          (h == l) && !(d % 2)) {
  3490  000F2A  C0C7  F060         	movff	efgtoa@h,___fleq@ff1
  3491  000F2E  C0C8  F061         	movff	efgtoa@h+1,___fleq@ff1+1
  3492  000F32  C0C9  F062         	movff	efgtoa@h+2,___fleq@ff1+2
  3493  000F36  C0CA  F063         	movff	efgtoa@h+3,___fleq@ff1+3
  3494  000F3A  C0CB  F064         	movff	efgtoa@l,___fleq@ff2
  3495  000F3E  C0CC  F065         	movff	efgtoa@l+1,___fleq@ff2+1
  3496  000F42  C0CD  F066         	movff	efgtoa@l+2,___fleq@ff2+2
  3497  000F46  C0CE  F067         	movff	efgtoa@l+3,___fleq@ff2+3
  3498  000F4A  ECBC  F01F         	call	___fleq	;wreg free
  3499  000F4E  0100               	movlb	0	; () banked
  3500  000F50  A0D8               	btfss	status,0,c
  3501  000F52  EFAD  F007         	goto	u8091
  3502  000F56  EFAF  F007         	goto	u8090
  3503  000F5A                     u8091:
  3504  000F5A  EFBE  F007         	goto	l5705
  3505  000F5E                     u8090:
  3506  000F5E                     
  3507                           ; BSR set to: 0
  3508  000F5E  B1BD               	btfsc	efgtoa@d& (0+255),0,b
  3509  000F60  EFB4  F007         	goto	u8101
  3510  000F64  EFB6  F007         	goto	u8100
  3511  000F68                     u8101:
  3512  000F68  EFBE  F007         	goto	l5705
  3513  000F6C                     u8100:
  3514  000F6C                     
  3515                           ; BSR set to: 0
  3516                           ;C:\Program Files\Microchip\xc8\v2.32\pic\sources\c99\common\doprnt.c: 446:             
      +                          l = 0.0;
  3517  000F6C  0E00               	movlw	0
  3518  000F6E  6FCB               	movwf	efgtoa@l& (0+255),b
  3519  000F70  0E00               	movlw	0
  3520  000F72  6FCC               	movwf	(efgtoa@l+1)& (0+255),b
  3521  000F74  0E00               	movlw	0
  3522  000F76  6FCD               	movwf	(efgtoa@l+2)& (0+255),b
  3523  000F78  0E00               	movlw	0
  3524  000F7A  6FCE               	movwf	(efgtoa@l+3)& (0+255),b
  3525  000F7C                     l5705:
  3526                           
  3527                           ; BSR set to: 0
  3528                           ;C:\Program Files\Microchip\xc8\v2.32\pic\sources\c99\common\doprnt.c: 451:     h = g + 
      +                          l;
  3529  000F7C  C0D1  F060         	movff	efgtoa@g,___fladd@b
  3530  000F80  C0D2  F061         	movff	efgtoa@g+1,___fladd@b+1
  3531  000F84  C0D3  F062         	movff	efgtoa@g+2,___fladd@b+2
  3532  000F88  C0D4  F063         	movff	efgtoa@g+3,___fladd@b+3
  3533  000F8C  C0CB  F064         	movff	efgtoa@l,___fladd@a
  3534  000F90  C0CC  F065         	movff	efgtoa@l+1,___fladd@a+1
  3535  000F94  C0CD  F066         	movff	efgtoa@l+2,___fladd@a+2
  3536  000F98  C0CE  F067         	movff	efgtoa@l+3,___fladd@a+3
  3537  000F9C  EC17  F00D         	call	___fladd	;wreg free
  3538  000FA0  C060  F0C7         	movff	?___fladd,efgtoa@h
  3539  000FA4  C061  F0C8         	movff	?___fladd+1,efgtoa@h+1
  3540  000FA8  C062  F0C9         	movff	?___fladd+2,efgtoa@h+2
  3541  000FAC  C063  F0CA         	movff	?___fladd+3,efgtoa@h+3
  3542  000FB0                     
  3543                           ;C:\Program Files\Microchip\xc8\v2.32\pic\sources\c99\common\doprnt.c: 453:  if (h >= (o
      +                          u*10.0)) {
  3544  000FB0  C0C7  F08D         	movff	efgtoa@h,___flge@ff1
  3545  000FB4  C0C8  F08E         	movff	efgtoa@h+1,___flge@ff1+1
  3546  000FB8  C0C9  F08F         	movff	efgtoa@h+2,___flge@ff1+2
  3547  000FBC  C0CA  F090         	movff	efgtoa@h+3,___flge@ff1+3
  3548  000FC0  0E00               	movlw	0
  3549  000FC2  0100               	movlb	0	; () banked
  3550  000FC4  6F78               	movwf	___flmul@a& (0+255),b
  3551  000FC6  0E00               	movlw	0
  3552  000FC8  6F79               	movwf	(___flmul@a+1)& (0+255),b
  3553  000FCA  0E20               	movlw	32
  3554  000FCC  6F7A               	movwf	(___flmul@a+2)& (0+255),b
  3555  000FCE  0E41               	movlw	65
  3556  000FD0  6F7B               	movwf	(___flmul@a+3)& (0+255),b
  3557  000FD2  C0B9  F074         	movff	efgtoa@ou,___flmul@b
  3558  000FD6  C0BA  F075         	movff	efgtoa@ou+1,___flmul@b+1
  3559  000FDA  C0BB  F076         	movff	efgtoa@ou+2,___flmul@b+2
  3560  000FDE  C0BC  F077         	movff	efgtoa@ou+3,___flmul@b+3
  3561  000FE2  ECD8  F011         	call	___flmul	;wreg free
  3562  000FE6  C074  F091         	movff	?___flmul,___flge@ff2
  3563  000FEA  C075  F092         	movff	?___flmul+1,___flge@ff2+1
  3564  000FEE  C076  F093         	movff	?___flmul+2,___flge@ff2+2
  3565  000FF2  C077  F094         	movff	?___flmul+3,___flge@ff2+3
  3566  000FF6  EC6F  F01B         	call	___flge	;wreg free
  3567  000FFA  0100               	movlb	0	; () banked
  3568  000FFC  A0D8               	btfss	status,0,c
  3569  000FFE  EF03  F008         	goto	u8111
  3570  001002  EF05  F008         	goto	u8110
  3571  001006                     u8111:
  3572  001006  EF2D  F008         	goto	l5717
  3573  00100A                     u8110:
  3574  00100A                     
  3575                           ; BSR set to: 0
  3576                           ;C:\Program Files\Microchip\xc8\v2.32\pic\sources\c99\common\doprnt.c: 454:   e++;
  3577  00100A  4BD5               	infsnz	efgtoa@e& (0+255),f,b
  3578  00100C  2BD6               	incf	(efgtoa@e+1)& (0+255),f,b
  3579  00100E                     
  3580                           ; BSR set to: 0
  3581                           ;C:\Program Files\Microchip\xc8\v2.32\pic\sources\c99\common\doprnt.c: 455:   ou *= 10.0
      +                          ;
  3582  00100E  C0B9  F074         	movff	efgtoa@ou,___flmul@b
  3583  001012  C0BA  F075         	movff	efgtoa@ou+1,___flmul@b+1
  3584  001016  C0BB  F076         	movff	efgtoa@ou+2,___flmul@b+2
  3585  00101A  C0BC  F077         	movff	efgtoa@ou+3,___flmul@b+3
  3586  00101E  0E00               	movlw	0
  3587  001020  6F78               	movwf	___flmul@a& (0+255),b
  3588  001022  0E00               	movlw	0
  3589  001024  6F79               	movwf	(___flmul@a+1)& (0+255),b
  3590  001026  0E20               	movlw	32
  3591  001028  6F7A               	movwf	(___flmul@a+2)& (0+255),b
  3592  00102A  0E41               	movlw	65
  3593  00102C  6F7B               	movwf	(___flmul@a+3)& (0+255),b
  3594  00102E  ECD8  F011         	call	___flmul	;wreg free
  3595  001032  C074  F0B9         	movff	?___flmul,efgtoa@ou
  3596  001036  C075  F0BA         	movff	?___flmul+1,efgtoa@ou+1
  3597  00103A  C076  F0BB         	movff	?___flmul+2,efgtoa@ou+2
  3598  00103E  C077  F0BC         	movff	?___flmul+3,efgtoa@ou+3
  3599  001042                     
  3600                           ;C:\Program Files\Microchip\xc8\v2.32\pic\sources\c99\common\doprnt.c: 456:   if (nmode 
      +                          == 'f') {
  3601  001042  0E66               	movlw	102
  3602  001044  0100               	movlb	0	; () banked
  3603  001046  19C5               	xorwf	efgtoa@nmode& (0+255),w,b
  3604  001048  A4D8               	btfss	status,2,c
  3605  00104A  EF29  F008         	goto	u8121
  3606  00104E  EF2B  F008         	goto	u8120
  3607  001052                     u8121:
  3608  001052  EF2D  F008         	goto	l5717
  3609  001056                     u8120:
  3610  001056                     
  3611                           ; BSR set to: 0
  3612                           ;C:\Program Files\Microchip\xc8\v2.32\pic\sources\c99\common\doprnt.c: 458:    m++;
  3613  001056  4BB7               	infsnz	efgtoa@m& (0+255),f,b
  3614  001058  2BB8               	incf	(efgtoa@m+1)& (0+255),f,b
  3615  00105A                     l5717:
  3616                           
  3617                           ; BSR set to: 0
  3618                           ;C:\Program Files\Microchip\xc8\v2.32\pic\sources\c99\common\doprnt.c: 463:     u = ou;
  3619  00105A  C0B9  F0D9         	movff	efgtoa@ou,efgtoa@u
  3620  00105E  C0BA  F0DA         	movff	efgtoa@ou+1,efgtoa@u+1
  3621  001062  C0BB  F0DB         	movff	efgtoa@ou+2,efgtoa@u+2
  3622  001066  C0BC  F0DC         	movff	efgtoa@ou+3,efgtoa@u+3
  3623  00106A                     
  3624                           ; BSR set to: 0
  3625                           ;C:\Program Files\Microchip\xc8\v2.32\pic\sources\c99\common\doprnt.c: 464:     ne = (nm
      +                          ode == 'e') ? 0 : e;
  3626  00106A  0E65               	movlw	101
  3627  00106C  19C5               	xorwf	efgtoa@nmode& (0+255),w,b
  3628  00106E  B4D8               	btfsc	status,2,c
  3629  001070  EF3C  F008         	goto	u8131
  3630  001074  EF3E  F008         	goto	u8130
  3631  001078                     u8131:
  3632  001078  EF44  F008         	goto	l5723
  3633  00107C                     u8130:
  3634  00107C                     
  3635                           ; BSR set to: 0
  3636  00107C  C0D5  F0B5         	movff	efgtoa@e,efgtoa@ne
  3637  001080  C0D6  F0B6         	movff	efgtoa@e+1,efgtoa@ne+1
  3638  001084  EF48  F008         	goto	l917
  3639  001088                     l5723:
  3640                           
  3641                           ; BSR set to: 0
  3642  001088  0E00               	movlw	0
  3643  00108A  6FB6               	movwf	(efgtoa@ne+1)& (0+255),b
  3644  00108C  0E00               	movlw	0
  3645  00108E  6FB5               	movwf	efgtoa@ne& (0+255),b
  3646  001090                     l917:
  3647                           
  3648                           ; BSR set to: 0
  3649                           ;C:\Program Files\Microchip\xc8\v2.32\pic\sources\c99\common\doprnt.c: 465:     pp = 0;
  3650  001090  0E00               	movlw	0
  3651  001092  6FB4               	movwf	(efgtoa@pp+1)& (0+255),b
  3652  001094  0E00               	movlw	0
  3653  001096  6FB3               	movwf	efgtoa@pp& (0+255),b
  3654                           
  3655                           ;C:\Program Files\Microchip\xc8\v2.32\pic\sources\c99\common\doprnt.c: 466:     t = 0;
  3656  001098  0E00               	movlw	0
  3657  00109A  6FB2               	movwf	(efgtoa@t+1)& (0+255),b
  3658  00109C  0E00               	movlw	0
  3659  00109E  6FB1               	movwf	efgtoa@t& (0+255),b
  3660                           
  3661                           ;C:\Program Files\Microchip\xc8\v2.32\pic\sources\c99\common\doprnt.c: 467:     i = 0;
  3662  0010A0  0E00               	movlw	0
  3663  0010A2  6FD0               	movwf	(efgtoa@i+1)& (0+255),b
  3664  0010A4  0E00               	movlw	0
  3665  0010A6  6FCF               	movwf	efgtoa@i& (0+255),b
  3666                           
  3667                           ;C:\Program Files\Microchip\xc8\v2.32\pic\sources\c99\common\doprnt.c: 468:     while ((
      +                          i < m) && (n < (80 - 5))) {
  3668  0010A8  EF45  F009         	goto	l5773
  3669  0010AC                     l5725:
  3670                           
  3671                           ; BSR set to: 0
  3672                           ;C:\Program Files\Microchip\xc8\v2.32\pic\sources\c99\common\doprnt.c: 469:         l = 
      +                          floorf(h/u);
  3673  0010AC  C0C7  F060         	movff	efgtoa@h,___fldiv@b
  3674  0010B0  C0C8  F061         	movff	efgtoa@h+1,___fldiv@b+1
  3675  0010B4  C0C9  F062         	movff	efgtoa@h+2,___fldiv@b+2
  3676  0010B8  C0CA  F063         	movff	efgtoa@h+3,___fldiv@b+3
  3677  0010BC  C0D9  F064         	movff	efgtoa@u,___fldiv@a
  3678  0010C0  C0DA  F065         	movff	efgtoa@u+1,___fldiv@a+1
  3679  0010C4  C0DB  F066         	movff	efgtoa@u+2,___fldiv@a+2
  3680  0010C8  C0DC  F067         	movff	efgtoa@u+3,___fldiv@a+3
  3681  0010CC  ECEE  F013         	call	___fldiv	;wreg free
  3682  0010D0  C060  F079         	movff	?___fldiv,floorf@x
  3683  0010D4  C061  F07A         	movff	?___fldiv+1,floorf@x+1
  3684  0010D8  C062  F07B         	movff	?___fldiv+2,floorf@x+2
  3685  0010DC  C063  F07C         	movff	?___fldiv+3,floorf@x+3
  3686  0010E0  ECBC  F015         	call	_floorf	;wreg free
  3687  0010E4  C079  F0CB         	movff	?_floorf,efgtoa@l
  3688  0010E8  C07A  F0CC         	movff	?_floorf+1,efgtoa@l+1
  3689  0010EC  C07B  F0CD         	movff	?_floorf+2,efgtoa@l+2
  3690  0010F0  C07C  F0CE         	movff	?_floorf+3,efgtoa@l+3
  3691                           
  3692                           ;C:\Program Files\Microchip\xc8\v2.32\pic\sources\c99\common\doprnt.c: 470:         d = 
      +                          (int)l;
  3693  0010F4  C0CB  F060         	movff	efgtoa@l,___fltol@f1
  3694  0010F8  C0CC  F061         	movff	efgtoa@l+1,___fltol@f1+1
  3695  0010FC  C0CD  F062         	movff	efgtoa@l+2,___fltol@f1+2
  3696  001100  C0CE  F063         	movff	efgtoa@l+3,___fltol@f1+3
  3697  001104  ECEB  F01A         	call	___fltol	;wreg free
  3698  001108  C060  F0BD         	movff	?___fltol,efgtoa@d
  3699  00110C  C061  F0BE         	movff	?___fltol+1,efgtoa@d+1
  3700  001110                     
  3701                           ;C:\Program Files\Microchip\xc8\v2.32\pic\sources\c99\common\doprnt.c: 471:         if (
      +                          !(flags & (1 << 4)) && !d && (mode == 'g') && (ne < 0)) {
  3702  001110  B82F               	btfsc	_flags^0,4,c
  3703  001112  EF8D  F008         	goto	u8141
  3704  001116  EF8F  F008         	goto	u8140
  3705  00111A                     u8141:
  3706  00111A  EFAD  F008         	goto	l5737
  3707  00111E                     u8140:
  3708  00111E  0100               	movlb	0	; () banked
  3709  001120  51BD               	movf	efgtoa@d& (0+255),w,b
  3710  001122  11BE               	iorwf	(efgtoa@d+1)& (0+255),w,b
  3711  001124  A4D8               	btfss	status,2,c
  3712  001126  EF97  F008         	goto	u8151
  3713  00112A  EF99  F008         	goto	u8150
  3714  00112E                     u8151:
  3715  00112E  EFAD  F008         	goto	l5737
  3716  001132                     u8150:
  3717  001132                     
  3718                           ; BSR set to: 0
  3719  001132  0E67               	movlw	103
  3720  001134  19C6               	xorwf	efgtoa@mode& (0+255),w,b
  3721  001136  A4D8               	btfss	status,2,c
  3722  001138  EFA0  F008         	goto	u8161
  3723  00113C  EFA2  F008         	goto	u8160
  3724  001140                     u8161:
  3725  001140  EFAD  F008         	goto	l5737
  3726  001144                     u8160:
  3727  001144                     
  3728                           ; BSR set to: 0
  3729  001144  BFB6               	btfsc	(efgtoa@ne+1)& (0+255),7,b
  3730  001146  EFA9  F008         	goto	u8170
  3731  00114A  EFA7  F008         	goto	u8171
  3732  00114E                     u8171:
  3733  00114E  EFAD  F008         	goto	l5737
  3734  001152                     u8170:
  3735  001152                     
  3736                           ; BSR set to: 0
  3737                           ;C:\Program Files\Microchip\xc8\v2.32\pic\sources\c99\common\doprnt.c: 472:             
      +                          ++t;
  3738  001152  4BB1               	infsnz	efgtoa@t& (0+255),f,b
  3739  001154  2BB2               	incf	(efgtoa@t+1)& (0+255),f,b
  3740                           
  3741                           ;C:\Program Files\Microchip\xc8\v2.32\pic\sources\c99\common\doprnt.c: 473:         } el
      +                          se {
  3742  001156  EFF8  F008         	goto	l5765
  3743  00115A                     l5737:
  3744                           
  3745                           ;C:\Program Files\Microchip\xc8\v2.32\pic\sources\c99\common\doprnt.c: 474:             
      +                          if (!pp && (ne < 0)) {
  3746  00115A  0100               	movlb	0	; () banked
  3747  00115C  51B3               	movf	efgtoa@pp& (0+255),w,b
  3748  00115E  11B4               	iorwf	(efgtoa@pp+1)& (0+255),w,b
  3749  001160  A4D8               	btfss	status,2,c
  3750  001162  EFB5  F008         	goto	u8181
  3751  001166  EFB7  F008         	goto	u8180
  3752  00116A                     u8181:
  3753  00116A  EFE1  F008         	goto	l5757
  3754  00116E                     u8180:
  3755  00116E                     
  3756                           ; BSR set to: 0
  3757  00116E  BFB6               	btfsc	(efgtoa@ne+1)& (0+255),7,b
  3758  001170  EFBE  F008         	goto	u8190
  3759  001174  EFBC  F008         	goto	u8191
  3760  001178                     u8191:
  3761  001178  EFE1  F008         	goto	l5757
  3762  00117C                     u8190:
  3763  00117C                     
  3764                           ; BSR set to: 0
  3765                           ;C:\Program Files\Microchip\xc8\v2.32\pic\sources\c99\common\doprnt.c: 475:             
      +                              dbuf[n++] = '.';
  3766  00117C  0E00               	movlw	low _dbuf
  3767  00117E  25D7               	addwf	efgtoa@n& (0+255),w,b
  3768  001180  6ED9               	movwf	fsr2l,c
  3769  001182  0E01               	movlw	high _dbuf
  3770  001184  21D8               	addwfc	(efgtoa@n+1)& (0+255),w,b
  3771  001186  6EDA               	movwf	fsr2h,c
  3772  001188  0E2E               	movlw	46
  3773  00118A  6EDF               	movwf	indf2,c
  3774  00118C                     
  3775                           ; BSR set to: 0
  3776  00118C  4BD7               	infsnz	efgtoa@n& (0+255),f,b
  3777  00118E  2BD8               	incf	(efgtoa@n+1)& (0+255),f,b
  3778  001190                     
  3779                           ; BSR set to: 0
  3780                           ;C:\Program Files\Microchip\xc8\v2.32\pic\sources\c99\common\doprnt.c: 476:             
      +                              --w;
  3781  001190  07C3               	decf	efgtoa@w& (0+255),f,b
  3782  001192  A0D8               	btfss	status,0,c
  3783  001194  07C4               	decf	(efgtoa@w+1)& (0+255),f,b
  3784  001196                     
  3785                           ; BSR set to: 0
  3786                           ;C:\Program Files\Microchip\xc8\v2.32\pic\sources\c99\common\doprnt.c: 477:             
      +                              pp = 1;
  3787  001196  0E00               	movlw	0
  3788  001198  6FB4               	movwf	(efgtoa@pp+1)& (0+255),b
  3789  00119A  0E01               	movlw	1
  3790  00119C  6FB3               	movwf	efgtoa@pp& (0+255),b
  3791  00119E  EFE1  F008         	goto	l5757
  3792  0011A2                     l5749:
  3793                           
  3794                           ; BSR set to: 0
  3795                           ;C:\Program Files\Microchip\xc8\v2.32\pic\sources\c99\common\doprnt.c: 480:             
      +                              dbuf[n++] = '0';
  3796  0011A2  0E00               	movlw	low _dbuf
  3797  0011A4  25D7               	addwf	efgtoa@n& (0+255),w,b
  3798  0011A6  6ED9               	movwf	fsr2l,c
  3799  0011A8  0E01               	movlw	high _dbuf
  3800  0011AA  21D8               	addwfc	(efgtoa@n+1)& (0+255),w,b
  3801  0011AC  6EDA               	movwf	fsr2h,c
  3802  0011AE  0E30               	movlw	48
  3803  0011B0  6EDF               	movwf	indf2,c
  3804  0011B2                     
  3805                           ; BSR set to: 0
  3806  0011B2  4BD7               	infsnz	efgtoa@n& (0+255),f,b
  3807  0011B4  2BD8               	incf	(efgtoa@n+1)& (0+255),f,b
  3808  0011B6                     
  3809                           ; BSR set to: 0
  3810                           ;C:\Program Files\Microchip\xc8\v2.32\pic\sources\c99\common\doprnt.c: 481:             
      +                              --w;
  3811  0011B6  07C3               	decf	efgtoa@w& (0+255),f,b
  3812  0011B8  A0D8               	btfss	status,0,c
  3813  0011BA  07C4               	decf	(efgtoa@w+1)& (0+255),f,b
  3814  0011BC                     
  3815                           ; BSR set to: 0
  3816                           ;C:\Program Files\Microchip\xc8\v2.32\pic\sources\c99\common\doprnt.c: 482:             
      +                              --t;
  3817  0011BC  07B1               	decf	efgtoa@t& (0+255),f,b
  3818  0011BE  A0D8               	btfss	status,0,c
  3819  0011C0  07B2               	decf	(efgtoa@t+1)& (0+255),f,b
  3820  0011C2                     l5757:
  3821                           
  3822                           ; BSR set to: 0
  3823                           ;C:\Program Files\Microchip\xc8\v2.32\pic\sources\c99\common\doprnt.c: 479:             
      +                          while (t) {
  3824  0011C2  51B1               	movf	efgtoa@t& (0+255),w,b
  3825  0011C4  11B2               	iorwf	(efgtoa@t+1)& (0+255),w,b
  3826  0011C6  A4D8               	btfss	status,2,c
  3827  0011C8  EFE8  F008         	goto	u8201
  3828  0011CC  EFEA  F008         	goto	u8200
  3829  0011D0                     u8201:
  3830  0011D0  EFD1  F008         	goto	l5749
  3831  0011D4                     u8200:
  3832  0011D4                     
  3833                           ; BSR set to: 0
  3834                           ;C:\Program Files\Microchip\xc8\v2.32\pic\sources\c99\common\doprnt.c: 484:             
      +                          dbuf[n++] = (char)((int)'0' + d);
  3835  0011D4  0E00               	movlw	low _dbuf
  3836  0011D6  25D7               	addwf	efgtoa@n& (0+255),w,b
  3837  0011D8  6ED9               	movwf	fsr2l,c
  3838  0011DA  0E01               	movlw	high _dbuf
  3839  0011DC  21D8               	addwfc	(efgtoa@n+1)& (0+255),w,b
  3840  0011DE  6EDA               	movwf	fsr2h,c
  3841  0011E0  51BD               	movf	efgtoa@d& (0+255),w,b
  3842  0011E2  0F30               	addlw	48
  3843  0011E4  6EDF               	movwf	indf2,c
  3844  0011E6                     
  3845                           ; BSR set to: 0
  3846  0011E6  4BD7               	infsnz	efgtoa@n& (0+255),f,b
  3847  0011E8  2BD8               	incf	(efgtoa@n+1)& (0+255),f,b
  3848  0011EA                     
  3849                           ; BSR set to: 0
  3850                           ;C:\Program Files\Microchip\xc8\v2.32\pic\sources\c99\common\doprnt.c: 485:             
      +                          --w;
  3851  0011EA  07C3               	decf	efgtoa@w& (0+255),f,b
  3852  0011EC  A0D8               	btfss	status,0,c
  3853  0011EE  07C4               	decf	(efgtoa@w+1)& (0+255),f,b
  3854  0011F0                     l5765:
  3855                           
  3856                           ; BSR set to: 0
  3857                           ;C:\Program Files\Microchip\xc8\v2.32\pic\sources\c99\common\doprnt.c: 487:         h -=
      +                           l*u;
  3858  0011F0  C0C7  F08D         	movff	efgtoa@h,___flsub@b
  3859  0011F4  C0C8  F08E         	movff	efgtoa@h+1,___flsub@b+1
  3860  0011F8  C0C9  F08F         	movff	efgtoa@h+2,___flsub@b+2
  3861  0011FC  C0CA  F090         	movff	efgtoa@h+3,___flsub@b+3
  3862  001200  C0D9  F078         	movff	efgtoa@u,___flmul@a
  3863  001204  C0DA  F079         	movff	efgtoa@u+1,___flmul@a+1
  3864  001208  C0DB  F07A         	movff	efgtoa@u+2,___flmul@a+2
  3865  00120C  C0DC  F07B         	movff	efgtoa@u+3,___flmul@a+3
  3866  001210  C0CB  F074         	movff	efgtoa@l,___flmul@b
  3867  001214  C0CC  F075         	movff	efgtoa@l+1,___flmul@b+1
  3868  001218  C0CD  F076         	movff	efgtoa@l+2,___flmul@b+2
  3869  00121C  C0CE  F077         	movff	efgtoa@l+3,___flmul@b+3
  3870  001220  ECD8  F011         	call	___flmul	;wreg free
  3871  001224  C074  F091         	movff	?___flmul,___flsub@a
  3872  001228  C075  F092         	movff	?___flmul+1,___flsub@a+1
  3873  00122C  C076  F093         	movff	?___flmul+2,___flsub@a+2
  3874  001230  C077  F094         	movff	?___flmul+3,___flsub@a+3
  3875  001234  EC13  F022         	call	___flsub	;wreg free
  3876  001238  C08D  F0C7         	movff	?___flsub,efgtoa@h
  3877  00123C  C08E  F0C8         	movff	?___flsub+1,efgtoa@h+1
  3878  001240  C08F  F0C9         	movff	?___flsub+2,efgtoa@h+2
  3879  001244  C090  F0CA         	movff	?___flsub+3,efgtoa@h+3
  3880  001248                     
  3881                           ;C:\Program Files\Microchip\xc8\v2.32\pic\sources\c99\common\doprnt.c: 488:         u = 
      +                          u/10.0;
  3882  001248  C0D9  F060         	movff	efgtoa@u,___fldiv@b
  3883  00124C  C0DA  F061         	movff	efgtoa@u+1,___fldiv@b+1
  3884  001250  C0DB  F062         	movff	efgtoa@u+2,___fldiv@b+2
  3885  001254  C0DC  F063         	movff	efgtoa@u+3,___fldiv@b+3
  3886  001258  0E00               	movlw	0
  3887  00125A  0100               	movlb	0	; () banked
  3888  00125C  6F64               	movwf	___fldiv@a& (0+255),b
  3889  00125E  0E00               	movlw	0
  3890  001260  6F65               	movwf	(___fldiv@a+1)& (0+255),b
  3891  001262  0E20               	movlw	32
  3892  001264  6F66               	movwf	(___fldiv@a+2)& (0+255),b
  3893  001266  0E41               	movlw	65
  3894  001268  6F67               	movwf	(___fldiv@a+3)& (0+255),b
  3895  00126A  ECEE  F013         	call	___fldiv	;wreg free
  3896  00126E  C060  F0D9         	movff	?___fldiv,efgtoa@u
  3897  001272  C061  F0DA         	movff	?___fldiv+1,efgtoa@u+1
  3898  001276  C062  F0DB         	movff	?___fldiv+2,efgtoa@u+2
  3899  00127A  C063  F0DC         	movff	?___fldiv+3,efgtoa@u+3
  3900  00127E                     
  3901                           ;C:\Program Files\Microchip\xc8\v2.32\pic\sources\c99\common\doprnt.c: 489:         --ne
      +                          ;
  3902  00127E  0100               	movlb	0	; () banked
  3903  001280  07B5               	decf	efgtoa@ne& (0+255),f,b
  3904  001282  A0D8               	btfss	status,0,c
  3905  001284  07B6               	decf	(efgtoa@ne+1)& (0+255),f,b
  3906  001286                     
  3907                           ; BSR set to: 0
  3908                           ;C:\Program Files\Microchip\xc8\v2.32\pic\sources\c99\common\doprnt.c: 490:         ++i;
  3909  001286  4BCF               	infsnz	efgtoa@i& (0+255),f,b
  3910  001288  2BD0               	incf	(efgtoa@i+1)& (0+255),f,b
  3911  00128A                     l5773:
  3912                           
  3913                           ; BSR set to: 0
  3914                           ;C:\Program Files\Microchip\xc8\v2.32\pic\sources\c99\common\doprnt.c: 468:     while ((
      +                          i < m) && (n < (80 - 5))) {
  3915  00128A  51B7               	movf	efgtoa@m& (0+255),w,b
  3916  00128C  5DCF               	subwf	efgtoa@i& (0+255),w,b
  3917  00128E  51D0               	movf	(efgtoa@i+1)& (0+255),w,b
  3918  001290  0A80               	xorlw	128
  3919  001292  6FA0               	movwf	??_efgtoa& (0+255),b
  3920  001294  51B8               	movf	(efgtoa@m+1)& (0+255),w,b
  3921  001296  0A80               	xorlw	128
  3922  001298  59A0               	subwfb	??_efgtoa& (0+255),w,b
  3923  00129A  B0D8               	btfsc	status,0,c
  3924  00129C  EF52  F009         	goto	u8211
  3925  0012A0  EF54  F009         	goto	u8210
  3926  0012A4                     u8211:
  3927  0012A4  EF62  F009         	goto	l5777
  3928  0012A8                     u8210:
  3929  0012A8                     
  3930                           ; BSR set to: 0
  3931  0012A8  BFD8               	btfsc	(efgtoa@n+1)& (0+255),7,b
  3932  0012AA  EF60  F009         	goto	u8221
  3933  0012AE  51D8               	movf	(efgtoa@n+1)& (0+255),w,b
  3934  0012B0  E109               	bnz	u8220
  3935  0012B2  0E4B               	movlw	75
  3936  0012B4  5DD7               	subwf	efgtoa@n& (0+255),w,b
  3937  0012B6  A0D8               	btfss	status,0,c
  3938  0012B8  EF60  F009         	goto	u8221
  3939  0012BC  EF62  F009         	goto	u8220
  3940  0012C0                     u8221:
  3941  0012C0  EF56  F008         	goto	l5725
  3942  0012C4                     u8220:
  3943  0012C4                     l5777:
  3944                           
  3945                           ; BSR set to: 0
  3946                           ;C:\Program Files\Microchip\xc8\v2.32\pic\sources\c99\common\doprnt.c: 492:     if (!pp 
      +                          && (flags & (1 << 4))) {
  3947  0012C4  51B3               	movf	efgtoa@pp& (0+255),w,b
  3948  0012C6  11B4               	iorwf	(efgtoa@pp+1)& (0+255),w,b
  3949  0012C8  A4D8               	btfss	status,2,c
  3950  0012CA  EF69  F009         	goto	u8231
  3951  0012CE  EF6B  F009         	goto	u8230
  3952  0012D2                     u8231:
  3953  0012D2  EF7C  F009         	goto	l5785
  3954  0012D6                     u8230:
  3955  0012D6                     
  3956                           ; BSR set to: 0
  3957  0012D6  A82F               	btfss	_flags^0,4,c
  3958  0012D8  EF70  F009         	goto	u8241
  3959  0012DC  EF72  F009         	goto	u8240
  3960  0012E0                     u8241:
  3961  0012E0  EF7C  F009         	goto	l5785
  3962  0012E4                     u8240:
  3963  0012E4                     
  3964                           ; BSR set to: 0
  3965                           ;C:\Program Files\Microchip\xc8\v2.32\pic\sources\c99\common\doprnt.c: 493:         dbuf
      +                          [n++] = '.';
  3966  0012E4  0E00               	movlw	low _dbuf
  3967  0012E6  25D7               	addwf	efgtoa@n& (0+255),w,b
  3968  0012E8  6ED9               	movwf	fsr2l,c
  3969  0012EA  0E01               	movlw	high _dbuf
  3970  0012EC  21D8               	addwfc	(efgtoa@n+1)& (0+255),w,b
  3971  0012EE  6EDA               	movwf	fsr2h,c
  3972  0012F0  0E2E               	movlw	46
  3973  0012F2  6EDF               	movwf	indf2,c
  3974  0012F4                     
  3975                           ; BSR set to: 0
  3976  0012F4  4BD7               	infsnz	efgtoa@n& (0+255),f,b
  3977  0012F6  2BD8               	incf	(efgtoa@n+1)& (0+255),f,b
  3978  0012F8                     l5785:
  3979                           
  3980                           ; BSR set to: 0
  3981                           ;C:\Program Files\Microchip\xc8\v2.32\pic\sources\c99\common\doprnt.c: 495:     dbuf[n] 
      +                          = '\0';
  3982  0012F8  0E00               	movlw	low _dbuf
  3983  0012FA  25D7               	addwf	efgtoa@n& (0+255),w,b
  3984  0012FC  6ED9               	movwf	fsr2l,c
  3985  0012FE  0E01               	movlw	high _dbuf
  3986  001300  21D8               	addwfc	(efgtoa@n+1)& (0+255),w,b
  3987  001302  6EDA               	movwf	fsr2h,c
  3988  001304  0E00               	movlw	0
  3989  001306  6EDF               	movwf	indf2,c
  3990  001308                     
  3991                           ; BSR set to: 0
  3992                           ;C:\Program Files\Microchip\xc8\v2.32\pic\sources\c99\common\doprnt.c: 498:     if (nmod
      +                          e == 'e') {
  3993  001308  0E65               	movlw	101
  3994  00130A  19C5               	xorwf	efgtoa@nmode& (0+255),w,b
  3995  00130C  A4D8               	btfss	status,2,c
  3996  00130E  EF8B  F009         	goto	u8251
  3997  001312  EF8D  F009         	goto	u8250
  3998  001316                     u8251:
  3999  001316  EFE1  F004         	goto	l5587
  4000  00131A                     u8250:
  4001  00131A                     
  4002                           ; BSR set to: 0
  4003                           ;C:\Program Files\Microchip\xc8\v2.32\pic\sources\c99\common\doprnt.c: 499:         i = 
      +                          sizeof(dbuf) - 1;
  4004  00131A  0E00               	movlw	0
  4005  00131C  6FD0               	movwf	(efgtoa@i+1)& (0+255),b
  4006  00131E  0E4F               	movlw	79
  4007  001320  6FCF               	movwf	efgtoa@i& (0+255),b
  4008  001322                     
  4009                           ; BSR set to: 0
  4010                           ;C:\Program Files\Microchip\xc8\v2.32\pic\sources\c99\common\doprnt.c: 500:         dbuf
      +                          [i] = '\0';
  4011  001322  0E00               	movlw	low _dbuf
  4012  001324  25CF               	addwf	efgtoa@i& (0+255),w,b
  4013  001326  6ED9               	movwf	fsr2l,c
  4014  001328  0E01               	movlw	high _dbuf
  4015  00132A  21D0               	addwfc	(efgtoa@i+1)& (0+255),w,b
  4016  00132C  6EDA               	movwf	fsr2h,c
  4017  00132E  0E00               	movlw	0
  4018  001330  6EDF               	movwf	indf2,c
  4019  001332                     
  4020                           ; BSR set to: 0
  4021                           ;C:\Program Files\Microchip\xc8\v2.32\pic\sources\c99\common\doprnt.c: 501:         sign
      +                           = 0;
  4022  001332  0E00               	movlw	0
  4023  001334  6FC0               	movwf	(efgtoa@sign+1)& (0+255),b
  4024  001336  0E00               	movlw	0
  4025  001338  6FBF               	movwf	efgtoa@sign& (0+255),b
  4026  00133A                     
  4027                           ; BSR set to: 0
  4028                           ;C:\Program Files\Microchip\xc8\v2.32\pic\sources\c99\common\doprnt.c: 502:         if (
      +                          e < 0) {
  4029  00133A  BFD6               	btfsc	(efgtoa@e+1)& (0+255),7,b
  4030  00133C  EFA4  F009         	goto	u8260
  4031  001340  EFA2  F009         	goto	u8261
  4032  001344                     u8261:
  4033  001344  EFAC  F009         	goto	l5801
  4034  001348                     u8260:
  4035  001348                     
  4036                           ; BSR set to: 0
  4037                           ;C:\Program Files\Microchip\xc8\v2.32\pic\sources\c99\common\doprnt.c: 503:             
      +                          sign = 1;
  4038  001348  0E00               	movlw	0
  4039  00134A  6FC0               	movwf	(efgtoa@sign+1)& (0+255),b
  4040  00134C  0E01               	movlw	1
  4041  00134E  6FBF               	movwf	efgtoa@sign& (0+255),b
  4042  001350                     
  4043                           ; BSR set to: 0
  4044                           ;C:\Program Files\Microchip\xc8\v2.32\pic\sources\c99\common\doprnt.c: 504:             
      +                          e = -e;
  4045  001350  6DD5               	negf	efgtoa@e& (0+255),b
  4046  001352  1FD6               	comf	(efgtoa@e+1)& (0+255),f,b
  4047  001354  B0D8               	btfsc	status,0,c
  4048  001356  2BD6               	incf	(efgtoa@e+1)& (0+255),f,b
  4049  001358                     l5801:
  4050                           
  4051                           ; BSR set to: 0
  4052                           ;C:\Program Files\Microchip\xc8\v2.32\pic\sources\c99\common\doprnt.c: 506:         p = 
      +                          2;
  4053  001358  0E00               	movlw	0
  4054  00135A  6FC2               	movwf	(efgtoa@p+1)& (0+255),b
  4055  00135C  0E02               	movlw	2
  4056  00135E  6FC1               	movwf	efgtoa@p& (0+255),b
  4057                           
  4058                           ;C:\Program Files\Microchip\xc8\v2.32\pic\sources\c99\common\doprnt.c: 507:         whil
      +                          e (e || (0 < p)) {
  4059  001360  EFDE  F009         	goto	l5813
  4060  001364                     l5803:
  4061                           
  4062                           ; BSR set to: 0
  4063                           ;C:\Program Files\Microchip\xc8\v2.32\pic\sources\c99\common\doprnt.c: 508:             
      +                          --i;
  4064  001364  07CF               	decf	efgtoa@i& (0+255),f,b
  4065  001366  A0D8               	btfss	status,0,c
  4066  001368  07D0               	decf	(efgtoa@i+1)& (0+255),f,b
  4067  00136A                     
  4068                           ; BSR set to: 0
  4069                           ;C:\Program Files\Microchip\xc8\v2.32\pic\sources\c99\common\doprnt.c: 509:             
      +                          dbuf[i] = '0' + (e % 10);
  4070  00136A  0E00               	movlw	low _dbuf
  4071  00136C  25CF               	addwf	efgtoa@i& (0+255),w,b
  4072  00136E  6ED9               	movwf	fsr2l,c
  4073  001370  0E01               	movlw	high _dbuf
  4074  001372  21D0               	addwfc	(efgtoa@i+1)& (0+255),w,b
  4075  001374  6EDA               	movwf	fsr2h,c
  4076  001376  C0D5  F060         	movff	efgtoa@e,___awmod@dividend
  4077  00137A  C0D6  F061         	movff	efgtoa@e+1,___awmod@dividend+1
  4078  00137E  0E00               	movlw	0
  4079  001380  6F63               	movwf	(___awmod@divisor+1)& (0+255),b
  4080  001382  0E0A               	movlw	10
  4081  001384  6F62               	movwf	___awmod@divisor& (0+255),b
  4082  001386  EC0C  F01F         	call	___awmod	;wreg free
  4083  00138A  0100               	movlb	0	; () banked
  4084  00138C  5160               	movf	?___awmod& (0+255),w,b
  4085  00138E  0F30               	addlw	48
  4086  001390  6EDF               	movwf	indf2,c
  4087  001392                     
  4088                           ; BSR set to: 0
  4089                           ;C:\Program Files\Microchip\xc8\v2.32\pic\sources\c99\common\doprnt.c: 510:             
      +                          e = e / 10;
  4090  001392  C0D5  F060         	movff	efgtoa@e,___awdiv@dividend
  4091  001396  C0D6  F061         	movff	efgtoa@e+1,___awdiv@dividend+1
  4092  00139A  0E00               	movlw	0
  4093  00139C  6F63               	movwf	(___awdiv@divisor+1)& (0+255),b
  4094  00139E  0E0A               	movlw	10
  4095  0013A0  6F62               	movwf	___awdiv@divisor& (0+255),b
  4096  0013A2  ECA9  F01E         	call	___awdiv	;wreg free
  4097  0013A6  C060  F0D5         	movff	?___awdiv,efgtoa@e
  4098  0013AA  C061  F0D6         	movff	?___awdiv+1,efgtoa@e+1
  4099  0013AE                     
  4100                           ;C:\Program Files\Microchip\xc8\v2.32\pic\sources\c99\common\doprnt.c: 511:             
      +                          --p;
  4101  0013AE  0100               	movlb	0	; () banked
  4102  0013B0  07C1               	decf	efgtoa@p& (0+255),f,b
  4103  0013B2  A0D8               	btfss	status,0,c
  4104  0013B4  07C2               	decf	(efgtoa@p+1)& (0+255),f,b
  4105  0013B6                     
  4106                           ; BSR set to: 0
  4107                           ;C:\Program Files\Microchip\xc8\v2.32\pic\sources\c99\common\doprnt.c: 512:             
      +                          --w;
  4108  0013B6  07C3               	decf	efgtoa@w& (0+255),f,b
  4109  0013B8  A0D8               	btfss	status,0,c
  4110  0013BA  07C4               	decf	(efgtoa@w+1)& (0+255),f,b
  4111  0013BC                     l5813:
  4112                           
  4113                           ; BSR set to: 0
  4114                           ;C:\Program Files\Microchip\xc8\v2.32\pic\sources\c99\common\doprnt.c: 507:         whil
      +                          e (e || (0 < p)) {
  4115  0013BC  51D5               	movf	efgtoa@e& (0+255),w,b
  4116  0013BE  11D6               	iorwf	(efgtoa@e+1)& (0+255),w,b
  4117  0013C0  A4D8               	btfss	status,2,c
  4118  0013C2  EFE5  F009         	goto	u8271
  4119  0013C6  EFE7  F009         	goto	u8270
  4120  0013CA                     u8271:
  4121  0013CA  EFB2  F009         	goto	l5803
  4122  0013CE                     u8270:
  4123  0013CE                     
  4124                           ; BSR set to: 0
  4125  0013CE  BFC2               	btfsc	(efgtoa@p+1)& (0+255),7,b
  4126  0013D0  EFF4  F009         	goto	u8280
  4127  0013D4  51C2               	movf	(efgtoa@p+1)& (0+255),w,b
  4128  0013D6  E106               	bnz	u8281
  4129  0013D8  05C1               	decf	efgtoa@p& (0+255),w,b
  4130  0013DA  B0D8               	btfsc	status,0,c
  4131  0013DC  EFF2  F009         	goto	u8281
  4132  0013E0  EFF4  F009         	goto	u8280
  4133  0013E4                     u8281:
  4134  0013E4  EFB2  F009         	goto	l5803
  4135  0013E8                     u8280:
  4136  0013E8                     
  4137                           ; BSR set to: 0
  4138                           ;C:\Program Files\Microchip\xc8\v2.32\pic\sources\c99\common\doprnt.c: 514:         --i;
  4139  0013E8  07CF               	decf	efgtoa@i& (0+255),f,b
  4140  0013EA  A0D8               	btfss	status,0,c
  4141  0013EC  07D0               	decf	(efgtoa@i+1)& (0+255),f,b
  4142  0013EE                     
  4143                           ; BSR set to: 0
  4144                           ;C:\Program Files\Microchip\xc8\v2.32\pic\sources\c99\common\doprnt.c: 515:         dbuf
      +                          [i] = sign ? '-' : '+';
  4145  0013EE  51BF               	movf	efgtoa@sign& (0+255),w,b
  4146  0013F0  11C0               	iorwf	(efgtoa@sign+1)& (0+255),w,b
  4147  0013F2  A4D8               	btfss	status,2,c
  4148  0013F4  EFFE  F009         	goto	u8291
  4149  0013F8  EF00  F00A         	goto	u8290
  4150  0013FC                     u8291:
  4151  0013FC  EF06  F00A         	goto	l5823
  4152  001400                     u8290:
  4153  001400                     
  4154                           ; BSR set to: 0
  4155  001400  0E00               	movlw	0
  4156  001402  6FAC               	movwf	(_efgtoa$1116+1)& (0+255),b
  4157  001404  0E2B               	movlw	43
  4158  001406  6FAB               	movwf	_efgtoa$1116& (0+255),b
  4159  001408  EF0A  F00A         	goto	l5825
  4160  00140C                     l5823:
  4161                           
  4162                           ; BSR set to: 0
  4163  00140C  0E00               	movlw	0
  4164  00140E  6FAC               	movwf	(_efgtoa$1116+1)& (0+255),b
  4165  001410  0E2D               	movlw	45
  4166  001412  6FAB               	movwf	_efgtoa$1116& (0+255),b
  4167  001414                     l5825:
  4168                           
  4169                           ; BSR set to: 0
  4170  001414  0E00               	movlw	low _dbuf
  4171  001416  25CF               	addwf	efgtoa@i& (0+255),w,b
  4172  001418  6ED9               	movwf	fsr2l,c
  4173  00141A  0E01               	movlw	high _dbuf
  4174  00141C  21D0               	addwfc	(efgtoa@i+1)& (0+255),w,b
  4175  00141E  6EDA               	movwf	fsr2h,c
  4176  001420  C0AB  FFDF         	movff	_efgtoa$1116,indf2
  4177  001424                     
  4178                           ; BSR set to: 0
  4179                           ;C:\Program Files\Microchip\xc8\v2.32\pic\sources\c99\common\doprnt.c: 516:         --w;
  4180  001424  07C3               	decf	efgtoa@w& (0+255),f,b
  4181  001426  A0D8               	btfss	status,0,c
  4182  001428  07C4               	decf	(efgtoa@w+1)& (0+255),f,b
  4183  00142A                     
  4184                           ; BSR set to: 0
  4185                           ;C:\Program Files\Microchip\xc8\v2.32\pic\sources\c99\common\doprnt.c: 518:         dbuf
      +                          [i] = (0 ? isupper((int)c) : ((unsigned)((int)c)-'A') < 26) ? 'E' : 'e';
  4186  00142A  07CF               	decf	efgtoa@i& (0+255),f,b
  4187  00142C  A0D8               	btfss	status,0,c
  4188  00142E  07D0               	decf	(efgtoa@i+1)& (0+255),f,b
  4189  001430                     
  4190                           ; BSR set to: 0
  4191  001430  0EBF               	movlw	191
  4192  001432  6FA0               	movwf	??_efgtoa& (0+255),b
  4193  001434  0EFF               	movlw	255
  4194  001436  6FA1               	movwf	(??_efgtoa+1)& (0+255),b
  4195  001438  519F               	movf	efgtoa@c& (0+255),w,b
  4196  00143A  6FA2               	movwf	(??_efgtoa+2)& (0+255),b
  4197  00143C  6BA3               	clrf	(??_efgtoa+3)& (0+255),b
  4198  00143E  51A0               	movf	??_efgtoa& (0+255),w,b
  4199  001440  27A2               	addwf	(??_efgtoa+2)& (0+255),f,b
  4200  001442  51A1               	movf	(??_efgtoa+1)& (0+255),w,b
  4201  001444  23A3               	addwfc	(??_efgtoa+3)& (0+255),f,b
  4202  001446  51A3               	movf	(??_efgtoa+3)& (0+255),w,b
  4203  001448  E10A               	bnz	u8300
  4204  00144A  0E1A               	movlw	26
  4205  00144C  5DA2               	subwf	(??_efgtoa+2)& (0+255),w,b
  4206  00144E  A0D8               	btfss	status,0,c
  4207  001450  EF2C  F00A         	goto	u8301
  4208  001454  EF2F  F00A         	goto	u8300
  4209  001458                     u8301:
  4210  001458  0E01               	movlw	1
  4211  00145A  EF30  F00A         	goto	u8310
  4212  00145E                     u8300:
  4213  00145E  0E00               	movlw	0
  4214  001460                     u8310:
  4215  001460  6FAF               	movwf	_efgtoa$1118& (0+255),b
  4216  001462  6BB0               	clrf	(_efgtoa$1118+1)& (0+255),b
  4217  001464                     
  4218                           ; BSR set to: 0
  4219  001464  51AF               	movf	_efgtoa$1118& (0+255),w,b
  4220  001466  11B0               	iorwf	(_efgtoa$1118+1)& (0+255),w,b
  4221  001468  A4D8               	btfss	status,2,c
  4222  00146A  EF39  F00A         	goto	u8321
  4223  00146E  EF3B  F00A         	goto	u8320
  4224  001472                     u8321:
  4225  001472  EF41  F00A         	goto	l5839
  4226  001476                     u8320:
  4227  001476                     
  4228                           ; BSR set to: 0
  4229  001476  0E00               	movlw	0
  4230  001478  6FAE               	movwf	(_efgtoa$1117+1)& (0+255),b
  4231  00147A  0E65               	movlw	101
  4232  00147C  6FAD               	movwf	_efgtoa$1117& (0+255),b
  4233  00147E  EF45  F00A         	goto	l5841
  4234  001482                     l5839:
  4235                           
  4236                           ; BSR set to: 0
  4237  001482  0E00               	movlw	0
  4238  001484  6FAE               	movwf	(_efgtoa$1117+1)& (0+255),b
  4239  001486  0E45               	movlw	69
  4240  001488  6FAD               	movwf	_efgtoa$1117& (0+255),b
  4241  00148A                     l5841:
  4242                           
  4243                           ; BSR set to: 0
  4244  00148A  0E00               	movlw	low _dbuf
  4245  00148C  25CF               	addwf	efgtoa@i& (0+255),w,b
  4246  00148E  6ED9               	movwf	fsr2l,c
  4247  001490  0E01               	movlw	high _dbuf
  4248  001492  21D0               	addwfc	(efgtoa@i+1)& (0+255),w,b
  4249  001494  6EDA               	movwf	fsr2h,c
  4250  001496  C0AD  FFDF         	movff	_efgtoa$1117,indf2
  4251  00149A                     
  4252                           ; BSR set to: 0
  4253                           ;C:\Program Files\Microchip\xc8\v2.32\pic\sources\c99\common\doprnt.c: 519:         --w;
  4254  00149A  07C3               	decf	efgtoa@w& (0+255),f,b
  4255  00149C  A0D8               	btfss	status,0,c
  4256  00149E  07C4               	decf	(efgtoa@w+1)& (0+255),f,b
  4257  0014A0                     
  4258                           ; BSR set to: 0
  4259                           ;C:\Program Files\Microchip\xc8\v2.32\pic\sources\c99\common\doprnt.c: 520:         strc
      +                          py(&dbuf[n], &dbuf[i]);
  4260  0014A0  0E00               	movlw	low _dbuf
  4261  0014A2  25D7               	addwf	efgtoa@n& (0+255),w,b
  4262  0014A4  6F60               	movwf	strcpy@dest& (0+255),b
  4263  0014A6  0E01               	movlw	high _dbuf
  4264  0014A8  21D8               	addwfc	(efgtoa@n+1)& (0+255),w,b
  4265  0014AA  6F61               	movwf	(strcpy@dest+1)& (0+255),b
  4266  0014AC  0E00               	movlw	low _dbuf
  4267  0014AE  25CF               	addwf	efgtoa@i& (0+255),w,b
  4268  0014B0  6F62               	movwf	strcpy@src& (0+255),b
  4269  0014B2  0E01               	movlw	high _dbuf
  4270  0014B4  21D0               	addwfc	(efgtoa@i+1)& (0+255),w,b
  4271  0014B6  6F63               	movwf	(strcpy@src+1)& (0+255),b
  4272  0014B8  ECF4  F020         	call	_strcpy	;wreg free
  4273  0014BC  EFE1  F004         	goto	l5587
  4274  0014C0                     l871:
  4275  0014C0  0012               	return		;funcret
  4276  0014C2                     __end_of_efgtoa:
  4277                           	callstack 0
  4278                           
  4279 ;; *************** function _tolower *****************
  4280 ;; Defined at:
  4281 ;;		line 4 in file "C:\Program Files\Microchip\xc8\v2.32\pic\sources\c99\common\tolower.c"
  4282 ;; Parameters:    Size  Location     Type
  4283 ;;  c               2    6[BANK0 ] int 
  4284 ;; Auto vars:     Size  Location     Type
  4285 ;;		None
  4286 ;; Return value:  Size  Location     Type
  4287 ;;                  2    6[BANK0 ] int 
  4288 ;; Registers used:
  4289 ;;		wreg, status,2, status,0
  4290 ;; Tracked objects:
  4291 ;;		On entry : 0/0
  4292 ;;		On exit  : 0/0
  4293 ;;		Unchanged: 0/0
  4294 ;; Data sizes:     COMRAM   BANK0   BANK1   BANK2   BANK3   BANK4   BANK5   BANK6   BANK7
  4295 ;;      Params:         0       2       0       0       0       0       0       0       0
  4296 ;;      Locals:         0       2       0       0       0       0       0       0       0
  4297 ;;      Temps:          0       4       0       0       0       0       0       0       0
  4298 ;;      Totals:         0       8       0       0       0       0       0       0       0
  4299 ;;Total ram usage:        8 bytes
  4300 ;; Hardware stack levels used: 1
  4301 ;; Hardware stack levels required when called: 5
  4302 ;; This function calls:
  4303 ;;		_isupper
  4304 ;; This function is called by:
  4305 ;;		_efgtoa
  4306 ;;		_vfpfcnvrt
  4307 ;; This function uses a non-reentrant model
  4308 ;;
  4309                           
  4310                           	psect	text6
  4311  004186                     __ptext6:
  4312                           	callstack 0
  4313  004186                     _tolower:
  4314                           	callstack 22
  4315  004186  0EBF               	movlw	191
  4316  004188  0100               	movlb	0	; () banked
  4317  00418A  6F68               	movwf	??_tolower& (0+255),b
  4318  00418C  0EFF               	movlw	255
  4319  00418E  6F69               	movwf	(??_tolower+1)& (0+255),b
  4320  004190  C066  F06A         	movff	tolower@c,??_tolower+2
  4321  004194  C067  F06B         	movff	tolower@c+1,??_tolower+3
  4322  004198  5168               	movf	??_tolower& (0+255),w,b
  4323  00419A  276A               	addwf	(??_tolower+2)& (0+255),f,b
  4324  00419C  5169               	movf	(??_tolower+1)& (0+255),w,b
  4325  00419E  236B               	addwfc	(??_tolower+3)& (0+255),f,b
  4326  0041A0  516B               	movf	(??_tolower+3)& (0+255),w,b
  4327  0041A2  E10A               	bnz	u7620
  4328  0041A4  0E1A               	movlw	26
  4329  0041A6  5D6A               	subwf	(??_tolower+2)& (0+255),w,b
  4330  0041A8  A0D8               	btfss	status,0,c
  4331  0041AA  EFD9  F020         	goto	u7621
  4332  0041AE  EFDC  F020         	goto	u7620
  4333  0041B2                     u7621:
  4334  0041B2  0E01               	movlw	1
  4335  0041B4  EFDD  F020         	goto	u7630
  4336  0041B8                     u7620:
  4337  0041B8  0E00               	movlw	0
  4338  0041BA                     u7630:
  4339  0041BA  6F6C               	movwf	_tolower$1266& (0+255),b
  4340  0041BC  6B6D               	clrf	(_tolower$1266+1)& (0+255),b
  4341  0041BE                     
  4342                           ; BSR set to: 0
  4343  0041BE  516C               	movf	_tolower$1266& (0+255),w,b
  4344  0041C0  116D               	iorwf	(_tolower$1266+1)& (0+255),w,b
  4345  0041C2  B4D8               	btfsc	status,2,c
  4346  0041C4  EFE6  F020         	goto	u7641
  4347  0041C8  EFE8  F020         	goto	u7640
  4348  0041CC                     u7641:
  4349  0041CC  EFEF  F020         	goto	l1111
  4350  0041D0                     u7640:
  4351  0041D0                     
  4352                           ; BSR set to: 0
  4353  0041D0  0E20               	movlw	32
  4354  0041D2  1166               	iorwf	tolower@c& (0+255),w,b
  4355  0041D4  6F66               	movwf	?_tolower& (0+255),b
  4356  0041D6  5167               	movf	(tolower@c+1)& (0+255),w,b
  4357  0041D8  6F67               	movwf	(?_tolower+1)& (0+255),b
  4358  0041DA  EFF3  F020         	goto	l1116
  4359  0041DE                     l1111:
  4360                           
  4361                           ; BSR set to: 0
  4362  0041DE  C066  F066         	movff	tolower@c,?_tolower
  4363  0041E2  C067  F067         	movff	tolower@c+1,?_tolower+1
  4364  0041E6                     l1116:
  4365                           
  4366                           ; BSR set to: 0
  4367  0041E6  0012               	return		;funcret
  4368  0041E8                     __end_of_tolower:
  4369                           	callstack 0
  4370                           
  4371 ;; *************** function _isupper *****************
  4372 ;; Defined at:
  4373 ;;		line 5 in file "C:\Program Files\Microchip\xc8\v2.32\pic\sources\c99\common\isupper.c"
  4374 ;; Parameters:    Size  Location     Type
  4375 ;;  c               2    0[BANK0 ] int 
  4376 ;; Auto vars:     Size  Location     Type
  4377 ;;		None
  4378 ;; Return value:  Size  Location     Type
  4379 ;;                  2    0[BANK0 ] int 
  4380 ;; Registers used:
  4381 ;;		wreg, status,2, status,0
  4382 ;; Tracked objects:
  4383 ;;		On entry : 0/0
  4384 ;;		On exit  : 0/0
  4385 ;;		Unchanged: 0/0
  4386 ;; Data sizes:     COMRAM   BANK0   BANK1   BANK2   BANK3   BANK4   BANK5   BANK6   BANK7
  4387 ;;      Params:         0       2       0       0       0       0       0       0       0
  4388 ;;      Locals:         0       0       0       0       0       0       0       0       0
  4389 ;;      Temps:          0       4       0       0       0       0       0       0       0
  4390 ;;      Totals:         0       6       0       0       0       0       0       0       0
  4391 ;;Total ram usage:        6 bytes
  4392 ;; Hardware stack levels used: 1
  4393 ;; Hardware stack levels required when called: 4
  4394 ;; This function calls:
  4395 ;;		Nothing
  4396 ;; This function is called by:
  4397 ;;		_efgtoa
  4398 ;;		_vfpfcnvrt
  4399 ;;		_tolower
  4400 ;; This function uses a non-reentrant model
  4401 ;;
  4402                           
  4403                           	psect	text7
  4404  00446E                     __ptext7:
  4405                           	callstack 0
  4406  00446E                     _isupper:
  4407                           	callstack 22
  4408  00446E  0EBF               	movlw	191
  4409  004470  0100               	movlb	0	; () banked
  4410  004472  6F62               	movwf	??_isupper& (0+255),b
  4411  004474  0EFF               	movlw	255
  4412  004476  6F63               	movwf	(??_isupper+1)& (0+255),b
  4413  004478  C060  F064         	movff	isupper@c,??_isupper+2
  4414  00447C  C061  F065         	movff	isupper@c+1,??_isupper+3
  4415  004480  5162               	movf	??_isupper& (0+255),w,b
  4416  004482  2764               	addwf	(??_isupper+2)& (0+255),f,b
  4417  004484  5163               	movf	(??_isupper+1)& (0+255),w,b
  4418  004486  2365               	addwfc	(??_isupper+3)& (0+255),f,b
  4419  004488  5165               	movf	(??_isupper+3)& (0+255),w,b
  4420  00448A  E10A               	bnz	u6770
  4421  00448C  0E1A               	movlw	26
  4422  00448E  5D64               	subwf	(??_isupper+2)& (0+255),w,b
  4423  004490  A0D8               	btfss	status,0,c
  4424  004492  EF4D  F022         	goto	u6771
  4425  004496  EF50  F022         	goto	u6770
  4426  00449A                     u6771:
  4427  00449A  0E01               	movlw	1
  4428  00449C  EF51  F022         	goto	u6780
  4429  0044A0                     u6770:
  4430  0044A0  0E00               	movlw	0
  4431  0044A2                     u6780:
  4432  0044A2  6F60               	movwf	?_isupper& (0+255),b
  4433  0044A4  6B61               	clrf	(?_isupper+1)& (0+255),b
  4434  0044A6                     
  4435                           ; BSR set to: 0
  4436  0044A6  0012               	return		;funcret
  4437  0044A8                     __end_of_isupper:
  4438                           	callstack 0
  4439                           
  4440 ;; *************** function _strcpy *****************
  4441 ;; Defined at:
  4442 ;;		line 3 in file "C:\Program Files\Microchip\xc8\v2.32\pic\sources\c99\common\strcpy.c"
  4443 ;; Parameters:    Size  Location     Type
  4444 ;;  dest            2    0[BANK0 ] PTR unsigned char 
  4445 ;;		 -> dbuf(80), 
  4446 ;;  src             2    2[BANK0 ] PTR const unsigned char 
  4447 ;;		 -> STR_13(4), STR_12(4), STR_9(4), STR_8(4), 
  4448 ;;		 -> dbuf(80), 
  4449 ;; Auto vars:     Size  Location     Type
  4450 ;;  d               2    8[BANK0 ] PTR unsigned char 
  4451 ;;		 -> dbuf(80), 
  4452 ;;  s               2    6[BANK0 ] PTR const unsigned char 
  4453 ;;		 -> STR_13(4), STR_12(4), STR_9(4), STR_8(4), 
  4454 ;;		 -> dbuf(80), 
  4455 ;; Return value:  Size  Location     Type
  4456 ;;                  2    0[BANK0 ] PTR unsigned char 
  4457 ;; Registers used:
  4458 ;;		wreg, fsr1l, fsr1h, fsr2l, fsr2h, status,2, status,0, tblptrl, tblptrh, tblptru
  4459 ;; Tracked objects:
  4460 ;;		On entry : 0/0
  4461 ;;		On exit  : 0/0
  4462 ;;		Unchanged: 0/0
  4463 ;; Data sizes:     COMRAM   BANK0   BANK1   BANK2   BANK3   BANK4   BANK5   BANK6   BANK7
  4464 ;;      Params:         0       4       0       0       0       0       0       0       0
  4465 ;;      Locals:         0       4       0       0       0       0       0       0       0
  4466 ;;      Temps:          0       2       0       0       0       0       0       0       0
  4467 ;;      Totals:         0      10       0       0       0       0       0       0       0
  4468 ;;Total ram usage:       10 bytes
  4469 ;; Hardware stack levels used: 1
  4470 ;; Hardware stack levels required when called: 4
  4471 ;; This function calls:
  4472 ;;		Nothing
  4473 ;; This function is called by:
  4474 ;;		_efgtoa
  4475 ;; This function uses a non-reentrant model
  4476 ;;
  4477                           
  4478                           	psect	text8
  4479  0041E8                     __ptext8:
  4480                           	callstack 0
  4481  0041E8                     _strcpy:
  4482                           	callstack 22
  4483  0041E8  C062  F066         	movff	strcpy@src,strcpy@s
  4484  0041EC  C063  F067         	movff	strcpy@src+1,strcpy@s+1
  4485  0041F0  C060  F068         	movff	strcpy@dest,strcpy@d
  4486  0041F4  C061  F069         	movff	strcpy@dest+1,strcpy@d+1
  4487  0041F8                     l5487:
  4488  0041F8  0100               	movlb	0	; () banked
  4489  0041FA  5166               	movf	strcpy@s& (0+255),w,b
  4490  0041FC  6F64               	movwf	??_strcpy& (0+255),b
  4491  0041FE  5167               	movf	(strcpy@s+1)& (0+255),w,b
  4492  004200  6F65               	movwf	(??_strcpy+1)& (0+255),b
  4493  004202  4B66               	infsnz	strcpy@s& (0+255),f,b
  4494  004204  2B67               	incf	(strcpy@s+1)& (0+255),f,b
  4495  004206  C064  FFF6         	movff	??_strcpy,tblptrl
  4496  00420A  C065  FFF7         	movff	??_strcpy+1,tblptrh
  4497  00420E  6AF8               	clrf	tblptru,c
  4498  004210  C068  FFD9         	movff	strcpy@d,fsr2l
  4499  004214  C069  FFDA         	movff	strcpy@d+1,fsr2h
  4500  004218  4B68               	infsnz	strcpy@d& (0+255),f,b
  4501  00421A  2B69               	incf	(strcpy@d+1)& (0+255),f,b
  4502  00421C  0E07               	movlw	(high __ramtop+-1)
  4503  00421E  64F7               	cpfsgt	tblptrh,c
  4504  004220  D003               	bra	u7607
  4505  004222  0008               	tblrd		*
  4506  004224  50F5               	movf	tablat,w,c
  4507  004226  D005               	bra	u7600
  4508  004228                     u7607:
  4509  004228  CFF6 FFE1          	movff	tblptrl,fsr1l
  4510  00422C  CFF7 FFE2          	movff	tblptrh,fsr1h
  4511  004230  50E7               	movf	indf1,w,c
  4512  004232                     u7600:
  4513  004232  6EDF               	movwf	indf2,c
  4514  004234  50DF               	movf	indf2,w,c
  4515  004236  A4D8               	btfss	status,2,c
  4516  004238  EF20  F021         	goto	u7611
  4517  00423C  EF22  F021         	goto	u7610
  4518  004240                     u7611:
  4519  004240  EFFC  F020         	goto	l5487
  4520  004244                     u7610:
  4521  004244  0012               	return		;funcret
  4522  004246                     __end_of_strcpy:
  4523                           	callstack 0
  4524                           
  4525 ;; *************** function _pad *****************
  4526 ;; Defined at:
  4527 ;;		line 72 in file "C:\Program Files\Microchip\xc8\v2.32\pic\sources\c99\common\doprnt.c"
  4528 ;; Parameters:    Size  Location     Type
  4529 ;;  fp              2   16[BANK0 ] PTR struct _IO_FILE
  4530 ;;		 -> sprintf@f(6), 
  4531 ;;  buf             2   18[BANK0 ] PTR unsigned char 
  4532 ;;		 -> dbuf(80), 
  4533 ;;  p               2   20[BANK0 ] int 
  4534 ;; Auto vars:     Size  Location     Type
  4535 ;;  w               2   25[BANK0 ] int 
  4536 ;;  i               2   23[BANK0 ] int 
  4537 ;; Return value:  Size  Location     Type
  4538 ;;                  2   16[BANK0 ] int 
  4539 ;; Registers used:
  4540 ;;		wreg, fsr1l, fsr1h, fsr2l, fsr2h, status,2, status,0, tblptrl, tblptrh, tblptru, cstack
  4541 ;; Tracked objects:
  4542 ;;		On entry : 0/0
  4543 ;;		On exit  : 0/0
  4544 ;;		Unchanged: 0/0
  4545 ;; Data sizes:     COMRAM   BANK0   BANK1   BANK2   BANK3   BANK4   BANK5   BANK6   BANK7
  4546 ;;      Params:         0       6       0       0       0       0       0       0       0
  4547 ;;      Locals:         0       4       0       0       0       0       0       0       0
  4548 ;;      Temps:          0       1       0       0       0       0       0       0       0
  4549 ;;      Totals:         0      11       0       0       0       0       0       0       0
  4550 ;;Total ram usage:       11 bytes
  4551 ;; Hardware stack levels used: 1
  4552 ;; Hardware stack levels required when called: 7
  4553 ;; This function calls:
  4554 ;;		_fputc
  4555 ;;		_fputs
  4556 ;;		_strlen
  4557 ;; This function is called by:
  4558 ;;		_efgtoa
  4559 ;; This function uses a non-reentrant model
  4560 ;;
  4561                           
  4562                           	psect	text9
  4563  003C8A                     __ptext9:
  4564                           	callstack 0
  4565  003C8A                     _pad:
  4566                           	callstack 19
  4567  003C8A                     
  4568                           ;C:\Program Files\Microchip\xc8\v2.32\pic\sources\c99\common\doprnt.c: 72: static int pa
      +                          d(FILE *fp, char *buf, int p);C:\Program Files\Microchip\xc8\v2.32\pic\sources\c99\commo
      +                          n\doprnt.c: 73: {;C:\Program Files\Microchip\xc8\v2.32\pic\sources\c99\common\doprnt.c: 
      +                          74:     int i, w;;C:\Program Files\Microchip\xc8\v2.32\pic\sources\c99\common\doprnt.c: 
      +                          77:     if (flags & (1 << 0)) {
  4569  003C8A  A02F               	btfss	_flags^0,0,c
  4570  003C8C  EF4A  F01E         	goto	u7491
  4571  003C90  EF4C  F01E         	goto	u7490
  4572  003C94                     u7491:
  4573  003C94  EF56  F01E         	goto	l5445
  4574  003C98                     u7490:
  4575  003C98                     
  4576                           ;C:\Program Files\Microchip\xc8\v2.32\pic\sources\c99\common\doprnt.c: 78:         fputs
      +                          ((const char *)buf, fp);
  4577  003C98  C072  F069         	movff	pad@buf,fputs@s
  4578  003C9C  C073  F06A         	movff	pad@buf+1,fputs@s+1
  4579  003CA0  C070  F06B         	movff	pad@fp,fputs@fp
  4580  003CA4  C071  F06C         	movff	pad@fp+1,fputs@fp+1
  4581  003CA8  ECEF  F021         	call	_fputs	;wreg free
  4582  003CAC                     l5445:
  4583                           
  4584                           ;C:\Program Files\Microchip\xc8\v2.32\pic\sources\c99\common\doprnt.c: 82:     w = (p < 
      +                          0) ? 0 : p;
  4585  003CAC  0100               	movlb	0	; () banked
  4586  003CAE  BF75               	btfsc	(pad@p+1)& (0+255),7,b
  4587  003CB0  EF5C  F01E         	goto	u7501
  4588  003CB4  EF5E  F01E         	goto	u7500
  4589  003CB8                     u7501:
  4590  003CB8  EF64  F01E         	goto	l5449
  4591  003CBC                     u7500:
  4592  003CBC                     
  4593                           ; BSR set to: 0
  4594  003CBC  C074  F079         	movff	pad@p,pad@w
  4595  003CC0  C075  F07A         	movff	pad@p+1,pad@w+1
  4596  003CC4  EF68  F01E         	goto	l848
  4597  003CC8                     l5449:
  4598                           
  4599                           ; BSR set to: 0
  4600  003CC8  0E00               	movlw	0
  4601  003CCA  6F7A               	movwf	(pad@w+1)& (0+255),b
  4602  003CCC  0E00               	movlw	0
  4603  003CCE  6F79               	movwf	pad@w& (0+255),b
  4604  003CD0                     l848:
  4605                           
  4606                           ; BSR set to: 0
  4607                           ;C:\Program Files\Microchip\xc8\v2.32\pic\sources\c99\common\doprnt.c: 83:     i = 0;
  4608  003CD0  0E00               	movlw	0
  4609  003CD2  6F78               	movwf	(pad@i+1)& (0+255),b
  4610  003CD4  0E00               	movlw	0
  4611  003CD6  6F77               	movwf	pad@i& (0+255),b
  4612                           
  4613                           ;C:\Program Files\Microchip\xc8\v2.32\pic\sources\c99\common\doprnt.c: 84:     while (i 
      +                          < w) {
  4614  003CD8  EF7B  F01E         	goto	l5455
  4615  003CDC                     l5451:
  4616                           
  4617                           ; BSR set to: 0
  4618                           ;C:\Program Files\Microchip\xc8\v2.32\pic\sources\c99\common\doprnt.c: 85:         fputc
      +                          (' ', fp);
  4619  003CDC  0E00               	movlw	0
  4620  003CDE  6F61               	movwf	(fputc@c+1)& (0+255),b
  4621  003CE0  0E20               	movlw	32
  4622  003CE2  6F60               	movwf	fputc@c& (0+255),b
  4623  003CE4  C070  F062         	movff	pad@fp,fputc@fp
  4624  003CE8  C071  F063         	movff	pad@fp+1,fputc@fp+1
  4625  003CEC  ECDF  F01D         	call	_fputc	;wreg free
  4626  003CF0                     
  4627                           ;C:\Program Files\Microchip\xc8\v2.32\pic\sources\c99\common\doprnt.c: 86:         ++i;
  4628  003CF0  0100               	movlb	0	; () banked
  4629  003CF2  4B77               	infsnz	pad@i& (0+255),f,b
  4630  003CF4  2B78               	incf	(pad@i+1)& (0+255),f,b
  4631  003CF6                     l5455:
  4632                           
  4633                           ; BSR set to: 0
  4634                           ;C:\Program Files\Microchip\xc8\v2.32\pic\sources\c99\common\doprnt.c: 84:     while (i 
      +                          < w) {
  4635  003CF6  5179               	movf	pad@w& (0+255),w,b
  4636  003CF8  5D77               	subwf	pad@i& (0+255),w,b
  4637  003CFA  5178               	movf	(pad@i+1)& (0+255),w,b
  4638  003CFC  0A80               	xorlw	128
  4639  003CFE  6F76               	movwf	??_pad& (0+255),b
  4640  003D00  517A               	movf	(pad@w+1)& (0+255),w,b
  4641  003D02  0A80               	xorlw	128
  4642  003D04  5976               	subwfb	??_pad& (0+255),w,b
  4643  003D06  A0D8               	btfss	status,0,c
  4644  003D08  EF88  F01E         	goto	u7511
  4645  003D0C  EF8A  F01E         	goto	u7510
  4646  003D10                     u7511:
  4647  003D10  EF6E  F01E         	goto	l5451
  4648  003D14                     u7510:
  4649  003D14                     
  4650                           ; BSR set to: 0
  4651                           ;C:\Program Files\Microchip\xc8\v2.32\pic\sources\c99\common\doprnt.c: 90:     if (!(fla
      +                          gs & (1 << 0))) {
  4652  003D14  B02F               	btfsc	_flags^0,0,c
  4653  003D16  EF8F  F01E         	goto	u7521
  4654  003D1A  EF91  F01E         	goto	u7520
  4655  003D1E                     u7521:
  4656  003D1E  EF9B  F01E         	goto	l5459
  4657  003D22                     u7520:
  4658  003D22                     
  4659                           ; BSR set to: 0
  4660                           ;C:\Program Files\Microchip\xc8\v2.32\pic\sources\c99\common\doprnt.c: 91:         fputs
      +                          ((const char *)buf, fp);
  4661  003D22  C072  F069         	movff	pad@buf,fputs@s
  4662  003D26  C073  F06A         	movff	pad@buf+1,fputs@s+1
  4663  003D2A  C070  F06B         	movff	pad@fp,fputs@fp
  4664  003D2E  C071  F06C         	movff	pad@fp+1,fputs@fp+1
  4665  003D32  ECEF  F021         	call	_fputs	;wreg free
  4666  003D36                     l5459:
  4667                           
  4668                           ;C:\Program Files\Microchip\xc8\v2.32\pic\sources\c99\common\doprnt.c: 94:     return (i
      +                          nt)(strlen(buf) + (size_t)w);
  4669  003D36  C072  F060         	movff	pad@buf,strlen@s
  4670  003D3A  C073  F061         	movff	pad@buf+1,strlen@s+1
  4671  003D3E  EC9F  F021         	call	_strlen	;wreg free
  4672  003D42  0100               	movlb	0	; () banked
  4673  003D44  5179               	movf	pad@w& (0+255),w,b
  4674  003D46  2560               	addwf	?_strlen& (0+255),w,b
  4675  003D48  6F70               	movwf	?_pad& (0+255),b
  4676  003D4A  517A               	movf	(pad@w+1)& (0+255),w,b
  4677  003D4C  2161               	addwfc	(?_strlen+1)& (0+255),w,b
  4678  003D4E  6F71               	movwf	(?_pad+1)& (0+255),b
  4679  003D50                     
  4680                           ; BSR set to: 0
  4681  003D50  0012               	return		;funcret
  4682  003D52                     __end_of_pad:
  4683                           	callstack 0
  4684                           
  4685 ;; *************** function _fputs *****************
  4686 ;; Defined at:
  4687 ;;		line 8 in file "C:\Program Files\Microchip\xc8\v2.32\pic\sources\c99\common\nf_fputs.c"
  4688 ;; Parameters:    Size  Location     Type
  4689 ;;  s               2    9[BANK0 ] PTR const unsigned char 
  4690 ;;		 -> dbuf(80), 
  4691 ;;  fp              2   11[BANK0 ] PTR struct _IO_FILE
  4692 ;;		 -> sprintf@f(6), 
  4693 ;; Auto vars:     Size  Location     Type
  4694 ;;  i               2   14[BANK0 ] int 
  4695 ;;  c               1   13[BANK0 ] unsigned char 
  4696 ;; Return value:  Size  Location     Type
  4697 ;;                  2    9[BANK0 ] int 
  4698 ;; Registers used:
  4699 ;;		wreg, fsr1l, fsr1h, fsr2l, fsr2h, status,2, status,0, cstack
  4700 ;; Tracked objects:
  4701 ;;		On entry : 0/0
  4702 ;;		On exit  : 0/0
  4703 ;;		Unchanged: 0/0
  4704 ;; Data sizes:     COMRAM   BANK0   BANK1   BANK2   BANK3   BANK4   BANK5   BANK6   BANK7
  4705 ;;      Params:         0       4       0       0       0       0       0       0       0
  4706 ;;      Locals:         0       3       0       0       0       0       0       0       0
  4707 ;;      Temps:          0       0       0       0       0       0       0       0       0
  4708 ;;      Totals:         0       7       0       0       0       0       0       0       0
  4709 ;;Total ram usage:        7 bytes
  4710 ;; Hardware stack levels used: 1
  4711 ;; Hardware stack levels required when called: 6
  4712 ;; This function calls:
  4713 ;;		_fputc
  4714 ;; This function is called by:
  4715 ;;		_pad
  4716 ;; This function uses a non-reentrant model
  4717 ;;
  4718                           
  4719                           	psect	text10
  4720  0043DE                     __ptext10:
  4721                           	callstack 0
  4722  0043DE                     _fputs:
  4723                           	callstack 19
  4724  0043DE  0E00               	movlw	0
  4725  0043E0  0100               	movlb	0	; () banked
  4726  0043E2  6F6F               	movwf	(fputs@i+1)& (0+255),b
  4727  0043E4  0E00               	movlw	0
  4728  0043E6  6F6E               	movwf	fputs@i& (0+255),b
  4729  0043E8  EF02  F022         	goto	l4985
  4730  0043EC                     l4981:
  4731                           
  4732                           ; BSR set to: 0
  4733  0043EC  C06D  F060         	movff	fputs@c,fputc@c
  4734  0043F0  6B61               	clrf	(fputc@c+1)& (0+255),b
  4735  0043F2  C06B  F062         	movff	fputs@fp,fputc@fp
  4736  0043F6  C06C  F063         	movff	fputs@fp+1,fputc@fp+1
  4737  0043FA  ECDF  F01D         	call	_fputc	;wreg free
  4738  0043FE  0100               	movlb	0	; () banked
  4739  004400  4B6E               	infsnz	fputs@i& (0+255),f,b
  4740  004402  2B6F               	incf	(fputs@i+1)& (0+255),f,b
  4741  004404                     l4985:
  4742                           
  4743                           ; BSR set to: 0
  4744  004404  516E               	movf	fputs@i& (0+255),w,b
  4745  004406  2569               	addwf	fputs@s& (0+255),w,b
  4746  004408  6ED9               	movwf	fsr2l,c
  4747  00440A  516F               	movf	(fputs@i+1)& (0+255),w,b
  4748  00440C  216A               	addwfc	(fputs@s+1)& (0+255),w,b
  4749  00440E  6EDA               	movwf	fsr2h,c
  4750  004410  50DF               	movf	indf2,w,c
  4751  004412  6F6D               	movwf	fputs@c& (0+255),b
  4752  004414  516D               	movf	fputs@c& (0+255),w,b
  4753  004416  A4D8               	btfss	status,2,c
  4754  004418  EF10  F022         	goto	u6761
  4755  00441C  EF12  F022         	goto	u6760
  4756  004420                     u6761:
  4757  004420  EFF6  F021         	goto	l4981
  4758  004424                     u6760:
  4759  004424                     
  4760                           ; BSR set to: 0
  4761  004424  0012               	return		;funcret
  4762  004426                     __end_of_fputs:
  4763                           	callstack 0
  4764                           
  4765 ;; *************** function _fputc *****************
  4766 ;; Defined at:
  4767 ;;		line 8 in file "C:\Program Files\Microchip\xc8\v2.32\pic\sources\c99\common\nf_fputc.c"
  4768 ;; Parameters:    Size  Location     Type
  4769 ;;  c               2    0[BANK0 ] int 
  4770 ;;  fp              2    2[BANK0 ] PTR struct _IO_FILE
  4771 ;;		 -> sprintf@f(6), 
  4772 ;; Auto vars:     Size  Location     Type
  4773 ;;		None
  4774 ;; Return value:  Size  Location     Type
  4775 ;;                  2    0[BANK0 ] int 
  4776 ;; Registers used:
  4777 ;;		wreg, fsr1l, fsr1h, fsr2l, fsr2h, status,2, status,0, cstack
  4778 ;; Tracked objects:
  4779 ;;		On entry : 0/0
  4780 ;;		On exit  : 0/0
  4781 ;;		Unchanged: 0/0
  4782 ;; Data sizes:     COMRAM   BANK0   BANK1   BANK2   BANK3   BANK4   BANK5   BANK6   BANK7
  4783 ;;      Params:         0       4       0       0       0       0       0       0       0
  4784 ;;      Locals:         0       0       0       0       0       0       0       0       0
  4785 ;;      Temps:          0       5       0       0       0       0       0       0       0
  4786 ;;      Totals:         0       9       0       0       0       0       0       0       0
  4787 ;;Total ram usage:        9 bytes
  4788 ;; Hardware stack levels used: 1
  4789 ;; Hardware stack levels required when called: 5
  4790 ;; This function calls:
  4791 ;;		_putch
  4792 ;; This function is called by:
  4793 ;;		_pad
  4794 ;;		_vfpfcnvrt
  4795 ;;		_fputs
  4796 ;; This function uses a non-reentrant model
  4797 ;;
  4798                           
  4799                           	psect	text11
  4800  003BBE                     __ptext11:
  4801                           	callstack 0
  4802  003BBE                     _fputc:
  4803                           	callstack 22
  4804  003BBE  0100               	movlb	0	; () banked
  4805  003BC0  5162               	movf	fputc@fp& (0+255),w,b
  4806  003BC2  1163               	iorwf	(fputc@fp+1)& (0+255),w,b
  4807  003BC4  B4D8               	btfsc	status,2,c
  4808  003BC6  EFE7  F01D         	goto	u6311
  4809  003BCA  EFE9  F01D         	goto	u6310
  4810  003BCE                     u6311:
  4811  003BCE  EFF2  F01D         	goto	l4757
  4812  003BD2                     u6310:
  4813  003BD2                     
  4814                           ; BSR set to: 0
  4815  003BD2  5162               	movf	fputc@fp& (0+255),w,b
  4816  003BD4  1163               	iorwf	(fputc@fp+1)& (0+255),w,b
  4817  003BD6  A4D8               	btfss	status,2,c
  4818  003BD8  EFF0  F01D         	goto	u6321
  4819  003BDC  EFF2  F01D         	goto	u6320
  4820  003BE0                     u6321:
  4821  003BE0  EFF7  F01D         	goto	l4759
  4822  003BE4                     u6320:
  4823  003BE4                     l4757:
  4824                           
  4825                           ; BSR set to: 0
  4826  003BE4  5160               	movf	fputc@c& (0+255),w,b
  4827  003BE6  EC00  F023         	call	_putch
  4828  003BEA  EF44  F01E         	goto	l1074
  4829  003BEE                     l4759:
  4830                           
  4831                           ; BSR set to: 0
  4832  003BEE  EE20 F004          	lfsr	2,4
  4833  003BF2  5162               	movf	fputc@fp& (0+255),w,b
  4834  003BF4  26D9               	addwf	fsr2l,f,c
  4835  003BF6  5163               	movf	(fputc@fp+1)& (0+255),w,b
  4836  003BF8  22DA               	addwfc	fsr2h,f,c
  4837  003BFA  50DE               	movf	postinc2,w,c
  4838  003BFC  10DE               	iorwf	postinc2,w,c
  4839  003BFE  B4D8               	btfsc	status,2,c
  4840  003C00  EF04  F01E         	goto	u6331
  4841  003C04  EF06  F01E         	goto	u6330
  4842  003C08                     u6331:
  4843  003C08  EF21  F01E         	goto	l4763
  4844  003C0C                     u6330:
  4845  003C0C                     
  4846                           ; BSR set to: 0
  4847  003C0C  EE20 F004          	lfsr	2,4
  4848  003C10  5162               	movf	fputc@fp& (0+255),w,b
  4849  003C12  26D9               	addwf	fsr2l,f,c
  4850  003C14  5163               	movf	(fputc@fp+1)& (0+255),w,b
  4851  003C16  22DA               	addwfc	fsr2h,f,c
  4852  003C18  EE10 F002          	lfsr	1,2
  4853  003C1C  5162               	movf	fputc@fp& (0+255),w,b
  4854  003C1E  26E1               	addwf	fsr1l,f,c
  4855  003C20  5163               	movf	(fputc@fp+1)& (0+255),w,b
  4856  003C22  22E2               	addwfc	fsr1h,f,c
  4857  003C24  50DE               	movf	postinc2,w,c
  4858  003C26  5CE6               	subwf	postinc1,w,c
  4859  003C28  50E6               	movf	postinc1,w,c
  4860  003C2A  0A80               	xorlw	128
  4861  003C2C  6F68               	movwf	(??_fputc+4)& (0+255),b
  4862  003C2E  50DE               	movf	postinc2,w,c
  4863  003C30  0A80               	xorlw	128
  4864  003C32  5968               	subwfb	(??_fputc+4)& (0+255),w,b
  4865  003C34  B0D8               	btfsc	status,0,c
  4866  003C36  EF1F  F01E         	goto	u6341
  4867  003C3A  EF21  F01E         	goto	u6340
  4868  003C3E                     u6341:
  4869  003C3E  EF44  F01E         	goto	l1074
  4870  003C42                     u6340:
  4871  003C42                     l4763:
  4872                           
  4873                           ; BSR set to: 0
  4874  003C42  EE20 F002          	lfsr	2,2
  4875  003C46  5162               	movf	fputc@fp& (0+255),w,b
  4876  003C48  26D9               	addwf	fsr2l,f,c
  4877  003C4A  5163               	movf	(fputc@fp+1)& (0+255),w,b
  4878  003C4C  22DA               	addwfc	fsr2h,f,c
  4879  003C4E  CFDE F064          	movff	postinc2,??_fputc
  4880  003C52  CFDD F065          	movff	postdec2,??_fputc+1
  4881  003C56  C062  FFD9         	movff	fputc@fp,fsr2l
  4882  003C5A  C063  FFDA         	movff	fputc@fp+1,fsr2h
  4883  003C5E  CFDE F066          	movff	postinc2,??_fputc+2
  4884  003C62  CFDD F067          	movff	postdec2,??_fputc+3
  4885  003C66  5164               	movf	??_fputc& (0+255),w,b
  4886  003C68  2566               	addwf	(??_fputc+2)& (0+255),w,b
  4887  003C6A  6ED9               	movwf	fsr2l,c
  4888  003C6C  5165               	movf	(??_fputc+1)& (0+255),w,b
  4889  003C6E  2167               	addwfc	(??_fputc+3)& (0+255),w,b
  4890  003C70  6EDA               	movwf	fsr2h,c
  4891  003C72  C060  FFDF         	movff	fputc@c,indf2
  4892  003C76  EE20 F002          	lfsr	2,2
  4893  003C7A  5162               	movf	fputc@fp& (0+255),w,b
  4894  003C7C  26D9               	addwf	fsr2l,f,c
  4895  003C7E  5163               	movf	(fputc@fp+1)& (0+255),w,b
  4896  003C80  22DA               	addwfc	fsr2h,f,c
  4897  003C82  2ADE               	incf	postinc2,f,c
  4898  003C84  0E00               	movlw	0
  4899  003C86  22DD               	addwfc	postdec2,f,c
  4900  003C88                     l1074:
  4901  003C88  0012               	return		;funcret
  4902  003C8A                     __end_of_fputc:
  4903                           	callstack 0
  4904                           
  4905 ;; *************** function _putch *****************
  4906 ;; Defined at:
  4907 ;;		line 7 in file "C:\Program Files\Microchip\xc8\v2.32\pic\sources\c99\common\putch.c"
  4908 ;; Parameters:    Size  Location     Type
  4909 ;;  c               1    wreg     unsigned char 
  4910 ;; Auto vars:     Size  Location     Type
  4911 ;;  c               1    0[COMRAM] unsigned char 
  4912 ;; Return value:  Size  Location     Type
  4913 ;;                  1    wreg      void 
  4914 ;; Registers used:
  4915 ;;		wreg
  4916 ;; Tracked objects:
  4917 ;;		On entry : 0/0
  4918 ;;		On exit  : 0/0
  4919 ;;		Unchanged: 0/0
  4920 ;; Data sizes:     COMRAM   BANK0   BANK1   BANK2   BANK3   BANK4   BANK5   BANK6   BANK7
  4921 ;;      Params:         0       0       0       0       0       0       0       0       0
  4922 ;;      Locals:         0       0       0       0       0       0       0       0       0
  4923 ;;      Temps:          0       0       0       0       0       0       0       0       0
  4924 ;;      Totals:         0       0       0       0       0       0       0       0       0
  4925 ;;Total ram usage:        0 bytes
  4926 ;; Hardware stack levels used: 1
  4927 ;; Hardware stack levels required when called: 4
  4928 ;; This function calls:
  4929 ;;		Nothing
  4930 ;; This function is called by:
  4931 ;;		_fputc
  4932 ;; This function uses a non-reentrant model
  4933 ;;
  4934                           
  4935                           	psect	text12
  4936  004600                     __ptext12:
  4937                           	callstack 0
  4938  004600                     _putch:
  4939                           	callstack 22
  4940  004600  0012               	return		;funcret
  4941  004602                     __end_of_putch:
  4942                           	callstack 0
  4943                           
  4944 ;; *************** function _floorf *****************
  4945 ;; Defined at:
  4946 ;;		line 3 in file "C:\Program Files\Microchip\xc8\v2.32\pic\sources\c99\common\floorf.c"
  4947 ;; Parameters:    Size  Location     Type
  4948 ;;  x               4   25[BANK0 ] float 
  4949 ;; Auto vars:     Size  Location     Type
  4950 ;;  u               4   41[BANK0 ] struct .
  4951 ;;  m               4   35[BANK0 ] unsigned long 
  4952 ;;  e               2   39[BANK0 ] int 
  4953 ;; Return value:  Size  Location     Type
  4954 ;;                  4   25[BANK0 ] float 
  4955 ;; Registers used:
  4956 ;;		wreg, status,2, status,0
  4957 ;; Tracked objects:
  4958 ;;		On entry : 0/0
  4959 ;;		On exit  : 0/0
  4960 ;;		Unchanged: 0/0
  4961 ;; Data sizes:     COMRAM   BANK0   BANK1   BANK2   BANK3   BANK4   BANK5   BANK6   BANK7
  4962 ;;      Params:         0       4       0       0       0       0       0       0       0
  4963 ;;      Locals:         0      10       0       0       0       0       0       0       0
  4964 ;;      Temps:          0       6       0       0       0       0       0       0       0
  4965 ;;      Totals:         0      20       0       0       0       0       0       0       0
  4966 ;;Total ram usage:       20 bytes
  4967 ;; Hardware stack levels used: 1
  4968 ;; Hardware stack levels required when called: 4
  4969 ;; This function calls:
  4970 ;;		Nothing
  4971 ;; This function is called by:
  4972 ;;		_efgtoa
  4973 ;; This function uses a non-reentrant model
  4974 ;;
  4975                           
  4976                           	psect	text13
  4977  002B78                     __ptext13:
  4978                           	callstack 0
  4979  002B78                     _floorf:
  4980                           	callstack 22
  4981  002B78  C023  F089         	movff	floorf@F527,floorf@u
  4982  002B7C  C024  F08A         	movff	floorf@F527+1,floorf@u+1
  4983  002B80  C025  F08B         	movff	floorf@F527+2,floorf@u+2
  4984  002B84  C026  F08C         	movff	floorf@F527+3,floorf@u+3
  4985  002B88  C079  F089         	movff	floorf@x,floorf@u
  4986  002B8C  C07A  F08A         	movff	floorf@x+1,floorf@u+1
  4987  002B90  C07B  F08B         	movff	floorf@x+2,floorf@u+2
  4988  002B94  C07C  F08C         	movff	floorf@x+3,floorf@u+3
  4989  002B98  0E81               	movlw	129
  4990  002B9A  0100               	movlb	0	; () banked
  4991  002B9C  6F7D               	movwf	??_floorf& (0+255),b
  4992  002B9E  0EFF               	movlw	255
  4993  002BA0  6F7E               	movwf	(??_floorf+1)& (0+255),b
  4994  002BA2  C089  F07F         	movff	floorf@u,??_floorf+2
  4995  002BA6  C08A  F080         	movff	floorf@u+1,??_floorf+3
  4996  002BAA  C08B  F081         	movff	floorf@u+2,??_floorf+4
  4997  002BAE  C08C  F082         	movff	floorf@u+3,??_floorf+5
  4998  002BB2  0E18               	movlw	24
  4999  002BB4  EFE1  F015         	goto	u7650
  5000  002BB8                     u7655:
  5001  002BB8  90D8               	bcf	status,0,c
  5002  002BBA  3382               	rrcf	(??_floorf+5)& (0+255),f,b
  5003  002BBC  3381               	rrcf	(??_floorf+4)& (0+255),f,b
  5004  002BBE  3380               	rrcf	(??_floorf+3)& (0+255),f,b
  5005  002BC0  337F               	rrcf	(??_floorf+2)& (0+255),f,b
  5006  002BC2                     u7650:
  5007  002BC2  2EE8               	decfsz	wreg,f,c
  5008  002BC4  EFDC  F015         	goto	u7655
  5009  002BC8  517F               	movf	(??_floorf+2)& (0+255),w,b
  5010  002BCA  257D               	addwf	??_floorf& (0+255),w,b
  5011  002BCC  6F87               	movwf	floorf@e& (0+255),b
  5012  002BCE  0E00               	movlw	0
  5013  002BD0  217E               	addwfc	(??_floorf+1)& (0+255),w,b
  5014  002BD2  6F88               	movwf	(floorf@e+1)& (0+255),b
  5015  002BD4  BF88               	btfsc	(floorf@e+1)& (0+255),7,b
  5016  002BD6  EFF6  F015         	goto	u7661
  5017  002BDA  5188               	movf	(floorf@e+1)& (0+255),w,b
  5018  002BDC  E109               	bnz	u7660
  5019  002BDE  0E17               	movlw	23
  5020  002BE0  5D87               	subwf	floorf@e& (0+255),w,b
  5021  002BE2  A0D8               	btfss	status,0,c
  5022  002BE4  EFF6  F015         	goto	u7661
  5023  002BE8  EFF8  F015         	goto	u7660
  5024  002BEC                     u7661:
  5025  002BEC  EF02  F016         	goto	l5505
  5026  002BF0                     u7660:
  5027  002BF0                     l5503:
  5028                           
  5029                           ; BSR set to: 0
  5030  002BF0  C079  F079         	movff	floorf@x,?_floorf
  5031  002BF4  C07A  F07A         	movff	floorf@x+1,?_floorf+1
  5032  002BF8  C07B  F07B         	movff	floorf@x+2,?_floorf+2
  5033  002BFC  C07C  F07C         	movff	floorf@x+3,?_floorf+3
  5034  002C00  EFC6  F016         	goto	l1035
  5035  002C04                     l5505:
  5036                           
  5037                           ; BSR set to: 0
  5038  002C04  BF88               	btfsc	(floorf@e+1)& (0+255),7,b
  5039  002C06  EF07  F016         	goto	u7671
  5040  002C0A  EF09  F016         	goto	u7670
  5041  002C0E                     u7671:
  5042  002C0E  EF7A  F016         	goto	l5515
  5043  002C12                     u7670:
  5044  002C12                     
  5045                           ; BSR set to: 0
  5046  002C12  C087  F07D         	movff	floorf@e,??_floorf
  5047  002C16  0EFF               	movlw	255
  5048  002C18  6F7E               	movwf	(??_floorf+1)& (0+255),b
  5049  002C1A  0EFF               	movlw	255
  5050  002C1C  6F7F               	movwf	(??_floorf+2)& (0+255),b
  5051  002C1E  0E7F               	movlw	127
  5052  002C20  6F80               	movwf	(??_floorf+3)& (0+255),b
  5053  002C22  0E00               	movlw	0
  5054  002C24  6F81               	movwf	(??_floorf+4)& (0+255),b
  5055  002C26                     u7685:
  5056  002C26  677D               	tstfsz	??_floorf& (0+255),b
  5057  002C28  EF18  F016         	goto	u7686
  5058  002C2C  EF20  F016         	goto	u7687
  5059  002C30                     u7686:
  5060  002C30  3581               	rlcf	(??_floorf+4)& (0+255),w,b
  5061  002C32  3381               	rrcf	(??_floorf+4)& (0+255),f,b
  5062  002C34  3380               	rrcf	(??_floorf+3)& (0+255),f,b
  5063  002C36  337F               	rrcf	(??_floorf+2)& (0+255),f,b
  5064  002C38  337E               	rrcf	(??_floorf+1)& (0+255),f,b
  5065  002C3A  2F7D               	decfsz	??_floorf& (0+255),f,b
  5066  002C3C  EF13  F016         	goto	u7685
  5067  002C40                     u7687:
  5068  002C40  C07E  F083         	movff	??_floorf+1,floorf@m
  5069  002C44  C07F  F084         	movff	??_floorf+2,floorf@m+1
  5070  002C48  C080  F085         	movff	??_floorf+3,floorf@m+2
  5071  002C4C  C081  F086         	movff	??_floorf+4,floorf@m+3
  5072  002C50  0100               	movlb	0	; () banked
  5073  002C52  5183               	movf	floorf@m& (0+255),w,b
  5074  002C54  1589               	andwf	floorf@u& (0+255),w,b
  5075  002C56  6F7D               	movwf	??_floorf& (0+255),b
  5076  002C58  5184               	movf	(floorf@m+1)& (0+255),w,b
  5077  002C5A  158A               	andwf	(floorf@u+1)& (0+255),w,b
  5078  002C5C  6F7E               	movwf	(??_floorf+1)& (0+255),b
  5079  002C5E  5185               	movf	(floorf@m+2)& (0+255),w,b
  5080  002C60  158B               	andwf	(floorf@u+2)& (0+255),w,b
  5081  002C62  6F7F               	movwf	(??_floorf+2)& (0+255),b
  5082  002C64  5186               	movf	(floorf@m+3)& (0+255),w,b
  5083  002C66  158C               	andwf	(floorf@u+3)& (0+255),w,b
  5084  002C68  6F80               	movwf	(??_floorf+3)& (0+255),b
  5085  002C6A  517D               	movf	??_floorf& (0+255),w,b
  5086  002C6C  117E               	iorwf	(??_floorf+1)& (0+255),w,b
  5087  002C6E  117F               	iorwf	(??_floorf+2)& (0+255),w,b
  5088  002C70  1180               	iorwf	(??_floorf+3)& (0+255),w,b
  5089  002C72  A4D8               	btfss	status,2,c
  5090  002C74  EF3E  F016         	goto	u7691
  5091  002C78  EF40  F016         	goto	u7690
  5092  002C7C                     u7691:
  5093  002C7C  EF42  F016         	goto	l5511
  5094  002C80                     u7690:
  5095  002C80  EFF8  F015         	goto	l5503
  5096  002C84                     l5511:
  5097                           
  5098                           ; BSR set to: 0
  5099  002C84  C089  F07D         	movff	floorf@u,??_floorf
  5100  002C88  C08A  F07E         	movff	floorf@u+1,??_floorf+1
  5101  002C8C  C08B  F07F         	movff	floorf@u+2,??_floorf+2
  5102  002C90  C08C  F080         	movff	floorf@u+3,??_floorf+3
  5103  002C94  0E20               	movlw	32
  5104  002C96  EF52  F016         	goto	u7700
  5105  002C9A                     u7705:
  5106  002C9A  90D8               	bcf	status,0,c
  5107  002C9C  3380               	rrcf	(??_floorf+3)& (0+255),f,b
  5108  002C9E  337F               	rrcf	(??_floorf+2)& (0+255),f,b
  5109  002CA0  337E               	rrcf	(??_floorf+1)& (0+255),f,b
  5110  002CA2  337D               	rrcf	??_floorf& (0+255),f,b
  5111  002CA4                     u7700:
  5112  002CA4  2EE8               	decfsz	wreg,f,c
  5113  002CA6  EF4D  F016         	goto	u7705
  5114  002CAA  517D               	movf	??_floorf& (0+255),w,b
  5115  002CAC  117E               	iorwf	(??_floorf+1)& (0+255),w,b
  5116  002CAE  117F               	iorwf	(??_floorf+2)& (0+255),w,b
  5117  002CB0  1180               	iorwf	(??_floorf+3)& (0+255),w,b
  5118  002CB2  B4D8               	btfsc	status,2,c
  5119  002CB4  EF5E  F016         	goto	u7711
  5120  002CB8  EF60  F016         	goto	u7710
  5121  002CBC                     u7711:
  5122  002CBC  EF68  F016         	goto	l1038
  5123  002CC0                     u7710:
  5124  002CC0                     
  5125                           ; BSR set to: 0
  5126  002CC0  5183               	movf	floorf@m& (0+255),w,b
  5127  002CC2  2789               	addwf	floorf@u& (0+255),f,b
  5128  002CC4  5184               	movf	(floorf@m+1)& (0+255),w,b
  5129  002CC6  238A               	addwfc	(floorf@u+1)& (0+255),f,b
  5130  002CC8  5185               	movf	(floorf@m+2)& (0+255),w,b
  5131  002CCA  238B               	addwfc	(floorf@u+2)& (0+255),f,b
  5132  002CCC  5186               	movf	(floorf@m+3)& (0+255),w,b
  5133  002CCE  238C               	addwfc	(floorf@u+3)& (0+255),f,b
  5134  002CD0                     l1038:
  5135                           
  5136                           ; BSR set to: 0
  5137  002CD0  1D83               	comf	floorf@m& (0+255),w,b
  5138  002CD2  6F7D               	movwf	??_floorf& (0+255),b
  5139  002CD4  1D84               	comf	(floorf@m+1)& (0+255),w,b
  5140  002CD6  6F7E               	movwf	(??_floorf+1)& (0+255),b
  5141  002CD8  1D85               	comf	(floorf@m+2)& (0+255),w,b
  5142  002CDA  6F7F               	movwf	(??_floorf+2)& (0+255),b
  5143  002CDC  1D86               	comf	(floorf@m+3)& (0+255),w,b
  5144  002CDE  6F80               	movwf	(??_floorf+3)& (0+255),b
  5145  002CE0  517D               	movf	??_floorf& (0+255),w,b
  5146  002CE2  1789               	andwf	floorf@u& (0+255),f,b
  5147  002CE4  517E               	movf	(??_floorf+1)& (0+255),w,b
  5148  002CE6  178A               	andwf	(floorf@u+1)& (0+255),f,b
  5149  002CE8  517F               	movf	(??_floorf+2)& (0+255),w,b
  5150  002CEA  178B               	andwf	(floorf@u+2)& (0+255),f,b
  5151  002CEC  5180               	movf	(??_floorf+3)& (0+255),w,b
  5152  002CEE  178C               	andwf	(floorf@u+3)& (0+255),f,b
  5153  002CF0  EFBE  F016         	goto	l5523
  5154  002CF4                     l5515:
  5155                           
  5156                           ; BSR set to: 0
  5157  002CF4  C089  F07D         	movff	floorf@u,??_floorf
  5158  002CF8  C08A  F07E         	movff	floorf@u+1,??_floorf+1
  5159  002CFC  C08B  F07F         	movff	floorf@u+2,??_floorf+2
  5160  002D00  C08C  F080         	movff	floorf@u+3,??_floorf+3
  5161  002D04  0E20               	movlw	32
  5162  002D06  EF8A  F016         	goto	u7720
  5163  002D0A                     u7725:
  5164  002D0A  90D8               	bcf	status,0,c
  5165  002D0C  3380               	rrcf	(??_floorf+3)& (0+255),f,b
  5166  002D0E  337F               	rrcf	(??_floorf+2)& (0+255),f,b
  5167  002D10  337E               	rrcf	(??_floorf+1)& (0+255),f,b
  5168  002D12  337D               	rrcf	??_floorf& (0+255),f,b
  5169  002D14                     u7720:
  5170  002D14  2EE8               	decfsz	wreg,f,c
  5171  002D16  EF85  F016         	goto	u7725
  5172  002D1A  517D               	movf	??_floorf& (0+255),w,b
  5173  002D1C  117E               	iorwf	(??_floorf+1)& (0+255),w,b
  5174  002D1E  117F               	iorwf	(??_floorf+2)& (0+255),w,b
  5175  002D20  1180               	iorwf	(??_floorf+3)& (0+255),w,b
  5176  002D22  A4D8               	btfss	status,2,c
  5177  002D24  EF96  F016         	goto	u7731
  5178  002D28  EF98  F016         	goto	u7730
  5179  002D2C                     u7731:
  5180  002D2C  EFA2  F016         	goto	l5519
  5181  002D30                     u7730:
  5182  002D30                     
  5183                           ; BSR set to: 0
  5184  002D30  0E00               	movlw	0
  5185  002D32  6F89               	movwf	floorf@u& (0+255),b
  5186  002D34  0E00               	movlw	0
  5187  002D36  6F8A               	movwf	(floorf@u+1)& (0+255),b
  5188  002D38  0E00               	movlw	0
  5189  002D3A  6F8B               	movwf	(floorf@u+2)& (0+255),b
  5190  002D3C  0E00               	movlw	0
  5191  002D3E  6F8C               	movwf	(floorf@u+3)& (0+255),b
  5192  002D40  EFBE  F016         	goto	l5523
  5193  002D44                     l5519:
  5194                           
  5195                           ; BSR set to: 0
  5196  002D44  90D8               	bcf	status,0,c
  5197  002D46  3589               	rlcf	floorf@u& (0+255),w,b
  5198  002D48  6F7D               	movwf	??_floorf& (0+255),b
  5199  002D4A  358A               	rlcf	(floorf@u+1)& (0+255),w,b
  5200  002D4C  6F7E               	movwf	(??_floorf+1)& (0+255),b
  5201  002D4E  358B               	rlcf	(floorf@u+2)& (0+255),w,b
  5202  002D50  6F7F               	movwf	(??_floorf+2)& (0+255),b
  5203  002D52  358C               	rlcf	(floorf@u+3)& (0+255),w,b
  5204  002D54  6F80               	movwf	(??_floorf+3)& (0+255),b
  5205  002D56  517D               	movf	??_floorf& (0+255),w,b
  5206  002D58  117E               	iorwf	(??_floorf+1)& (0+255),w,b
  5207  002D5A  117F               	iorwf	(??_floorf+2)& (0+255),w,b
  5208  002D5C  1180               	iorwf	(??_floorf+3)& (0+255),w,b
  5209  002D5E  B4D8               	btfsc	status,2,c
  5210  002D60  EFB4  F016         	goto	u7741
  5211  002D64  EFB6  F016         	goto	u7740
  5212  002D68                     u7741:
  5213  002D68  EFBE  F016         	goto	l5523
  5214  002D6C                     u7740:
  5215  002D6C                     
  5216                           ; BSR set to: 0
  5217  002D6C  0E00               	movlw	0
  5218  002D6E  6F89               	movwf	floorf@u& (0+255),b
  5219  002D70  0E00               	movlw	0
  5220  002D72  6F8A               	movwf	(floorf@u+1)& (0+255),b
  5221  002D74  0E80               	movlw	128
  5222  002D76  6F8B               	movwf	(floorf@u+2)& (0+255),b
  5223  002D78  0EBF               	movlw	191
  5224  002D7A  6F8C               	movwf	(floorf@u+3)& (0+255),b
  5225  002D7C                     l5523:
  5226                           
  5227                           ; BSR set to: 0
  5228  002D7C  C089  F079         	movff	floorf@u,?_floorf
  5229  002D80  C08A  F07A         	movff	floorf@u+1,?_floorf+1
  5230  002D84  C08B  F07B         	movff	floorf@u+2,?_floorf+2
  5231  002D88  C08C  F07C         	movff	floorf@u+3,?_floorf+3
  5232  002D8C                     l1035:
  5233                           
  5234                           ; BSR set to: 0
  5235  002D8C  0012               	return		;funcret
  5236  002D8E                     __end_of_floorf:
  5237                           	callstack 0
  5238                           
  5239 ;; *************** function ___fpclassifyf *****************
  5240 ;; Defined at:
  5241 ;;		line 4 in file "C:\Program Files\Microchip\xc8\v2.32\pic\sources\c99\common\__fpclassifyf.c"
  5242 ;; Parameters:    Size  Location     Type
  5243 ;;  x               4    0[BANK0 ] float 
  5244 ;; Auto vars:     Size  Location     Type
  5245 ;;  u               4   10[BANK0 ] struct .
  5246 ;;  e               2    8[BANK0 ] int 
  5247 ;; Return value:  Size  Location     Type
  5248 ;;                  2    0[BANK0 ] int 
  5249 ;; Registers used:
  5250 ;;		wreg, status,2, status,0
  5251 ;; Tracked objects:
  5252 ;;		On entry : 0/0
  5253 ;;		On exit  : 0/0
  5254 ;;		Unchanged: 0/0
  5255 ;; Data sizes:     COMRAM   BANK0   BANK1   BANK2   BANK3   BANK4   BANK5   BANK6   BANK7
  5256 ;;      Params:         0       4       0       0       0       0       0       0       0
  5257 ;;      Locals:         0       6       0       0       0       0       0       0       0
  5258 ;;      Temps:          0       4       0       0       0       0       0       0       0
  5259 ;;      Totals:         0      14       0       0       0       0       0       0       0
  5260 ;;Total ram usage:       14 bytes
  5261 ;; Hardware stack levels used: 1
  5262 ;; Hardware stack levels required when called: 4
  5263 ;; This function calls:
  5264 ;;		Nothing
  5265 ;; This function is called by:
  5266 ;;		_efgtoa
  5267 ;; This function uses a non-reentrant model
  5268 ;;
  5269                           
  5270                           	psect	text14
  5271  0038E8                     __ptext14:
  5272                           	callstack 0
  5273  0038E8                     ___fpclassifyf:
  5274                           	callstack 22
  5275  0038E8  C027  F06A         	movff	___fpclassifyf@F465,___fpclassifyf@u
  5276  0038EC  C028  F06B         	movff	___fpclassifyf@F465+1,___fpclassifyf@u+1
  5277  0038F0  C029  F06C         	movff	___fpclassifyf@F465+2,___fpclassifyf@u+2
  5278  0038F4  C02A  F06D         	movff	___fpclassifyf@F465+3,___fpclassifyf@u+3
  5279  0038F8  C060  F06A         	movff	___fpclassifyf@x,___fpclassifyf@u
  5280  0038FC  C061  F06B         	movff	___fpclassifyf@x+1,___fpclassifyf@u+1
  5281  003900  C062  F06C         	movff	___fpclassifyf@x+2,___fpclassifyf@u+2
  5282  003904  C063  F06D         	movff	___fpclassifyf@x+3,___fpclassifyf@u+3
  5283  003908  C06A  F064         	movff	___fpclassifyf@u,??___fpclassifyf
  5284  00390C  C06B  F065         	movff	___fpclassifyf@u+1,??___fpclassifyf+1
  5285  003910  C06C  F066         	movff	___fpclassifyf@u+2,??___fpclassifyf+2
  5286  003914  C06D  F067         	movff	___fpclassifyf@u+3,??___fpclassifyf+3
  5287  003918  0E18               	movlw	24
  5288  00391A  EF95  F01C         	goto	u7530
  5289  00391E                     u7535:
  5290  00391E  0100               	movlb	0	; () banked
  5291  003920  90D8               	bcf	status,0,c
  5292  003922  3367               	rrcf	(??___fpclassifyf+3)& (0+255),f,b
  5293  003924  3366               	rrcf	(??___fpclassifyf+2)& (0+255),f,b
  5294  003926  3365               	rrcf	(??___fpclassifyf+1)& (0+255),f,b
  5295  003928  3364               	rrcf	??___fpclassifyf& (0+255),f,b
  5296  00392A                     u7530:
  5297  00392A  2EE8               	decfsz	wreg,f,c
  5298  00392C  EF8F  F01C         	goto	u7535
  5299  003930  5164               	movf	??___fpclassifyf& (0+255),w,b
  5300  003932  6F68               	movwf	___fpclassifyf@e& (0+255),b
  5301  003934  6B69               	clrf	(___fpclassifyf@e+1)& (0+255),b
  5302  003936  5168               	movf	___fpclassifyf@e& (0+255),w,b
  5303  003938  1169               	iorwf	(___fpclassifyf@e+1)& (0+255),w,b
  5304  00393A  A4D8               	btfss	status,2,c
  5305  00393C  EFA2  F01C         	goto	u7541
  5306  003940  EFA4  F01C         	goto	u7540
  5307  003944                     u7541:
  5308  003944  EFC4  F01C         	goto	l5475
  5309  003948                     u7540:
  5310  003948                     
  5311                           ; BSR set to: 0
  5312  003948  90D8               	bcf	status,0,c
  5313  00394A  356A               	rlcf	___fpclassifyf@u& (0+255),w,b
  5314  00394C  6F64               	movwf	??___fpclassifyf& (0+255),b
  5315  00394E  356B               	rlcf	(___fpclassifyf@u+1)& (0+255),w,b
  5316  003950  6F65               	movwf	(??___fpclassifyf+1)& (0+255),b
  5317  003952  356C               	rlcf	(___fpclassifyf@u+2)& (0+255),w,b
  5318  003954  6F66               	movwf	(??___fpclassifyf+2)& (0+255),b
  5319  003956  356D               	rlcf	(___fpclassifyf@u+3)& (0+255),w,b
  5320  003958  6F67               	movwf	(??___fpclassifyf+3)& (0+255),b
  5321  00395A  5164               	movf	??___fpclassifyf& (0+255),w,b
  5322  00395C  1165               	iorwf	(??___fpclassifyf+1)& (0+255),w,b
  5323  00395E  1166               	iorwf	(??___fpclassifyf+2)& (0+255),w,b
  5324  003960  1167               	iorwf	(??___fpclassifyf+3)& (0+255),w,b
  5325  003962  A4D8               	btfss	status,2,c
  5326  003964  EFB6  F01C         	goto	u7551
  5327  003968  EFB8  F01C         	goto	u7550
  5328  00396C                     u7551:
  5329  00396C  EFBE  F01C         	goto	l5471
  5330  003970                     u7550:
  5331  003970                     
  5332                           ; BSR set to: 0
  5333  003970  0E00               	movlw	0
  5334  003972  6F61               	movwf	(?___fpclassifyf+1)& (0+255),b
  5335  003974  0E02               	movlw	2
  5336  003976  6F60               	movwf	?___fpclassifyf& (0+255),b
  5337  003978  EFF3  F01C         	goto	l997
  5338  00397C                     l5471:
  5339                           
  5340                           ; BSR set to: 0
  5341  00397C  0E00               	movlw	0
  5342  00397E  6F61               	movwf	(?___fpclassifyf+1)& (0+255),b
  5343  003980  0E03               	movlw	3
  5344  003982  6F60               	movwf	?___fpclassifyf& (0+255),b
  5345  003984  EFF3  F01C         	goto	l997
  5346  003988                     l5475:
  5347                           
  5348                           ; BSR set to: 0
  5349  003988  2968               	incf	___fpclassifyf@e& (0+255),w,b
  5350  00398A  1169               	iorwf	(___fpclassifyf@e+1)& (0+255),w,b
  5351  00398C  A4D8               	btfss	status,2,c
  5352  00398E  EFCB  F01C         	goto	u7561
  5353  003992  EFCD  F01C         	goto	u7560
  5354  003996                     u7561:
  5355  003996  EFEF  F01C         	goto	l5481
  5356  00399A                     u7560:
  5357  00399A                     
  5358                           ; BSR set to: 0
  5359  00399A  C06A  F064         	movff	___fpclassifyf@u,??___fpclassifyf
  5360  00399E  C06B  F065         	movff	___fpclassifyf@u+1,??___fpclassifyf+1
  5361  0039A2  C06C  F066         	movff	___fpclassifyf@u+2,??___fpclassifyf+2
  5362  0039A6  C06D  F067         	movff	___fpclassifyf@u+3,??___fpclassifyf+3
  5363  0039AA  0E09               	movlw	9
  5364  0039AC                     u7575:
  5365  0039AC  90D8               	bcf	status,0,c
  5366  0039AE  3764               	rlcf	??___fpclassifyf& (0+255),f,b
  5367  0039B0  3765               	rlcf	(??___fpclassifyf+1)& (0+255),f,b
  5368  0039B2  3766               	rlcf	(??___fpclassifyf+2)& (0+255),f,b
  5369  0039B4  3767               	rlcf	(??___fpclassifyf+3)& (0+255),f,b
  5370  0039B6  2EE8               	decfsz	wreg,f,c
  5371  0039B8  EFD6  F01C         	goto	u7575
  5372  0039BC  5164               	movf	??___fpclassifyf& (0+255),w,b
  5373  0039BE  1165               	iorwf	(??___fpclassifyf+1)& (0+255),w,b
  5374  0039C0  1166               	iorwf	(??___fpclassifyf+2)& (0+255),w,b
  5375  0039C2  1167               	iorwf	(??___fpclassifyf+3)& (0+255),w,b
  5376  0039C4  B4D8               	btfsc	status,2,c
  5377  0039C6  EFE7  F01C         	goto	u7581
  5378  0039CA  EFEA  F01C         	goto	u7580
  5379  0039CE                     u7581:
  5380  0039CE  0E01               	movlw	1
  5381  0039D0  EFEB  F01C         	goto	u7590
  5382  0039D4                     u7580:
  5383  0039D4  0E00               	movlw	0
  5384  0039D6                     u7590:
  5385  0039D6  6F60               	movwf	?___fpclassifyf& (0+255),b
  5386  0039D8  6B61               	clrf	(?___fpclassifyf+1)& (0+255),b
  5387  0039DA  EFF3  F01C         	goto	l997
  5388  0039DE                     l5481:
  5389                           
  5390                           ; BSR set to: 0
  5391  0039DE  0E00               	movlw	0
  5392  0039E0  6F61               	movwf	(?___fpclassifyf+1)& (0+255),b
  5393  0039E2  0E04               	movlw	4
  5394  0039E4  6F60               	movwf	?___fpclassifyf& (0+255),b
  5395  0039E6                     l997:
  5396                           
  5397                           ; BSR set to: 0
  5398  0039E6  0012               	return		;funcret
  5399  0039E8                     __end_of___fpclassifyf:
  5400                           	callstack 0
  5401                           
  5402 ;; *************** function ___fltol *****************
  5403 ;; Defined at:
  5404 ;;		line 43 in file "C:\Program Files\Microchip\xc8\v2.32\pic\sources\c99\common\fltol.c"
  5405 ;; Parameters:    Size  Location     Type
  5406 ;;  f1              4    0[BANK0 ] int 
  5407 ;; Auto vars:     Size  Location     Type
  5408 ;;  exp1            1    9[BANK0 ] unsigned char 
  5409 ;;  sign1           1    8[BANK0 ] unsigned char 
  5410 ;; Return value:  Size  Location     Type
  5411 ;;                  4    0[BANK0 ] long 
  5412 ;; Registers used:
  5413 ;;		wreg, status,2, status,0
  5414 ;; Tracked objects:
  5415 ;;		On entry : 0/0
  5416 ;;		On exit  : 0/0
  5417 ;;		Unchanged: 0/0
  5418 ;; Data sizes:     COMRAM   BANK0   BANK1   BANK2   BANK3   BANK4   BANK5   BANK6   BANK7
  5419 ;;      Params:         0       4       0       0       0       0       0       0       0
  5420 ;;      Locals:         0       2       0       0       0       0       0       0       0
  5421 ;;      Temps:          0       4       0       0       0       0       0       0       0
  5422 ;;      Totals:         0      10       0       0       0       0       0       0       0
  5423 ;;Total ram usage:       10 bytes
  5424 ;; Hardware stack levels used: 1
  5425 ;; Hardware stack levels required when called: 4
  5426 ;; This function calls:
  5427 ;;		Nothing
  5428 ;; This function is called by:
  5429 ;;		_main
  5430 ;;		_efgtoa
  5431 ;; This function uses a non-reentrant model
  5432 ;;
  5433                           
  5434                           	psect	text15
  5435  0035D6                     __ptext15:
  5436                           	callstack 0
  5437  0035D6                     ___fltol:
  5438                           	callstack 22
  5439  0035D6  0100               	movlb	0	; () banked
  5440  0035D8  3562               	rlcf	(___fltol@f1+2)& (0+255),w,b
  5441  0035DA  3563               	rlcf	(___fltol@f1+3)& (0+255),w,b
  5442  0035DC  6F69               	movwf	___fltol@exp1& (0+255),b
  5443  0035DE  5169               	movf	___fltol@exp1& (0+255),w,b
  5444  0035E0  A4D8               	btfss	status,2,c
  5445  0035E2  EFF5  F01A         	goto	u7421
  5446  0035E6  EFF7  F01A         	goto	u7420
  5447  0035EA                     u7421:
  5448  0035EA  EF01  F01B         	goto	l5403
  5449  0035EE                     u7420:
  5450  0035EE                     l5399:
  5451                           
  5452                           ; BSR set to: 0
  5453  0035EE  0E00               	movlw	0
  5454  0035F0  6F60               	movwf	?___fltol& (0+255),b
  5455  0035F2  0E00               	movlw	0
  5456  0035F4  6F61               	movwf	(?___fltol+1)& (0+255),b
  5457  0035F6  0E00               	movlw	0
  5458  0035F8  6F62               	movwf	(?___fltol+2)& (0+255),b
  5459  0035FA  0E00               	movlw	0
  5460  0035FC  6F63               	movwf	(?___fltol+3)& (0+255),b
  5461  0035FE  EF6E  F01B         	goto	l426
  5462  003602                     l5403:
  5463                           
  5464                           ; BSR set to: 0
  5465  003602  C060  F064         	movff	___fltol@f1,??___fltol
  5466  003606  C061  F065         	movff	___fltol@f1+1,??___fltol+1
  5467  00360A  C062  F066         	movff	___fltol@f1+2,??___fltol+2
  5468  00360E  C063  F067         	movff	___fltol@f1+3,??___fltol+3
  5469  003612  0E20               	movlw	32
  5470  003614  EF11  F01B         	goto	u7430
  5471  003618                     u7435:
  5472  003618  90D8               	bcf	status,0,c
  5473  00361A  3367               	rrcf	(??___fltol+3)& (0+255),f,b
  5474  00361C  3366               	rrcf	(??___fltol+2)& (0+255),f,b
  5475  00361E  3365               	rrcf	(??___fltol+1)& (0+255),f,b
  5476  003620  3364               	rrcf	??___fltol& (0+255),f,b
  5477  003622                     u7430:
  5478  003622  2EE8               	decfsz	wreg,f,c
  5479  003624  EF0C  F01B         	goto	u7435
  5480  003628  5164               	movf	??___fltol& (0+255),w,b
  5481  00362A  6F68               	movwf	___fltol@sign1& (0+255),b
  5482  00362C                     
  5483                           ; BSR set to: 0
  5484  00362C  8F62               	bsf	(___fltol@f1+2)& (0+255),7,b
  5485  00362E                     
  5486                           ; BSR set to: 0
  5487  00362E  0EFF               	movlw	255
  5488  003630  1760               	andwf	___fltol@f1& (0+255),f,b
  5489  003632  0EFF               	movlw	255
  5490  003634  1761               	andwf	(___fltol@f1+1)& (0+255),f,b
  5491  003636  0EFF               	movlw	255
  5492  003638  1762               	andwf	(___fltol@f1+2)& (0+255),f,b
  5493  00363A  0E00               	movlw	0
  5494  00363C  1763               	andwf	(___fltol@f1+3)& (0+255),f,b
  5495  00363E                     
  5496                           ; BSR set to: 0
  5497  00363E  0E96               	movlw	150
  5498  003640  5F69               	subwf	___fltol@exp1& (0+255),f,b
  5499  003642                     
  5500                           ; BSR set to: 0
  5501  003642  BF69               	btfsc	___fltol@exp1& (0+255),7,b
  5502  003644  EF28  F01B         	goto	u7440
  5503  003648  EF26  F01B         	goto	u7441
  5504  00364C                     u7441:
  5505  00364C  EF3E  F01B         	goto	l5423
  5506  003650                     u7440:
  5507  003650                     
  5508                           ; BSR set to: 0
  5509  003650  5169               	movf	___fltol@exp1& (0+255),w,b
  5510  003652  0A80               	xorlw	128
  5511  003654  0F97               	addlw	151
  5512  003656  B0D8               	btfsc	status,0,c
  5513  003658  EF30  F01B         	goto	u7451
  5514  00365C  EF32  F01B         	goto	u7450
  5515  003660                     u7451:
  5516  003660  EF34  F01B         	goto	l5419
  5517  003664                     u7450:
  5518  003664  EFF7  F01A         	goto	l5399
  5519  003668                     l5419:
  5520                           
  5521                           ; BSR set to: 0
  5522  003668  90D8               	bcf	status,0,c
  5523  00366A  3363               	rrcf	(___fltol@f1+3)& (0+255),f,b
  5524  00366C  3362               	rrcf	(___fltol@f1+2)& (0+255),f,b
  5525  00366E  3361               	rrcf	(___fltol@f1+1)& (0+255),f,b
  5526  003670  3360               	rrcf	___fltol@f1& (0+255),f,b
  5527  003672                     
  5528                           ; BSR set to: 0
  5529  003672  3F69               	incfsz	___fltol@exp1& (0+255),f,b
  5530  003674  EF34  F01B         	goto	l5419
  5531  003678  EF56  F01B         	goto	l5433
  5532  00367C                     l5423:
  5533                           
  5534                           ; BSR set to: 0
  5535  00367C  0E1F               	movlw	31
  5536  00367E  6569               	cpfsgt	___fltol@exp1& (0+255),b
  5537  003680  EF44  F01B         	goto	u7461
  5538  003684  EF46  F01B         	goto	u7460
  5539  003688                     u7461:
  5540  003688  EF4E  F01B         	goto	l5431
  5541  00368C                     u7460:
  5542  00368C  EFF7  F01A         	goto	l5399
  5543  003690                     l5429:
  5544                           
  5545                           ; BSR set to: 0
  5546  003690  90D8               	bcf	status,0,c
  5547  003692  3760               	rlcf	___fltol@f1& (0+255),f,b
  5548  003694  3761               	rlcf	(___fltol@f1+1)& (0+255),f,b
  5549  003696  3762               	rlcf	(___fltol@f1+2)& (0+255),f,b
  5550  003698  3763               	rlcf	(___fltol@f1+3)& (0+255),f,b
  5551  00369A  0769               	decf	___fltol@exp1& (0+255),f,b
  5552  00369C                     l5431:
  5553                           
  5554                           ; BSR set to: 0
  5555  00369C  5169               	movf	___fltol@exp1& (0+255),w,b
  5556  00369E  A4D8               	btfss	status,2,c
  5557  0036A0  EF54  F01B         	goto	u7471
  5558  0036A4  EF56  F01B         	goto	u7470
  5559  0036A8                     u7471:
  5560  0036A8  EF48  F01B         	goto	l5429
  5561  0036AC                     u7470:
  5562  0036AC                     l5433:
  5563                           
  5564                           ; BSR set to: 0
  5565  0036AC  5168               	movf	___fltol@sign1& (0+255),w,b
  5566  0036AE  B4D8               	btfsc	status,2,c
  5567  0036B0  EF5C  F01B         	goto	u7481
  5568  0036B4  EF5E  F01B         	goto	u7480
  5569  0036B8                     u7481:
  5570  0036B8  EF66  F01B         	goto	l5437
  5571  0036BC                     u7480:
  5572  0036BC                     
  5573                           ; BSR set to: 0
  5574  0036BC  1F63               	comf	(___fltol@f1+3)& (0+255),f,b
  5575  0036BE  1F62               	comf	(___fltol@f1+2)& (0+255),f,b
  5576  0036C0  1F61               	comf	(___fltol@f1+1)& (0+255),f,b
  5577  0036C2  6D60               	negf	___fltol@f1& (0+255),b
  5578  0036C4  0E00               	movlw	0
  5579  0036C6  2361               	addwfc	(___fltol@f1+1)& (0+255),f,b
  5580  0036C8  2362               	addwfc	(___fltol@f1+2)& (0+255),f,b
  5581  0036CA  2363               	addwfc	(___fltol@f1+3)& (0+255),f,b
  5582  0036CC                     l5437:
  5583                           
  5584                           ; BSR set to: 0
  5585  0036CC  C060  F060         	movff	___fltol@f1,?___fltol
  5586  0036D0  C061  F061         	movff	___fltol@f1+1,?___fltol+1
  5587  0036D4  C062  F062         	movff	___fltol@f1+2,?___fltol+2
  5588  0036D8  C063  F063         	movff	___fltol@f1+3,?___fltol+3
  5589  0036DC                     l426:
  5590                           
  5591                           ; BSR set to: 0
  5592  0036DC  0012               	return		;funcret
  5593  0036DE                     __end_of___fltol:
  5594                           	callstack 0
  5595                           
  5596 ;; *************** function ___flsub *****************
  5597 ;; Defined at:
  5598 ;;		line 245 in file "C:\Program Files\Microchip\xc8\v2.32\pic\sources\c99\common\sprcadd.c"
  5599 ;; Parameters:    Size  Location     Type
  5600 ;;  b               4   45[BANK0 ] long 
  5601 ;;  a               4   49[BANK0 ] long 
  5602 ;; Auto vars:     Size  Location     Type
  5603 ;;		None
  5604 ;; Return value:  Size  Location     Type
  5605 ;;                  4   45[BANK0 ] long 
  5606 ;; Registers used:
  5607 ;;		wreg, status,2, status,0, cstack
  5608 ;; Tracked objects:
  5609 ;;		On entry : 0/0
  5610 ;;		On exit  : 0/0
  5611 ;;		Unchanged: 0/0
  5612 ;; Data sizes:     COMRAM   BANK0   BANK1   BANK2   BANK3   BANK4   BANK5   BANK6   BANK7
  5613 ;;      Params:         0       8       0       0       0       0       0       0       0
  5614 ;;      Locals:         0       0       0       0       0       0       0       0       0
  5615 ;;      Temps:          0       0       0       0       0       0       0       0       0
  5616 ;;      Totals:         0       8       0       0       0       0       0       0       0
  5617 ;;Total ram usage:        8 bytes
  5618 ;; Hardware stack levels used: 1
  5619 ;; Hardware stack levels required when called: 5
  5620 ;; This function calls:
  5621 ;;		___fladd
  5622 ;; This function is called by:
  5623 ;;		_efgtoa
  5624 ;; This function uses a non-reentrant model
  5625 ;;
  5626                           
  5627                           	psect	text16
  5628  004426                     __ptext16:
  5629                           	callstack 0
  5630  004426                     ___flsub:
  5631                           	callstack 21
  5632  004426  0E00               	movlw	0
  5633  004428  0100               	movlb	0	; () banked
  5634  00442A  1B91               	xorwf	___flsub@a& (0+255),f,b
  5635  00442C  0E00               	movlw	0
  5636  00442E  1B92               	xorwf	(___flsub@a+1)& (0+255),f,b
  5637  004430  0E00               	movlw	0
  5638  004432  1B93               	xorwf	(___flsub@a+2)& (0+255),f,b
  5639  004434  0E80               	movlw	128
  5640  004436  1B94               	xorwf	(___flsub@a+3)& (0+255),f,b
  5641  004438                     
  5642                           ; BSR set to: 0
  5643  004438  C08D  F060         	movff	___flsub@b,___fladd@b
  5644  00443C  C08E  F061         	movff	___flsub@b+1,___fladd@b+1
  5645  004440  C08F  F062         	movff	___flsub@b+2,___fladd@b+2
  5646  004444  C090  F063         	movff	___flsub@b+3,___fladd@b+3
  5647  004448  C091  F064         	movff	___flsub@a,___fladd@a
  5648  00444C  C092  F065         	movff	___flsub@a+1,___fladd@a+1
  5649  004450  C093  F066         	movff	___flsub@a+2,___fladd@a+2
  5650  004454  C094  F067         	movff	___flsub@a+3,___fladd@a+3
  5651  004458  EC17  F00D         	call	___fladd	;wreg free
  5652  00445C  C060  F08D         	movff	?___fladd,?___flsub
  5653  004460  C061  F08E         	movff	?___fladd+1,?___flsub+1
  5654  004464  C062  F08F         	movff	?___fladd+2,?___flsub+2
  5655  004468  C063  F090         	movff	?___fladd+3,?___flsub+3
  5656  00446C  0012               	return		;funcret
  5657  00446E                     __end_of___flsub:
  5658                           	callstack 0
  5659                           
  5660 ;; *************** function ___fladd *****************
  5661 ;; Defined at:
  5662 ;;		line 10 in file "C:\Program Files\Microchip\xc8\v2.32\pic\sources\c99\common\sprcadd.c"
  5663 ;; Parameters:    Size  Location     Type
  5664 ;;  b               4    0[BANK0 ] long 
  5665 ;;  a               4    4[BANK0 ] long 
  5666 ;; Auto vars:     Size  Location     Type
  5667 ;;  grs             1   15[BANK0 ] unsigned char 
  5668 ;;  bexp            1   14[BANK0 ] unsigned char 
  5669 ;;  aexp            1   13[BANK0 ] unsigned char 
  5670 ;;  signs           1   12[BANK0 ] unsigned char 
  5671 ;; Return value:  Size  Location     Type
  5672 ;;                  4    0[BANK0 ] unsigned char 
  5673 ;; Registers used:
  5674 ;;		wreg, status,2, status,0
  5675 ;; Tracked objects:
  5676 ;;		On entry : 0/0
  5677 ;;		On exit  : 0/0
  5678 ;;		Unchanged: 0/0
  5679 ;; Data sizes:     COMRAM   BANK0   BANK1   BANK2   BANK3   BANK4   BANK5   BANK6   BANK7
  5680 ;;      Params:         0       8       0       0       0       0       0       0       0
  5681 ;;      Locals:         0       4       0       0       0       0       0       0       0
  5682 ;;      Temps:          0       4       0       0       0       0       0       0       0
  5683 ;;      Totals:         0      16       0       0       0       0       0       0       0
  5684 ;;Total ram usage:       16 bytes
  5685 ;; Hardware stack levels used: 1
  5686 ;; Hardware stack levels required when called: 4
  5687 ;; This function calls:
  5688 ;;		Nothing
  5689 ;; This function is called by:
  5690 ;;		___flsub
  5691 ;;		_efgtoa
  5692 ;; This function uses a non-reentrant model
  5693 ;;
  5694                           
  5695                           	psect	text17
  5696  001A2E                     __ptext17:
  5697                           	callstack 0
  5698  001A2E                     ___fladd:
  5699                           	callstack 21
  5700  001A2E  0100               	movlb	0	; () banked
  5701  001A30  5163               	movf	(___fladd@b+3)& (0+255),w,b
  5702  001A32  0B80               	andlw	128
  5703  001A34  6F6C               	movwf	___fladd@signs& (0+255),b
  5704  001A36  5163               	movf	(___fladd@b+3)& (0+255),w,b
  5705  001A38  2563               	addwf	(___fladd@b+3)& (0+255),w,b
  5706  001A3A  6F6E               	movwf	___fladd@bexp& (0+255),b
  5707  001A3C                     
  5708                           ; BSR set to: 0
  5709  001A3C  AF62               	btfss	(___fladd@b+2)& (0+255),7,b
  5710  001A3E  EF23  F00D         	goto	u6371
  5711  001A42  EF25  F00D         	goto	u6370
  5712  001A46                     u6371:
  5713  001A46  EF26  F00D         	goto	l4783
  5714  001A4A                     u6370:
  5715  001A4A                     
  5716                           ; BSR set to: 0
  5717  001A4A  816E               	bsf	___fladd@bexp& (0+255),0,b
  5718  001A4C                     l4783:
  5719                           
  5720                           ; BSR set to: 0
  5721  001A4C  516E               	movf	___fladd@bexp& (0+255),w,b
  5722  001A4E  B4D8               	btfsc	status,2,c
  5723  001A50  EF2C  F00D         	goto	u6381
  5724  001A54  EF2E  F00D         	goto	u6380
  5725  001A58                     u6381:
  5726  001A58  EF43  F00D         	goto	l4793
  5727  001A5C                     u6380:
  5728  001A5C                     
  5729                           ; BSR set to: 0
  5730  001A5C  296E               	incf	___fladd@bexp& (0+255),w,b
  5731  001A5E  A4D8               	btfss	status,2,c
  5732  001A60  EF34  F00D         	goto	u6391
  5733  001A64  EF36  F00D         	goto	u6390
  5734  001A68                     u6391:
  5735  001A68  EF3E  F00D         	goto	l4789
  5736  001A6C                     u6390:
  5737  001A6C                     
  5738                           ; BSR set to: 0
  5739  001A6C  0E00               	movlw	0
  5740  001A6E  6F60               	movwf	___fladd@b& (0+255),b
  5741  001A70  0E00               	movlw	0
  5742  001A72  6F61               	movwf	(___fladd@b+1)& (0+255),b
  5743  001A74  0E00               	movlw	0
  5744  001A76  6F62               	movwf	(___fladd@b+2)& (0+255),b
  5745  001A78  0E00               	movlw	0
  5746  001A7A  6F63               	movwf	(___fladd@b+3)& (0+255),b
  5747  001A7C                     l4789:
  5748                           
  5749                           ; BSR set to: 0
  5750  001A7C  8F62               	bsf	(___fladd@b+2)& (0+255),7,b
  5751  001A7E                     
  5752                           ; BSR set to: 0
  5753  001A7E  0E00               	movlw	0
  5754  001A80  6F63               	movwf	(___fladd@b+3)& (0+255),b
  5755  001A82  EF4B  F00D         	goto	l4795
  5756  001A86                     l4793:
  5757                           
  5758                           ; BSR set to: 0
  5759  001A86  0E00               	movlw	0
  5760  001A88  6F60               	movwf	___fladd@b& (0+255),b
  5761  001A8A  0E00               	movlw	0
  5762  001A8C  6F61               	movwf	(___fladd@b+1)& (0+255),b
  5763  001A8E  0E00               	movlw	0
  5764  001A90  6F62               	movwf	(___fladd@b+2)& (0+255),b
  5765  001A92  0E00               	movlw	0
  5766  001A94  6F63               	movwf	(___fladd@b+3)& (0+255),b
  5767  001A96                     l4795:
  5768                           
  5769                           ; BSR set to: 0
  5770  001A96  5167               	movf	(___fladd@a+3)& (0+255),w,b
  5771  001A98  0B80               	andlw	128
  5772  001A9A  6F6D               	movwf	___fladd@aexp& (0+255),b
  5773  001A9C                     
  5774                           ; BSR set to: 0
  5775  001A9C  516C               	movf	___fladd@signs& (0+255),w,b
  5776  001A9E  196D               	xorwf	___fladd@aexp& (0+255),w,b
  5777  001AA0  B4D8               	btfsc	status,2,c
  5778  001AA2  EF55  F00D         	goto	u6401
  5779  001AA6  EF57  F00D         	goto	u6400
  5780  001AAA                     u6401:
  5781  001AAA  EF58  F00D         	goto	l4801
  5782  001AAE                     u6400:
  5783  001AAE                     
  5784                           ; BSR set to: 0
  5785  001AAE  8D6C               	bsf	___fladd@signs& (0+255),6,b
  5786  001AB0                     l4801:
  5787                           
  5788                           ; BSR set to: 0
  5789  001AB0  5167               	movf	(___fladd@a+3)& (0+255),w,b
  5790  001AB2  2567               	addwf	(___fladd@a+3)& (0+255),w,b
  5791  001AB4  6F6D               	movwf	___fladd@aexp& (0+255),b
  5792  001AB6                     
  5793                           ; BSR set to: 0
  5794  001AB6  AF66               	btfss	(___fladd@a+2)& (0+255),7,b
  5795  001AB8  EF60  F00D         	goto	u6411
  5796  001ABC  EF62  F00D         	goto	u6410
  5797  001AC0                     u6411:
  5798  001AC0  EF63  F00D         	goto	l4807
  5799  001AC4                     u6410:
  5800  001AC4                     
  5801                           ; BSR set to: 0
  5802  001AC4  816D               	bsf	___fladd@aexp& (0+255),0,b
  5803  001AC6                     l4807:
  5804                           
  5805                           ; BSR set to: 0
  5806  001AC6  516D               	movf	___fladd@aexp& (0+255),w,b
  5807  001AC8  B4D8               	btfsc	status,2,c
  5808  001ACA  EF69  F00D         	goto	u6421
  5809  001ACE  EF6B  F00D         	goto	u6420
  5810  001AD2                     u6421:
  5811  001AD2  EF80  F00D         	goto	l4817
  5812  001AD6                     u6420:
  5813  001AD6                     
  5814                           ; BSR set to: 0
  5815  001AD6  296D               	incf	___fladd@aexp& (0+255),w,b
  5816  001AD8  A4D8               	btfss	status,2,c
  5817  001ADA  EF71  F00D         	goto	u6431
  5818  001ADE  EF73  F00D         	goto	u6430
  5819  001AE2                     u6431:
  5820  001AE2  EF7B  F00D         	goto	l4813
  5821  001AE6                     u6430:
  5822  001AE6                     
  5823                           ; BSR set to: 0
  5824  001AE6  0E00               	movlw	0
  5825  001AE8  6F64               	movwf	___fladd@a& (0+255),b
  5826  001AEA  0E00               	movlw	0
  5827  001AEC  6F65               	movwf	(___fladd@a+1)& (0+255),b
  5828  001AEE  0E00               	movlw	0
  5829  001AF0  6F66               	movwf	(___fladd@a+2)& (0+255),b
  5830  001AF2  0E00               	movlw	0
  5831  001AF4  6F67               	movwf	(___fladd@a+3)& (0+255),b
  5832  001AF6                     l4813:
  5833                           
  5834                           ; BSR set to: 0
  5835  001AF6  8F66               	bsf	(___fladd@a+2)& (0+255),7,b
  5836  001AF8                     
  5837                           ; BSR set to: 0
  5838  001AF8  0E00               	movlw	0
  5839  001AFA  6F67               	movwf	(___fladd@a+3)& (0+255),b
  5840  001AFC  EF88  F00D         	goto	l4819
  5841  001B00                     l4817:
  5842                           
  5843                           ; BSR set to: 0
  5844  001B00  0E00               	movlw	0
  5845  001B02  6F64               	movwf	___fladd@a& (0+255),b
  5846  001B04  0E00               	movlw	0
  5847  001B06  6F65               	movwf	(___fladd@a+1)& (0+255),b
  5848  001B08  0E00               	movlw	0
  5849  001B0A  6F66               	movwf	(___fladd@a+2)& (0+255),b
  5850  001B0C  0E00               	movlw	0
  5851  001B0E  6F67               	movwf	(___fladd@a+3)& (0+255),b
  5852  001B10                     l4819:
  5853                           
  5854                           ; BSR set to: 0
  5855  001B10  516E               	movf	___fladd@bexp& (0+255),w,b
  5856  001B12  5D6D               	subwf	___fladd@aexp& (0+255),w,b
  5857  001B14  B0D8               	btfsc	status,0,c
  5858  001B16  EF8F  F00D         	goto	u6441
  5859  001B1A  EF91  F00D         	goto	u6440
  5860  001B1E                     u6441:
  5861  001B1E  EFB8  F00D         	goto	l4855
  5862  001B22                     u6440:
  5863  001B22                     
  5864                           ; BSR set to: 0
  5865  001B22  AD6C               	btfss	___fladd@signs& (0+255),6,b
  5866  001B24  EF96  F00D         	goto	u6451
  5867  001B28  EF98  F00D         	goto	u6450
  5868  001B2C                     u6451:
  5869  001B2C  EF9A  F00D         	goto	l4825
  5870  001B30                     u6450:
  5871  001B30                     
  5872                           ; BSR set to: 0
  5873  001B30  0E80               	movlw	128
  5874  001B32  1B6C               	xorwf	___fladd@signs& (0+255),f,b
  5875  001B34                     l4825:
  5876                           
  5877                           ; BSR set to: 0
  5878  001B34  C06E  F06F         	movff	___fladd@bexp,___fladd@grs
  5879  001B38                     
  5880                           ; BSR set to: 0
  5881  001B38  C06D  F06E         	movff	___fladd@aexp,___fladd@bexp
  5882  001B3C                     
  5883                           ; BSR set to: 0
  5884  001B3C  C06F  F06D         	movff	___fladd@grs,___fladd@aexp
  5885  001B40                     
  5886                           ; BSR set to: 0
  5887  001B40  C060  F06F         	movff	___fladd@b,___fladd@grs
  5888  001B44                     
  5889                           ; BSR set to: 0
  5890  001B44  C064  F060         	movff	___fladd@a,___fladd@b
  5891  001B48                     
  5892                           ; BSR set to: 0
  5893  001B48  C06F  F064         	movff	___fladd@grs,___fladd@a
  5894  001B4C                     
  5895                           ; BSR set to: 0
  5896  001B4C  C061  F06F         	movff	___fladd@b+1,___fladd@grs
  5897  001B50                     
  5898                           ; BSR set to: 0
  5899  001B50  C065  F061         	movff	___fladd@a+1,___fladd@b+1
  5900  001B54                     
  5901                           ; BSR set to: 0
  5902  001B54  C06F  F065         	movff	___fladd@grs,___fladd@a+1
  5903  001B58                     
  5904                           ; BSR set to: 0
  5905  001B58  C062  F06F         	movff	___fladd@b+2,___fladd@grs
  5906  001B5C                     
  5907                           ; BSR set to: 0
  5908  001B5C  C066  F062         	movff	___fladd@a+2,___fladd@b+2
  5909  001B60                     
  5910                           ; BSR set to: 0
  5911  001B60  C06F  F066         	movff	___fladd@grs,___fladd@a+2
  5912  001B64                     
  5913                           ; BSR set to: 0
  5914  001B64  C063  F06F         	movff	___fladd@b+3,___fladd@grs
  5915  001B68                     
  5916                           ; BSR set to: 0
  5917  001B68  C067  F063         	movff	___fladd@a+3,___fladd@b+3
  5918  001B6C                     
  5919                           ; BSR set to: 0
  5920  001B6C  C06F  F067         	movff	___fladd@grs,___fladd@a+3
  5921  001B70                     l4855:
  5922                           
  5923                           ; BSR set to: 0
  5924  001B70  0E00               	movlw	0
  5925  001B72  6F6F               	movwf	___fladd@grs& (0+255),b
  5926  001B74                     
  5927                           ; BSR set to: 0
  5928  001B74  516E               	movf	___fladd@bexp& (0+255),w,b
  5929  001B76  C06D  F068         	movff	___fladd@aexp,??___fladd
  5930  001B7A  6B69               	clrf	(??___fladd+1)& (0+255),b
  5931  001B7C  5F68               	subwf	??___fladd& (0+255),f,b
  5932  001B7E  0E00               	movlw	0
  5933  001B80  5B69               	subwfb	(??___fladd+1)& (0+255),f,b
  5934  001B82  BF69               	btfsc	(??___fladd+1)& (0+255),7,b
  5935  001B84  EFCD  F00D         	goto	u6461
  5936  001B88  5169               	movf	(??___fladd+1)& (0+255),w,b
  5937  001B8A  E109               	bnz	u6460
  5938  001B8C  0E1A               	movlw	26
  5939  001B8E  5D68               	subwf	??___fladd& (0+255),w,b
  5940  001B90  A0D8               	btfss	status,0,c
  5941  001B92  EFCD  F00D         	goto	u6461
  5942  001B96  EFCF  F00D         	goto	u6460
  5943  001B9A                     u6461:
  5944  001B9A  EF06  F00E         	goto	l658
  5945  001B9E                     u6460:
  5946  001B9E                     
  5947                           ; BSR set to: 0
  5948  001B9E  5160               	movf	___fladd@b& (0+255),w,b
  5949  001BA0  1161               	iorwf	(___fladd@b+1)& (0+255),w,b
  5950  001BA2  1162               	iorwf	(___fladd@b+2)& (0+255),w,b
  5951  001BA4  1163               	iorwf	(___fladd@b+3)& (0+255),w,b
  5952  001BA6  A4D8               	btfss	status,2,c
  5953  001BA8  EFD8  F00D         	goto	u6471
  5954  001BAC  EFDB  F00D         	goto	u6470
  5955  001BB0                     u6471:
  5956  001BB0  0E01               	movlw	1
  5957  001BB2  EFDC  F00D         	goto	u6480
  5958  001BB6                     u6470:
  5959  001BB6  0E00               	movlw	0
  5960  001BB8                     u6480:
  5961  001BB8  6F6F               	movwf	___fladd@grs& (0+255),b
  5962  001BBA                     
  5963                           ; BSR set to: 0
  5964  001BBA  0E00               	movlw	0
  5965  001BBC  6F60               	movwf	___fladd@b& (0+255),b
  5966  001BBE  0E00               	movlw	0
  5967  001BC0  6F61               	movwf	(___fladd@b+1)& (0+255),b
  5968  001BC2  0E00               	movlw	0
  5969  001BC4  6F62               	movwf	(___fladd@b+2)& (0+255),b
  5970  001BC6  0E00               	movlw	0
  5971  001BC8  6F63               	movwf	(___fladd@b+3)& (0+255),b
  5972  001BCA                     
  5973                           ; BSR set to: 0
  5974  001BCA  C06D  F06E         	movff	___fladd@aexp,___fladd@bexp
  5975  001BCE  EF0F  F00E         	goto	l657
  5976  001BD2                     l659:
  5977                           
  5978                           ; BSR set to: 0
  5979  001BD2  A16F               	btfss	___fladd@grs& (0+255),0,b
  5980  001BD4  EFEE  F00D         	goto	u6491
  5981  001BD8  EFF0  F00D         	goto	u6490
  5982  001BDC                     u6491:
  5983  001BDC  EFF6  F00D         	goto	l4867
  5984  001BE0                     u6490:
  5985  001BE0                     
  5986                           ; BSR set to: 0
  5987  001BE0  90D8               	bcf	status,0,c
  5988  001BE2  316F               	rrcf	___fladd@grs& (0+255),w,b
  5989  001BE4  0901               	iorlw	1
  5990  001BE6  6F6F               	movwf	___fladd@grs& (0+255),b
  5991  001BE8  EFF8  F00D         	goto	l4869
  5992  001BEC                     l4867:
  5993                           
  5994                           ; BSR set to: 0
  5995  001BEC  90D8               	bcf	status,0,c
  5996  001BEE  336F               	rrcf	___fladd@grs& (0+255),f,b
  5997  001BF0                     l4869:
  5998                           
  5999                           ; BSR set to: 0
  6000  001BF0  A160               	btfss	___fladd@b& (0+255),0,b
  6001  001BF2  EFFD  F00D         	goto	u6501
  6002  001BF6  EFFF  F00D         	goto	u6500
  6003  001BFA                     u6501:
  6004  001BFA  EF00  F00E         	goto	l4873
  6005  001BFE                     u6500:
  6006  001BFE                     
  6007                           ; BSR set to: 0
  6008  001BFE  8F6F               	bsf	___fladd@grs& (0+255),7,b
  6009  001C00                     l4873:
  6010                           
  6011                           ; BSR set to: 0
  6012  001C00  3563               	rlcf	(___fladd@b+3)& (0+255),w,b
  6013  001C02  3363               	rrcf	(___fladd@b+3)& (0+255),f,b
  6014  001C04  3362               	rrcf	(___fladd@b+2)& (0+255),f,b
  6015  001C06  3361               	rrcf	(___fladd@b+1)& (0+255),f,b
  6016  001C08  3360               	rrcf	___fladd@b& (0+255),f,b
  6017  001C0A                     
  6018                           ; BSR set to: 0
  6019  001C0A  2B6E               	incf	___fladd@bexp& (0+255),f,b
  6020  001C0C                     l658:
  6021                           
  6022                           ; BSR set to: 0
  6023  001C0C  516D               	movf	___fladd@aexp& (0+255),w,b
  6024  001C0E  5D6E               	subwf	___fladd@bexp& (0+255),w,b
  6025  001C10  A0D8               	btfss	status,0,c
  6026  001C12  EF0D  F00E         	goto	u6511
  6027  001C16  EF0F  F00E         	goto	u6510
  6028  001C1A                     u6511:
  6029  001C1A  EFE9  F00D         	goto	l659
  6030  001C1E                     u6510:
  6031  001C1E                     l657:
  6032                           
  6033                           ; BSR set to: 0
  6034  001C1E  BD6C               	btfsc	___fladd@signs& (0+255),6,b
  6035  001C20  EF14  F00E         	goto	u6521
  6036  001C24  EF16  F00E         	goto	u6520
  6037  001C28                     u6521:
  6038  001C28  EF56  F00E         	goto	l4901
  6039  001C2C                     u6520:
  6040  001C2C                     
  6041                           ; BSR set to: 0
  6042  001C2C  516E               	movf	___fladd@bexp& (0+255),w,b
  6043  001C2E  A4D8               	btfss	status,2,c
  6044  001C30  EF1C  F00E         	goto	u6531
  6045  001C34  EF1E  F00E         	goto	u6530
  6046  001C38                     u6531:
  6047  001C38  EF28  F00E         	goto	l4883
  6048  001C3C                     u6530:
  6049  001C3C                     
  6050                           ; BSR set to: 0
  6051  001C3C  0E00               	movlw	0
  6052  001C3E  6F60               	movwf	?___fladd& (0+255),b
  6053  001C40  0E00               	movlw	0
  6054  001C42  6F61               	movwf	(?___fladd+1)& (0+255),b
  6055  001C44  0E00               	movlw	0
  6056  001C46  6F62               	movwf	(?___fladd+2)& (0+255),b
  6057  001C48  0E00               	movlw	0
  6058  001C4A  6F63               	movwf	(?___fladd+3)& (0+255),b
  6059  001C4C  EF77  F00F         	goto	l666
  6060  001C50                     l4883:
  6061                           
  6062                           ; BSR set to: 0
  6063  001C50  5164               	movf	___fladd@a& (0+255),w,b
  6064  001C52  2760               	addwf	___fladd@b& (0+255),f,b
  6065  001C54  5165               	movf	(___fladd@a+1)& (0+255),w,b
  6066  001C56  2361               	addwfc	(___fladd@b+1)& (0+255),f,b
  6067  001C58  5166               	movf	(___fladd@a+2)& (0+255),w,b
  6068  001C5A  2362               	addwfc	(___fladd@b+2)& (0+255),f,b
  6069  001C5C  5167               	movf	(___fladd@a+3)& (0+255),w,b
  6070  001C5E  2363               	addwfc	(___fladd@b+3)& (0+255),f,b
  6071  001C60                     
  6072                           ; BSR set to: 0
  6073  001C60  A163               	btfss	(___fladd@b+3)& (0+255),0,b
  6074  001C62  EF35  F00E         	goto	u6541
  6075  001C66  EF37  F00E         	goto	u6540
  6076  001C6A                     u6541:
  6077  001C6A  EFE3  F00E         	goto	l4937
  6078  001C6E                     u6540:
  6079  001C6E                     
  6080                           ; BSR set to: 0
  6081  001C6E  A16F               	btfss	___fladd@grs& (0+255),0,b
  6082  001C70  EF3C  F00E         	goto	u6551
  6083  001C74  EF3E  F00E         	goto	u6550
  6084  001C78                     u6551:
  6085  001C78  EF44  F00E         	goto	l4891
  6086  001C7C                     u6550:
  6087  001C7C                     
  6088                           ; BSR set to: 0
  6089  001C7C  90D8               	bcf	status,0,c
  6090  001C7E  316F               	rrcf	___fladd@grs& (0+255),w,b
  6091  001C80  0901               	iorlw	1
  6092  001C82  6F6F               	movwf	___fladd@grs& (0+255),b
  6093  001C84  EF46  F00E         	goto	l4893
  6094  001C88                     l4891:
  6095                           
  6096                           ; BSR set to: 0
  6097  001C88  90D8               	bcf	status,0,c
  6098  001C8A  336F               	rrcf	___fladd@grs& (0+255),f,b
  6099  001C8C                     l4893:
  6100                           
  6101                           ; BSR set to: 0
  6102  001C8C  A160               	btfss	___fladd@b& (0+255),0,b
  6103  001C8E  EF4B  F00E         	goto	u6561
  6104  001C92  EF4D  F00E         	goto	u6560
  6105  001C96                     u6561:
  6106  001C96  EF4E  F00E         	goto	l4897
  6107  001C9A                     u6560:
  6108  001C9A                     
  6109                           ; BSR set to: 0
  6110  001C9A  8F6F               	bsf	___fladd@grs& (0+255),7,b
  6111  001C9C                     l4897:
  6112                           
  6113                           ; BSR set to: 0
  6114  001C9C  3563               	rlcf	(___fladd@b+3)& (0+255),w,b
  6115  001C9E  3363               	rrcf	(___fladd@b+3)& (0+255),f,b
  6116  001CA0  3362               	rrcf	(___fladd@b+2)& (0+255),f,b
  6117  001CA2  3361               	rrcf	(___fladd@b+1)& (0+255),f,b
  6118  001CA4  3360               	rrcf	___fladd@b& (0+255),f,b
  6119  001CA6                     
  6120                           ; BSR set to: 0
  6121  001CA6  2B6E               	incf	___fladd@bexp& (0+255),f,b
  6122  001CA8  EFE3  F00E         	goto	l4937
  6123  001CAC                     l4901:
  6124                           
  6125                           ; BSR set to: 0
  6126  001CAC  5164               	movf	___fladd@a& (0+255),w,b
  6127  001CAE  5D60               	subwf	___fladd@b& (0+255),w,b
  6128  001CB0  5165               	movf	(___fladd@a+1)& (0+255),w,b
  6129  001CB2  5961               	subwfb	(___fladd@b+1)& (0+255),w,b
  6130  001CB4  5166               	movf	(___fladd@a+2)& (0+255),w,b
  6131  001CB6  5962               	subwfb	(___fladd@b+2)& (0+255),w,b
  6132  001CB8  5163               	movf	(___fladd@b+3)& (0+255),w,b
  6133  001CBA  0A80               	xorlw	128
  6134  001CBC  6F68               	movwf	??___fladd& (0+255),b
  6135  001CBE  5167               	movf	(___fladd@a+3)& (0+255),w,b
  6136  001CC0  0A80               	xorlw	128
  6137  001CC2  5968               	subwfb	??___fladd& (0+255),w,b
  6138  001CC4  B0D8               	btfsc	status,0,c
  6139  001CC6  EF67  F00E         	goto	u6571
  6140  001CCA  EF69  F00E         	goto	u6570
  6141  001CCE                     u6571:
  6142  001CCE  EF94  F00E         	goto	l4911
  6143  001CD2                     u6570:
  6144  001CD2                     
  6145                           ; BSR set to: 0
  6146  001CD2  5160               	movf	___fladd@b& (0+255),w,b
  6147  001CD4  5D64               	subwf	___fladd@a& (0+255),w,b
  6148  001CD6  6F68               	movwf	??___fladd& (0+255),b
  6149  001CD8  5161               	movf	(___fladd@b+1)& (0+255),w,b
  6150  001CDA  5965               	subwfb	(___fladd@a+1)& (0+255),w,b
  6151  001CDC  6F69               	movwf	(??___fladd+1)& (0+255),b
  6152  001CDE  5162               	movf	(___fladd@b+2)& (0+255),w,b
  6153  001CE0  5966               	subwfb	(___fladd@a+2)& (0+255),w,b
  6154  001CE2  6F6A               	movwf	(??___fladd+2)& (0+255),b
  6155  001CE4  5163               	movf	(___fladd@b+3)& (0+255),w,b
  6156  001CE6  5967               	subwfb	(___fladd@a+3)& (0+255),w,b
  6157  001CE8  6F6B               	movwf	(??___fladd+3)& (0+255),b
  6158  001CEA  0EFF               	movlw	255
  6159  001CEC  2568               	addwf	??___fladd& (0+255),w,b
  6160  001CEE  6F60               	movwf	___fladd@b& (0+255),b
  6161  001CF0  0EFF               	movlw	255
  6162  001CF2  2169               	addwfc	(??___fladd+1)& (0+255),w,b
  6163  001CF4  6F61               	movwf	(___fladd@b+1)& (0+255),b
  6164  001CF6  0EFF               	movlw	255
  6165  001CF8  216A               	addwfc	(??___fladd+2)& (0+255),w,b
  6166  001CFA  6F62               	movwf	(___fladd@b+2)& (0+255),b
  6167  001CFC  0EFF               	movlw	255
  6168  001CFE  216B               	addwfc	(??___fladd+3)& (0+255),w,b
  6169  001D00  6F63               	movwf	(___fladd@b+3)& (0+255),b
  6170  001D02  0E80               	movlw	128
  6171  001D04  1B6C               	xorwf	___fladd@signs& (0+255),f,b
  6172  001D06                     
  6173                           ; BSR set to: 0
  6174  001D06  6D6F               	negf	___fladd@grs& (0+255),b
  6175  001D08                     
  6176                           ; BSR set to: 0
  6177  001D08  516F               	movf	___fladd@grs& (0+255),w,b
  6178  001D0A  A4D8               	btfss	status,2,c
  6179  001D0C  EF8A  F00E         	goto	u6581
  6180  001D10  EF8C  F00E         	goto	u6580
  6181  001D14                     u6581:
  6182  001D14  EF9C  F00E         	goto	l674
  6183  001D18                     u6580:
  6184  001D18                     
  6185                           ; BSR set to: 0
  6186  001D18  0E01               	movlw	1
  6187  001D1A  2760               	addwf	___fladd@b& (0+255),f,b
  6188  001D1C  0E00               	movlw	0
  6189  001D1E  2361               	addwfc	(___fladd@b+1)& (0+255),f,b
  6190  001D20  2362               	addwfc	(___fladd@b+2)& (0+255),f,b
  6191  001D22  2363               	addwfc	(___fladd@b+3)& (0+255),f,b
  6192  001D24  EF9C  F00E         	goto	l674
  6193  001D28                     l4911:
  6194                           
  6195                           ; BSR set to: 0
  6196  001D28  5164               	movf	___fladd@a& (0+255),w,b
  6197  001D2A  5F60               	subwf	___fladd@b& (0+255),f,b
  6198  001D2C  5165               	movf	(___fladd@a+1)& (0+255),w,b
  6199  001D2E  5B61               	subwfb	(___fladd@b+1)& (0+255),f,b
  6200  001D30  5166               	movf	(___fladd@a+2)& (0+255),w,b
  6201  001D32  5B62               	subwfb	(___fladd@b+2)& (0+255),f,b
  6202  001D34  5167               	movf	(___fladd@a+3)& (0+255),w,b
  6203  001D36  5B63               	subwfb	(___fladd@b+3)& (0+255),f,b
  6204  001D38                     l674:
  6205                           
  6206                           ; BSR set to: 0
  6207  001D38  5160               	movf	___fladd@b& (0+255),w,b
  6208  001D3A  1161               	iorwf	(___fladd@b+1)& (0+255),w,b
  6209  001D3C  1162               	iorwf	(___fladd@b+2)& (0+255),w,b
  6210  001D3E  1163               	iorwf	(___fladd@b+3)& (0+255),w,b
  6211  001D40  A4D8               	btfss	status,2,c
  6212  001D42  EFA5  F00E         	goto	u6591
  6213  001D46  EFA7  F00E         	goto	u6590
  6214  001D4A                     u6591:
  6215  001D4A  EFDC  F00E         	goto	l4935
  6216  001D4E                     u6590:
  6217  001D4E                     
  6218                           ; BSR set to: 0
  6219  001D4E  516F               	movf	___fladd@grs& (0+255),w,b
  6220  001D50  A4D8               	btfss	status,2,c
  6221  001D52  EFAD  F00E         	goto	u6601
  6222  001D56  EFAF  F00E         	goto	u6600
  6223  001D5A                     u6601:
  6224  001D5A  EFDC  F00E         	goto	l4935
  6225  001D5E                     u6600:
  6226  001D5E                     
  6227                           ; BSR set to: 0
  6228  001D5E  0E00               	movlw	0
  6229  001D60  6F60               	movwf	?___fladd& (0+255),b
  6230  001D62  0E00               	movlw	0
  6231  001D64  6F61               	movwf	(?___fladd+1)& (0+255),b
  6232  001D66  0E00               	movlw	0
  6233  001D68  6F62               	movwf	(?___fladd+2)& (0+255),b
  6234  001D6A  0E00               	movlw	0
  6235  001D6C  6F63               	movwf	(?___fladd+3)& (0+255),b
  6236  001D6E  EF77  F00F         	goto	l666
  6237  001D72                     l4919:
  6238                           
  6239                           ; BSR set to: 0
  6240  001D72  90D8               	bcf	status,0,c
  6241  001D74  3760               	rlcf	___fladd@b& (0+255),f,b
  6242  001D76  3761               	rlcf	(___fladd@b+1)& (0+255),f,b
  6243  001D78  3762               	rlcf	(___fladd@b+2)& (0+255),f,b
  6244  001D7A  3763               	rlcf	(___fladd@b+3)& (0+255),f,b
  6245  001D7C                     
  6246                           ; BSR set to: 0
  6247  001D7C  AF6F               	btfss	___fladd@grs& (0+255),7,b
  6248  001D7E  EFC3  F00E         	goto	u6611
  6249  001D82  EFC5  F00E         	goto	u6610
  6250  001D86                     u6611:
  6251  001D86  EFC6  F00E         	goto	l4925
  6252  001D8A                     u6610:
  6253  001D8A                     
  6254                           ; BSR set to: 0
  6255  001D8A  8160               	bsf	___fladd@b& (0+255),0,b
  6256  001D8C                     l4925:
  6257                           
  6258                           ; BSR set to: 0
  6259  001D8C  A16F               	btfss	___fladd@grs& (0+255),0,b
  6260  001D8E  EFCB  F00E         	goto	u6621
  6261  001D92  EFCD  F00E         	goto	u6620
  6262  001D96                     u6621:
  6263  001D96  EFD1  F00E         	goto	l4929
  6264  001D9A                     u6620:
  6265  001D9A                     
  6266                           ; BSR set to: 0
  6267  001D9A  80D8               	bsf	status,0,c
  6268  001D9C  376F               	rlcf	___fladd@grs& (0+255),f,b
  6269  001D9E  EFD3  F00E         	goto	l4931
  6270  001DA2                     l4929:
  6271                           
  6272                           ; BSR set to: 0
  6273  001DA2  90D8               	bcf	status,0,c
  6274  001DA4  376F               	rlcf	___fladd@grs& (0+255),f,b
  6275  001DA6                     l4931:
  6276                           
  6277                           ; BSR set to: 0
  6278  001DA6  516E               	movf	___fladd@bexp& (0+255),w,b
  6279  001DA8  B4D8               	btfsc	status,2,c
  6280  001DAA  EFD9  F00E         	goto	u6631
  6281  001DAE  EFDB  F00E         	goto	u6630
  6282  001DB2                     u6631:
  6283  001DB2  EFDC  F00E         	goto	l4935
  6284  001DB6                     u6630:
  6285  001DB6                     
  6286                           ; BSR set to: 0
  6287  001DB6  076E               	decf	___fladd@bexp& (0+255),f,b
  6288  001DB8                     l4935:
  6289                           
  6290                           ; BSR set to: 0
  6291  001DB8  AF62               	btfss	(___fladd@b+2)& (0+255),7,b
  6292  001DBA  EFE1  F00E         	goto	u6641
  6293  001DBE  EFE3  F00E         	goto	u6640
  6294  001DC2                     u6641:
  6295  001DC2  EFB9  F00E         	goto	l4919
  6296  001DC6                     u6640:
  6297  001DC6                     l4937:
  6298                           
  6299                           ; BSR set to: 0
  6300  001DC6  0E00               	movlw	0
  6301  001DC8  6F6D               	movwf	___fladd@aexp& (0+255),b
  6302  001DCA                     
  6303                           ; BSR set to: 0
  6304  001DCA  AF6F               	btfss	___fladd@grs& (0+255),7,b
  6305  001DCC  EFEA  F00E         	goto	u6651
  6306  001DD0  EFEC  F00E         	goto	u6650
  6307  001DD4                     u6651:
  6308  001DD4  EF04  F00F         	goto	l683
  6309  001DD8                     u6650:
  6310  001DD8                     
  6311                           ; BSR set to: 0
  6312  001DD8  C06F  F068         	movff	___fladd@grs,??___fladd
  6313  001DDC  0E7F               	movlw	127
  6314  001DDE  1768               	andwf	??___fladd& (0+255),f,b
  6315  001DE0  B4D8               	btfsc	status,2,c
  6316  001DE2  EFF5  F00E         	goto	u6661
  6317  001DE6  EFF7  F00E         	goto	u6660
  6318  001DEA                     u6661:
  6319  001DEA  EFFB  F00E         	goto	l684
  6320  001DEE                     u6660:
  6321  001DEE                     l4943:
  6322                           
  6323                           ; BSR set to: 0
  6324  001DEE  0E01               	movlw	1
  6325  001DF0  6F6D               	movwf	___fladd@aexp& (0+255),b
  6326  001DF2  EF04  F00F         	goto	l683
  6327  001DF6                     l684:
  6328                           
  6329                           ; BSR set to: 0
  6330  001DF6  A160               	btfss	___fladd@b& (0+255),0,b
  6331  001DF8  EF00  F00F         	goto	u6671
  6332  001DFC  EF02  F00F         	goto	u6670
  6333  001E00                     u6671:
  6334  001E00  EF04  F00F         	goto	l683
  6335  001E04                     u6670:
  6336  001E04  EFF7  F00E         	goto	l4943
  6337  001E08                     l683:
  6338                           
  6339                           ; BSR set to: 0
  6340  001E08  516D               	movf	___fladd@aexp& (0+255),w,b
  6341  001E0A  B4D8               	btfsc	status,2,c
  6342  001E0C  EF0A  F00F         	goto	u6681
  6343  001E10  EF0C  F00F         	goto	u6680
  6344  001E14                     u6681:
  6345  001E14  EF37  F00F         	goto	l4955
  6346  001E18                     u6680:
  6347  001E18                     
  6348                           ; BSR set to: 0
  6349  001E18  0E01               	movlw	1
  6350  001E1A  2760               	addwf	___fladd@b& (0+255),f,b
  6351  001E1C  0E00               	movlw	0
  6352  001E1E  2361               	addwfc	(___fladd@b+1)& (0+255),f,b
  6353  001E20  2362               	addwfc	(___fladd@b+2)& (0+255),f,b
  6354  001E22  2363               	addwfc	(___fladd@b+3)& (0+255),f,b
  6355  001E24                     
  6356                           ; BSR set to: 0
  6357  001E24  A163               	btfss	(___fladd@b+3)& (0+255),0,b
  6358  001E26  EF17  F00F         	goto	u6691
  6359  001E2A  EF19  F00F         	goto	u6690
  6360  001E2E                     u6691:
  6361  001E2E  EF37  F00F         	goto	l4955
  6362  001E32                     u6690:
  6363  001E32                     
  6364                           ; BSR set to: 0
  6365  001E32  C060  F068         	movff	___fladd@b,??___fladd
  6366  001E36  C061  F069         	movff	___fladd@b+1,??___fladd+1
  6367  001E3A  C062  F06A         	movff	___fladd@b+2,??___fladd+2
  6368  001E3E  C063  F06B         	movff	___fladd@b+3,??___fladd+3
  6369  001E42  356B               	rlcf	(??___fladd+3)& (0+255),w,b
  6370  001E44  336B               	rrcf	(??___fladd+3)& (0+255),f,b
  6371  001E46  336A               	rrcf	(??___fladd+2)& (0+255),f,b
  6372  001E48  3369               	rrcf	(??___fladd+1)& (0+255),f,b
  6373  001E4A  3368               	rrcf	??___fladd& (0+255),f,b
  6374  001E4C  C068  F060         	movff	??___fladd,___fladd@b
  6375  001E50  C069  F061         	movff	??___fladd+1,___fladd@b+1
  6376  001E54  C06A  F062         	movff	??___fladd+2,___fladd@b+2
  6377  001E58  C06B  F063         	movff	??___fladd+3,___fladd@b+3
  6378  001E5C  296E               	incf	___fladd@bexp& (0+255),w,b
  6379  001E5E  B4D8               	btfsc	status,2,c
  6380  001E60  EF34  F00F         	goto	u6701
  6381  001E64  EF36  F00F         	goto	u6700
  6382  001E68                     u6701:
  6383  001E68  EF37  F00F         	goto	l4955
  6384  001E6C                     u6700:
  6385  001E6C                     
  6386                           ; BSR set to: 0
  6387  001E6C  2B6E               	incf	___fladd@bexp& (0+255),f,b
  6388  001E6E                     l4955:
  6389                           
  6390                           ; BSR set to: 0
  6391  001E6E  296E               	incf	___fladd@bexp& (0+255),w,b
  6392  001E70  B4D8               	btfsc	status,2,c
  6393  001E72  EF3D  F00F         	goto	u6711
  6394  001E76  EF3F  F00F         	goto	u6710
  6395  001E7A                     u6711:
  6396  001E7A  EF47  F00F         	goto	l4959
  6397  001E7E                     u6710:
  6398  001E7E                     
  6399                           ; BSR set to: 0
  6400  001E7E  516E               	movf	___fladd@bexp& (0+255),w,b
  6401  001E80  A4D8               	btfss	status,2,c
  6402  001E82  EF45  F00F         	goto	u6721
  6403  001E86  EF47  F00F         	goto	u6720
  6404  001E8A                     u6721:
  6405  001E8A  EF59  F00F         	goto	l4963
  6406  001E8E                     u6720:
  6407  001E8E                     l4959:
  6408                           
  6409                           ; BSR set to: 0
  6410  001E8E  0E00               	movlw	0
  6411  001E90  6F60               	movwf	___fladd@b& (0+255),b
  6412  001E92  0E00               	movlw	0
  6413  001E94  6F61               	movwf	(___fladd@b+1)& (0+255),b
  6414  001E96  0E00               	movlw	0
  6415  001E98  6F62               	movwf	(___fladd@b+2)& (0+255),b
  6416  001E9A  0E00               	movlw	0
  6417  001E9C  6F63               	movwf	(___fladd@b+3)& (0+255),b
  6418  001E9E  516E               	movf	___fladd@bexp& (0+255),w,b
  6419  001EA0  A4D8               	btfss	status,2,c
  6420  001EA2  EF55  F00F         	goto	u6731
  6421  001EA6  EF57  F00F         	goto	u6730
  6422  001EAA                     u6731:
  6423  001EAA  EF59  F00F         	goto	l4963
  6424  001EAE                     u6730:
  6425  001EAE                     
  6426                           ; BSR set to: 0
  6427  001EAE  0E00               	movlw	0
  6428  001EB0  6F6C               	movwf	___fladd@signs& (0+255),b
  6429  001EB2                     l4963:
  6430                           
  6431                           ; BSR set to: 0
  6432  001EB2  A16E               	btfss	___fladd@bexp& (0+255),0,b
  6433  001EB4  EF5E  F00F         	goto	u6741
  6434  001EB8  EF60  F00F         	goto	u6740
  6435  001EBC                     u6741:
  6436  001EBC  EF63  F00F         	goto	l4967
  6437  001EC0                     u6740:
  6438  001EC0                     
  6439                           ; BSR set to: 0
  6440  001EC0  8F62               	bsf	(___fladd@b+2)& (0+255),7,b
  6441  001EC2  EF64  F00F         	goto	l4969
  6442  001EC6                     l4967:
  6443                           
  6444                           ; BSR set to: 0
  6445  001EC6  9F62               	bcf	(___fladd@b+2)& (0+255),7,b
  6446  001EC8                     l4969:
  6447                           
  6448                           ; BSR set to: 0
  6449  001EC8  90D8               	bcf	status,0,c
  6450  001ECA  316E               	rrcf	___fladd@bexp& (0+255),w,b
  6451  001ECC  6F63               	movwf	(___fladd@b+3)& (0+255),b
  6452  001ECE                     
  6453                           ; BSR set to: 0
  6454  001ECE  AF6C               	btfss	___fladd@signs& (0+255),7,b
  6455  001ED0  EF6C  F00F         	goto	u6751
  6456  001ED4  EF6E  F00F         	goto	u6750
  6457  001ED8                     u6751:
  6458  001ED8  EF6F  F00F         	goto	l4975
  6459  001EDC                     u6750:
  6460  001EDC                     
  6461                           ; BSR set to: 0
  6462  001EDC  8F63               	bsf	(___fladd@b+3)& (0+255),7,b
  6463  001EDE                     l4975:
  6464                           
  6465                           ; BSR set to: 0
  6466  001EDE  C060  F060         	movff	___fladd@b,?___fladd
  6467  001EE2  C061  F061         	movff	___fladd@b+1,?___fladd+1
  6468  001EE6  C062  F062         	movff	___fladd@b+2,?___fladd+2
  6469  001EEA  C063  F063         	movff	___fladd@b+3,?___fladd+3
  6470  001EEE                     l666:
  6471                           
  6472                           ; BSR set to: 0
  6473  001EEE  0012               	return		;funcret
  6474  001EF0                     __end_of___fladd:
  6475                           	callstack 0
  6476                           
  6477 ;; *************** function ___flneg *****************
  6478 ;; Defined at:
  6479 ;;		line 15 in file "C:\Program Files\Microchip\xc8\v2.32\pic\sources\c99\common\flneg.c"
  6480 ;; Parameters:    Size  Location     Type
  6481 ;;  f1              4    0[BANK0 ] unsigned char 
  6482 ;; Auto vars:     Size  Location     Type
  6483 ;;		None
  6484 ;; Return value:  Size  Location     Type
  6485 ;;                  4    0[BANK0 ] unsigned char 
  6486 ;; Registers used:
  6487 ;;		wreg, status,2, status,0
  6488 ;; Tracked objects:
  6489 ;;		On entry : 0/0
  6490 ;;		On exit  : 0/0
  6491 ;;		Unchanged: 0/0
  6492 ;; Data sizes:     COMRAM   BANK0   BANK1   BANK2   BANK3   BANK4   BANK5   BANK6   BANK7
  6493 ;;      Params:         0       4       0       0       0       0       0       0       0
  6494 ;;      Locals:         0       0       0       0       0       0       0       0       0
  6495 ;;      Temps:          0       0       0       0       0       0       0       0       0
  6496 ;;      Totals:         0       4       0       0       0       0       0       0       0
  6497 ;;Total ram usage:        4 bytes
  6498 ;; Hardware stack levels used: 1
  6499 ;; Hardware stack levels required when called: 4
  6500 ;; This function calls:
  6501 ;;		Nothing
  6502 ;; This function is called by:
  6503 ;;		_efgtoa
  6504 ;; This function uses a non-reentrant model
  6505 ;;
  6506                           
  6507                           	psect	text18
  6508  0044A8                     __ptext18:
  6509                           	callstack 0
  6510  0044A8                     ___flneg:
  6511                           	callstack 22
  6512  0044A8  0100               	movlb	0	; () banked
  6513  0044AA  5160               	movf	___flneg@f1& (0+255),w,b
  6514  0044AC  1161               	iorwf	(___flneg@f1+1)& (0+255),w,b
  6515  0044AE  1162               	iorwf	(___flneg@f1+2)& (0+255),w,b
  6516  0044B0  1163               	iorwf	(___flneg@f1+3)& (0+255),w,b
  6517  0044B2  B4D8               	btfsc	status,2,c
  6518  0044B4  EF5E  F022         	goto	u7411
  6519  0044B8  EF60  F022         	goto	u7410
  6520  0044BC                     u7411:
  6521  0044BC  EF68  F022         	goto	l5393
  6522  0044C0                     u7410:
  6523  0044C0                     
  6524                           ; BSR set to: 0
  6525  0044C0  0E00               	movlw	0
  6526  0044C2  1B60               	xorwf	___flneg@f1& (0+255),f,b
  6527  0044C4  0E00               	movlw	0
  6528  0044C6  1B61               	xorwf	(___flneg@f1+1)& (0+255),f,b
  6529  0044C8  0E00               	movlw	0
  6530  0044CA  1B62               	xorwf	(___flneg@f1+2)& (0+255),f,b
  6531  0044CC  0E80               	movlw	128
  6532  0044CE  1B63               	xorwf	(___flneg@f1+3)& (0+255),f,b
  6533  0044D0                     l5393:
  6534                           
  6535                           ; BSR set to: 0
  6536  0044D0  C060  F060         	movff	___flneg@f1,?___flneg
  6537  0044D4  C061  F061         	movff	___flneg@f1+1,?___flneg+1
  6538  0044D8  C062  F062         	movff	___flneg@f1+2,?___flneg+2
  6539  0044DC  C063  F063         	movff	___flneg@f1+3,?___flneg+3
  6540  0044E0                     
  6541                           ; BSR set to: 0
  6542  0044E0  0012               	return		;funcret
  6543  0044E2                     __end_of___flneg:
  6544                           	callstack 0
  6545                           
  6546 ;; *************** function ___flmul *****************
  6547 ;; Defined at:
  6548 ;;		line 8 in file "C:\Program Files\Microchip\xc8\v2.32\pic\sources\c99\common\sprcmul.c"
  6549 ;; Parameters:    Size  Location     Type
  6550 ;;  b               4   20[BANK0 ] unsigned char 
  6551 ;;  a               4   24[BANK0 ] unsigned char 
  6552 ;; Auto vars:     Size  Location     Type
  6553 ;;  prod            4   39[BANK0 ] struct .
  6554 ;;  grs             4   34[BANK0 ] unsigned long 
  6555 ;;  temp            2   43[BANK0 ] struct .
  6556 ;;  bexp            1   38[BANK0 ] unsigned char 
  6557 ;;  aexp            1   33[BANK0 ] unsigned char 
  6558 ;;  sign            1   32[BANK0 ] unsigned char 
  6559 ;; Return value:  Size  Location     Type
  6560 ;;                  4   20[BANK0 ] unsigned char 
  6561 ;; Registers used:
  6562 ;;		wreg, status,2, status,0, prodl, prodh
  6563 ;; Tracked objects:
  6564 ;;		On entry : 0/0
  6565 ;;		On exit  : 0/0
  6566 ;;		Unchanged: 0/0
  6567 ;; Data sizes:     COMRAM   BANK0   BANK1   BANK2   BANK3   BANK4   BANK5   BANK6   BANK7
  6568 ;;      Params:         0       8       0       0       0       0       0       0       0
  6569 ;;      Locals:         0      13       0       0       0       0       0       0       0
  6570 ;;      Temps:          0       4       0       0       0       0       0       0       0
  6571 ;;      Totals:         0      25       0       0       0       0       0       0       0
  6572 ;;Total ram usage:       25 bytes
  6573 ;; Hardware stack levels used: 1
  6574 ;; Hardware stack levels required when called: 4
  6575 ;; This function calls:
  6576 ;;		Nothing
  6577 ;; This function is called by:
  6578 ;;		_main
  6579 ;;		_efgtoa
  6580 ;; This function uses a non-reentrant model
  6581 ;;
  6582                           
  6583                           	psect	text19
  6584  0023B0                     __ptext19:
  6585                           	callstack 0
  6586  0023B0                     ___flmul:
  6587                           	callstack 22
  6588  0023B0  0100               	movlb	0	; () banked
  6589  0023B2  5177               	movf	(___flmul@b+3)& (0+255),w,b
  6590  0023B4  0B80               	andlw	128
  6591  0023B6  6F80               	movwf	___flmul@sign& (0+255),b
  6592  0023B8  5177               	movf	(___flmul@b+3)& (0+255),w,b
  6593  0023BA  2577               	addwf	(___flmul@b+3)& (0+255),w,b
  6594  0023BC  6F86               	movwf	___flmul@bexp& (0+255),b
  6595  0023BE                     
  6596                           ; BSR set to: 0
  6597  0023BE  AF76               	btfss	(___flmul@b+2)& (0+255),7,b
  6598  0023C0  EFE4  F011         	goto	u7021
  6599  0023C4  EFE6  F011         	goto	u7020
  6600  0023C8                     u7021:
  6601  0023C8  EFE7  F011         	goto	l5141
  6602  0023CC                     u7020:
  6603  0023CC                     
  6604                           ; BSR set to: 0
  6605  0023CC  8186               	bsf	___flmul@bexp& (0+255),0,b
  6606  0023CE                     l5141:
  6607                           
  6608                           ; BSR set to: 0
  6609  0023CE  5186               	movf	___flmul@bexp& (0+255),w,b
  6610  0023D0  B4D8               	btfsc	status,2,c
  6611  0023D2  EFED  F011         	goto	u7031
  6612  0023D6  EFEF  F011         	goto	u7030
  6613  0023DA                     u7031:
  6614  0023DA  EF02  F012         	goto	l5149
  6615  0023DE                     u7030:
  6616  0023DE                     
  6617                           ; BSR set to: 0
  6618  0023DE  2986               	incf	___flmul@bexp& (0+255),w,b
  6619  0023E0  A4D8               	btfss	status,2,c
  6620  0023E2  EFF5  F011         	goto	u7041
  6621  0023E6  EFF7  F011         	goto	u7040
  6622  0023EA                     u7041:
  6623  0023EA  EFFF  F011         	goto	l5147
  6624  0023EE                     u7040:
  6625  0023EE                     
  6626                           ; BSR set to: 0
  6627  0023EE  0E00               	movlw	0
  6628  0023F0  6F74               	movwf	___flmul@b& (0+255),b
  6629  0023F2  0E00               	movlw	0
  6630  0023F4  6F75               	movwf	(___flmul@b+1)& (0+255),b
  6631  0023F6  0E00               	movlw	0
  6632  0023F8  6F76               	movwf	(___flmul@b+2)& (0+255),b
  6633  0023FA  0E00               	movlw	0
  6634  0023FC  6F77               	movwf	(___flmul@b+3)& (0+255),b
  6635  0023FE                     l5147:
  6636                           
  6637                           ; BSR set to: 0
  6638  0023FE  8F76               	bsf	(___flmul@b+2)& (0+255),7,b
  6639  002400  EF0A  F012         	goto	l5151
  6640  002404                     l5149:
  6641                           
  6642                           ; BSR set to: 0
  6643  002404  0E00               	movlw	0
  6644  002406  6F74               	movwf	___flmul@b& (0+255),b
  6645  002408  0E00               	movlw	0
  6646  00240A  6F75               	movwf	(___flmul@b+1)& (0+255),b
  6647  00240C  0E00               	movlw	0
  6648  00240E  6F76               	movwf	(___flmul@b+2)& (0+255),b
  6649  002410  0E00               	movlw	0
  6650  002412  6F77               	movwf	(___flmul@b+3)& (0+255),b
  6651  002414                     l5151:
  6652                           
  6653                           ; BSR set to: 0
  6654  002414  517B               	movf	(___flmul@a+3)& (0+255),w,b
  6655  002416  0B80               	andlw	128
  6656  002418  1B80               	xorwf	___flmul@sign& (0+255),f,b
  6657  00241A                     
  6658                           ; BSR set to: 0
  6659  00241A  517B               	movf	(___flmul@a+3)& (0+255),w,b
  6660  00241C  257B               	addwf	(___flmul@a+3)& (0+255),w,b
  6661  00241E  6F81               	movwf	___flmul@aexp& (0+255),b
  6662  002420                     
  6663                           ; BSR set to: 0
  6664  002420  AF7A               	btfss	(___flmul@a+2)& (0+255),7,b
  6665  002422  EF15  F012         	goto	u7051
  6666  002426  EF17  F012         	goto	u7050
  6667  00242A                     u7051:
  6668  00242A  EF18  F012         	goto	l5159
  6669  00242E                     u7050:
  6670  00242E                     
  6671                           ; BSR set to: 0
  6672  00242E  8181               	bsf	___flmul@aexp& (0+255),0,b
  6673  002430                     l5159:
  6674                           
  6675                           ; BSR set to: 0
  6676  002430  5181               	movf	___flmul@aexp& (0+255),w,b
  6677  002432  B4D8               	btfsc	status,2,c
  6678  002434  EF1E  F012         	goto	u7061
  6679  002438  EF20  F012         	goto	u7060
  6680  00243C                     u7061:
  6681  00243C  EF33  F012         	goto	l5167
  6682  002440                     u7060:
  6683  002440                     
  6684                           ; BSR set to: 0
  6685  002440  2981               	incf	___flmul@aexp& (0+255),w,b
  6686  002442  A4D8               	btfss	status,2,c
  6687  002444  EF26  F012         	goto	u7071
  6688  002448  EF28  F012         	goto	u7070
  6689  00244C                     u7071:
  6690  00244C  EF30  F012         	goto	l5165
  6691  002450                     u7070:
  6692  002450                     
  6693                           ; BSR set to: 0
  6694  002450  0E00               	movlw	0
  6695  002452  6F78               	movwf	___flmul@a& (0+255),b
  6696  002454  0E00               	movlw	0
  6697  002456  6F79               	movwf	(___flmul@a+1)& (0+255),b
  6698  002458  0E00               	movlw	0
  6699  00245A  6F7A               	movwf	(___flmul@a+2)& (0+255),b
  6700  00245C  0E00               	movlw	0
  6701  00245E  6F7B               	movwf	(___flmul@a+3)& (0+255),b
  6702  002460                     l5165:
  6703                           
  6704                           ; BSR set to: 0
  6705  002460  8F7A               	bsf	(___flmul@a+2)& (0+255),7,b
  6706  002462  EF3B  F012         	goto	l743
  6707  002466                     l5167:
  6708                           
  6709                           ; BSR set to: 0
  6710  002466  0E00               	movlw	0
  6711  002468  6F78               	movwf	___flmul@a& (0+255),b
  6712  00246A  0E00               	movlw	0
  6713  00246C  6F79               	movwf	(___flmul@a+1)& (0+255),b
  6714  00246E  0E00               	movlw	0
  6715  002470  6F7A               	movwf	(___flmul@a+2)& (0+255),b
  6716  002472  0E00               	movlw	0
  6717  002474  6F7B               	movwf	(___flmul@a+3)& (0+255),b
  6718  002476                     l743:
  6719                           
  6720                           ; BSR set to: 0
  6721  002476  5181               	movf	___flmul@aexp& (0+255),w,b
  6722  002478  B4D8               	btfsc	status,2,c
  6723  00247A  EF41  F012         	goto	u7081
  6724  00247E  EF43  F012         	goto	u7080
  6725  002482                     u7081:
  6726  002482  EF4B  F012         	goto	l5171
  6727  002486                     u7080:
  6728  002486                     
  6729                           ; BSR set to: 0
  6730  002486  5186               	movf	___flmul@bexp& (0+255),w,b
  6731  002488  A4D8               	btfss	status,2,c
  6732  00248A  EF49  F012         	goto	u7091
  6733  00248E  EF4B  F012         	goto	u7090
  6734  002492                     u7091:
  6735  002492  EF55  F012         	goto	l5175
  6736  002496                     u7090:
  6737  002496                     l5171:
  6738                           
  6739                           ; BSR set to: 0
  6740  002496  0E00               	movlw	0
  6741  002498  6F74               	movwf	?___flmul& (0+255),b
  6742  00249A  0E00               	movlw	0
  6743  00249C  6F75               	movwf	(?___flmul+1)& (0+255),b
  6744  00249E  0E00               	movlw	0
  6745  0024A0  6F76               	movwf	(?___flmul+2)& (0+255),b
  6746  0024A2  0E00               	movlw	0
  6747  0024A4  6F77               	movwf	(?___flmul+3)& (0+255),b
  6748  0024A6  EFED  F013         	goto	l747
  6749  0024AA                     l5175:
  6750                           
  6751                           ; BSR set to: 0
  6752  0024AA  517A               	movf	(___flmul@a+2)& (0+255),w,b
  6753  0024AC  0374               	mulwf	___flmul@b& (0+255),b
  6754  0024AE  CFF3 F08B          	movff	prodl,___flmul@temp
  6755  0024B2  CFF4 F08C          	movff	prodh,___flmul@temp+1
  6756  0024B6                     
  6757                           ; BSR set to: 0
  6758  0024B6  518B               	movf	___flmul@temp& (0+255),w,b
  6759  0024B8  6F82               	movwf	___flmul@grs& (0+255),b
  6760  0024BA  6B83               	clrf	(___flmul@grs+1)& (0+255),b
  6761  0024BC  6B84               	clrf	(___flmul@grs+2)& (0+255),b
  6762  0024BE  6B85               	clrf	(___flmul@grs+3)& (0+255),b
  6763  0024C0                     
  6764                           ; BSR set to: 0
  6765  0024C0  518C               	movf	(___flmul@temp+1)& (0+255),w,b
  6766  0024C2  6F87               	movwf	___flmul@prod& (0+255),b
  6767  0024C4  6B88               	clrf	(___flmul@prod+1)& (0+255),b
  6768  0024C6  6B89               	clrf	(___flmul@prod+2)& (0+255),b
  6769  0024C8  6B8A               	clrf	(___flmul@prod+3)& (0+255),b
  6770  0024CA  5179               	movf	(___flmul@a+1)& (0+255),w,b
  6771  0024CC  0375               	mulwf	(___flmul@b+1)& (0+255),b
  6772  0024CE  CFF3 F08B          	movff	prodl,___flmul@temp
  6773  0024D2  CFF4 F08C          	movff	prodh,___flmul@temp+1
  6774  0024D6                     
  6775                           ; BSR set to: 0
  6776  0024D6  518B               	movf	___flmul@temp& (0+255),w,b
  6777  0024D8  2782               	addwf	___flmul@grs& (0+255),f,b
  6778  0024DA  0E00               	movlw	0
  6779  0024DC  2383               	addwfc	(___flmul@grs+1)& (0+255),f,b
  6780  0024DE  2384               	addwfc	(___flmul@grs+2)& (0+255),f,b
  6781  0024E0  2385               	addwfc	(___flmul@grs+3)& (0+255),f,b
  6782  0024E2                     
  6783                           ; BSR set to: 0
  6784  0024E2  518C               	movf	(___flmul@temp+1)& (0+255),w,b
  6785  0024E4  2787               	addwf	___flmul@prod& (0+255),f,b
  6786  0024E6  0E00               	movlw	0
  6787  0024E8  2388               	addwfc	(___flmul@prod+1)& (0+255),f,b
  6788  0024EA  2389               	addwfc	(___flmul@prod+2)& (0+255),f,b
  6789  0024EC  238A               	addwfc	(___flmul@prod+3)& (0+255),f,b
  6790  0024EE  5178               	movf	___flmul@a& (0+255),w,b
  6791  0024F0  0376               	mulwf	(___flmul@b+2)& (0+255),b
  6792  0024F2  CFF3 F08B          	movff	prodl,___flmul@temp
  6793  0024F6  CFF4 F08C          	movff	prodh,___flmul@temp+1
  6794  0024FA                     
  6795                           ; BSR set to: 0
  6796  0024FA  518B               	movf	___flmul@temp& (0+255),w,b
  6797  0024FC  2782               	addwf	___flmul@grs& (0+255),f,b
  6798  0024FE  0E00               	movlw	0
  6799  002500  2383               	addwfc	(___flmul@grs+1)& (0+255),f,b
  6800  002502  2384               	addwfc	(___flmul@grs+2)& (0+255),f,b
  6801  002504  2385               	addwfc	(___flmul@grs+3)& (0+255),f,b
  6802  002506                     
  6803                           ; BSR set to: 0
  6804  002506  518C               	movf	(___flmul@temp+1)& (0+255),w,b
  6805  002508  2787               	addwf	___flmul@prod& (0+255),f,b
  6806  00250A  0E00               	movlw	0
  6807  00250C  2388               	addwfc	(___flmul@prod+1)& (0+255),f,b
  6808  00250E  2389               	addwfc	(___flmul@prod+2)& (0+255),f,b
  6809  002510  238A               	addwfc	(___flmul@prod+3)& (0+255),f,b
  6810  002512                     
  6811                           ; BSR set to: 0
  6812  002512  C084  F085         	movff	___flmul@grs+2,___flmul@grs+3
  6813  002516  C083  F084         	movff	___flmul@grs+1,___flmul@grs+2
  6814  00251A  C082  F083         	movff	___flmul@grs,___flmul@grs+1
  6815  00251E  6B82               	clrf	___flmul@grs& (0+255),b
  6816  002520                     
  6817                           ; BSR set to: 0
  6818  002520  5178               	movf	___flmul@a& (0+255),w,b
  6819  002522  0375               	mulwf	(___flmul@b+1)& (0+255),b
  6820  002524  CFF3 F08B          	movff	prodl,___flmul@temp
  6821  002528  CFF4 F08C          	movff	prodh,___flmul@temp+1
  6822  00252C                     
  6823                           ; BSR set to: 0
  6824  00252C  518B               	movf	___flmul@temp& (0+255),w,b
  6825  00252E  2782               	addwf	___flmul@grs& (0+255),f,b
  6826  002530  518C               	movf	(___flmul@temp+1)& (0+255),w,b
  6827  002532  2383               	addwfc	(___flmul@grs+1)& (0+255),f,b
  6828  002534  0E00               	movlw	0
  6829  002536  2384               	addwfc	(___flmul@grs+2)& (0+255),f,b
  6830  002538  0E00               	movlw	0
  6831  00253A  2385               	addwfc	(___flmul@grs+3)& (0+255),f,b
  6832  00253C                     
  6833                           ; BSR set to: 0
  6834  00253C  5179               	movf	(___flmul@a+1)& (0+255),w,b
  6835  00253E  0374               	mulwf	___flmul@b& (0+255),b
  6836  002540  CFF3 F08B          	movff	prodl,___flmul@temp
  6837  002544  CFF4 F08C          	movff	prodh,___flmul@temp+1
  6838  002548                     
  6839                           ; BSR set to: 0
  6840  002548  518B               	movf	___flmul@temp& (0+255),w,b
  6841  00254A  2782               	addwf	___flmul@grs& (0+255),f,b
  6842  00254C  518C               	movf	(___flmul@temp+1)& (0+255),w,b
  6843  00254E  2383               	addwfc	(___flmul@grs+1)& (0+255),f,b
  6844  002550  0E00               	movlw	0
  6845  002552  2384               	addwfc	(___flmul@grs+2)& (0+255),f,b
  6846  002554  0E00               	movlw	0
  6847  002556  2385               	addwfc	(___flmul@grs+3)& (0+255),f,b
  6848  002558                     
  6849                           ; BSR set to: 0
  6850  002558  C084  F085         	movff	___flmul@grs+2,___flmul@grs+3
  6851  00255C  C083  F084         	movff	___flmul@grs+1,___flmul@grs+2
  6852  002560  C082  F083         	movff	___flmul@grs,___flmul@grs+1
  6853  002564  6B82               	clrf	___flmul@grs& (0+255),b
  6854  002566  5178               	movf	___flmul@a& (0+255),w,b
  6855  002568  0374               	mulwf	___flmul@b& (0+255),b
  6856  00256A  CFF3 F08B          	movff	prodl,___flmul@temp
  6857  00256E  CFF4 F08C          	movff	prodh,___flmul@temp+1
  6858  002572                     
  6859                           ; BSR set to: 0
  6860  002572  518B               	movf	___flmul@temp& (0+255),w,b
  6861  002574  2782               	addwf	___flmul@grs& (0+255),f,b
  6862  002576  518C               	movf	(___flmul@temp+1)& (0+255),w,b
  6863  002578  2383               	addwfc	(___flmul@grs+1)& (0+255),f,b
  6864  00257A  0E00               	movlw	0
  6865  00257C  2384               	addwfc	(___flmul@grs+2)& (0+255),f,b
  6866  00257E  0E00               	movlw	0
  6867  002580  2385               	addwfc	(___flmul@grs+3)& (0+255),f,b
  6868  002582                     
  6869                           ; BSR set to: 0
  6870  002582  517A               	movf	(___flmul@a+2)& (0+255),w,b
  6871  002584  0375               	mulwf	(___flmul@b+1)& (0+255),b
  6872  002586  CFF3 F08B          	movff	prodl,___flmul@temp
  6873  00258A  CFF4 F08C          	movff	prodh,___flmul@temp+1
  6874  00258E  518B               	movf	___flmul@temp& (0+255),w,b
  6875  002590  2787               	addwf	___flmul@prod& (0+255),f,b
  6876  002592  518C               	movf	(___flmul@temp+1)& (0+255),w,b
  6877  002594  2388               	addwfc	(___flmul@prod+1)& (0+255),f,b
  6878  002596  0E00               	movlw	0
  6879  002598  2389               	addwfc	(___flmul@prod+2)& (0+255),f,b
  6880  00259A  0E00               	movlw	0
  6881  00259C  238A               	addwfc	(___flmul@prod+3)& (0+255),f,b
  6882  00259E                     
  6883                           ; BSR set to: 0
  6884  00259E  5179               	movf	(___flmul@a+1)& (0+255),w,b
  6885  0025A0  0376               	mulwf	(___flmul@b+2)& (0+255),b
  6886  0025A2  CFF3 F08B          	movff	prodl,___flmul@temp
  6887  0025A6  CFF4 F08C          	movff	prodh,___flmul@temp+1
  6888  0025AA                     
  6889                           ; BSR set to: 0
  6890  0025AA  518B               	movf	___flmul@temp& (0+255),w,b
  6891  0025AC  2787               	addwf	___flmul@prod& (0+255),f,b
  6892  0025AE  518C               	movf	(___flmul@temp+1)& (0+255),w,b
  6893  0025B0  2388               	addwfc	(___flmul@prod+1)& (0+255),f,b
  6894  0025B2  0E00               	movlw	0
  6895  0025B4  2389               	addwfc	(___flmul@prod+2)& (0+255),f,b
  6896  0025B6  0E00               	movlw	0
  6897  0025B8  238A               	addwfc	(___flmul@prod+3)& (0+255),f,b
  6898  0025BA  517A               	movf	(___flmul@a+2)& (0+255),w,b
  6899  0025BC  0376               	mulwf	(___flmul@b+2)& (0+255),b
  6900  0025BE  CFF3 F08B          	movff	prodl,___flmul@temp
  6901  0025C2  CFF4 F08C          	movff	prodh,___flmul@temp+1
  6902  0025C6                     
  6903                           ; BSR set to: 0
  6904  0025C6  518B               	movf	___flmul@temp& (0+255),w,b
  6905  0025C8  6F7C               	movwf	??___flmul& (0+255),b
  6906  0025CA  518C               	movf	(___flmul@temp+1)& (0+255),w,b
  6907  0025CC  6F7D               	movwf	(??___flmul+1)& (0+255),b
  6908  0025CE  6B7E               	clrf	(??___flmul+2)& (0+255),b
  6909  0025D0  6B7F               	clrf	(??___flmul+3)& (0+255),b
  6910  0025D2  C07E  F07F         	movff	??___flmul+2,??___flmul+3
  6911  0025D6  C07D  F07E         	movff	??___flmul+1,??___flmul+2
  6912  0025DA  C07C  F07D         	movff	??___flmul,??___flmul+1
  6913  0025DE  6B7C               	clrf	??___flmul& (0+255),b
  6914  0025E0  517C               	movf	??___flmul& (0+255),w,b
  6915  0025E2  2787               	addwf	___flmul@prod& (0+255),f,b
  6916  0025E4  517D               	movf	(??___flmul+1)& (0+255),w,b
  6917  0025E6  2388               	addwfc	(___flmul@prod+1)& (0+255),f,b
  6918  0025E8  517E               	movf	(??___flmul+2)& (0+255),w,b
  6919  0025EA  2389               	addwfc	(___flmul@prod+2)& (0+255),f,b
  6920  0025EC  517F               	movf	(??___flmul+3)& (0+255),w,b
  6921  0025EE  238A               	addwfc	(___flmul@prod+3)& (0+255),f,b
  6922  0025F0                     
  6923                           ; BSR set to: 0
  6924  0025F0  C082  F07C         	movff	___flmul@grs,??___flmul
  6925  0025F4  C083  F07D         	movff	___flmul@grs+1,??___flmul+1
  6926  0025F8  C084  F07E         	movff	___flmul@grs+2,??___flmul+2
  6927  0025FC  C085  F07F         	movff	___flmul@grs+3,??___flmul+3
  6928  002600  0E19               	movlw	25
  6929  002602  EF08  F013         	goto	u7100
  6930  002606                     u7105:
  6931  002606  90D8               	bcf	status,0,c
  6932  002608  337F               	rrcf	(??___flmul+3)& (0+255),f,b
  6933  00260A  337E               	rrcf	(??___flmul+2)& (0+255),f,b
  6934  00260C  337D               	rrcf	(??___flmul+1)& (0+255),f,b
  6935  00260E  337C               	rrcf	??___flmul& (0+255),f,b
  6936  002610                     u7100:
  6937  002610  2EE8               	decfsz	wreg,f,c
  6938  002612  EF03  F013         	goto	u7105
  6939  002616  517C               	movf	??___flmul& (0+255),w,b
  6940  002618  2787               	addwf	___flmul@prod& (0+255),f,b
  6941  00261A  517D               	movf	(??___flmul+1)& (0+255),w,b
  6942  00261C  2388               	addwfc	(___flmul@prod+1)& (0+255),f,b
  6943  00261E  517E               	movf	(??___flmul+2)& (0+255),w,b
  6944  002620  2389               	addwfc	(___flmul@prod+2)& (0+255),f,b
  6945  002622  517F               	movf	(??___flmul+3)& (0+255),w,b
  6946  002624  238A               	addwfc	(___flmul@prod+3)& (0+255),f,b
  6947  002626                     
  6948                           ; BSR set to: 0
  6949  002626  C084  F085         	movff	___flmul@grs+2,___flmul@grs+3
  6950  00262A  C083  F084         	movff	___flmul@grs+1,___flmul@grs+2
  6951  00262E  C082  F083         	movff	___flmul@grs,___flmul@grs+1
  6952  002632  6B82               	clrf	___flmul@grs& (0+255),b
  6953  002634                     
  6954                           ; BSR set to: 0
  6955  002634  5181               	movf	___flmul@aexp& (0+255),w,b
  6956  002636  C086  F07C         	movff	___flmul@bexp,??___flmul
  6957  00263A  6B7D               	clrf	(??___flmul+1)& (0+255),b
  6958  00263C  277C               	addwf	??___flmul& (0+255),f,b
  6959  00263E  0E00               	movlw	0
  6960  002640  237D               	addwfc	(??___flmul+1)& (0+255),f,b
  6961  002642  0E82               	movlw	130
  6962  002644  257C               	addwf	??___flmul& (0+255),w,b
  6963  002646  6F8B               	movwf	___flmul@temp& (0+255),b
  6964  002648  0EFF               	movlw	255
  6965  00264A  217D               	addwfc	(??___flmul+1)& (0+255),w,b
  6966  00264C  6F8C               	movwf	(___flmul@temp+1)& (0+255),b
  6967  00264E  EF3E  F013         	goto	l5223
  6968  002652                     l5217:
  6969                           
  6970                           ; BSR set to: 0
  6971  002652  90D8               	bcf	status,0,c
  6972  002654  3787               	rlcf	___flmul@prod& (0+255),f,b
  6973  002656  3788               	rlcf	(___flmul@prod+1)& (0+255),f,b
  6974  002658  3789               	rlcf	(___flmul@prod+2)& (0+255),f,b
  6975  00265A  378A               	rlcf	(___flmul@prod+3)& (0+255),f,b
  6976  00265C                     
  6977                           ; BSR set to: 0
  6978  00265C  AF85               	btfss	(___flmul@grs+3)& (0+255),7,b
  6979  00265E  EF33  F013         	goto	u7111
  6980  002662  EF35  F013         	goto	u7110
  6981  002666                     u7111:
  6982  002666  EF36  F013         	goto	l750
  6983  00266A                     u7110:
  6984  00266A                     
  6985                           ; BSR set to: 0
  6986  00266A  8187               	bsf	___flmul@prod& (0+255),0,b
  6987  00266C                     l750:
  6988                           
  6989                           ; BSR set to: 0
  6990  00266C  90D8               	bcf	status,0,c
  6991  00266E  3782               	rlcf	___flmul@grs& (0+255),f,b
  6992  002670  3783               	rlcf	(___flmul@grs+1)& (0+255),f,b
  6993  002672  3784               	rlcf	(___flmul@grs+2)& (0+255),f,b
  6994  002674  3785               	rlcf	(___flmul@grs+3)& (0+255),f,b
  6995  002676  078B               	decf	___flmul@temp& (0+255),f,b
  6996  002678  A0D8               	btfss	status,0,c
  6997  00267A  078C               	decf	(___flmul@temp+1)& (0+255),f,b
  6998  00267C                     l5223:
  6999                           
  7000                           ; BSR set to: 0
  7001  00267C  AF89               	btfss	(___flmul@prod+2)& (0+255),7,b
  7002  00267E  EF43  F013         	goto	u7121
  7003  002682  EF45  F013         	goto	u7120
  7004  002686                     u7121:
  7005  002686  EF29  F013         	goto	l5217
  7006  00268A                     u7120:
  7007  00268A                     
  7008                           ; BSR set to: 0
  7009  00268A  0E00               	movlw	0
  7010  00268C  6F81               	movwf	___flmul@aexp& (0+255),b
  7011  00268E                     
  7012                           ; BSR set to: 0
  7013  00268E  AF85               	btfss	(___flmul@grs+3)& (0+255),7,b
  7014  002690  EF4C  F013         	goto	u7131
  7015  002694  EF4E  F013         	goto	u7130
  7016  002698                     u7131:
  7017  002698  EF72  F013         	goto	l752
  7018  00269C                     u7130:
  7019  00269C                     
  7020                           ; BSR set to: 0
  7021  00269C  0EFF               	movlw	255
  7022  00269E  1582               	andwf	___flmul@grs& (0+255),w,b
  7023  0026A0  6F7C               	movwf	??___flmul& (0+255),b
  7024  0026A2  0EFF               	movlw	255
  7025  0026A4  1583               	andwf	(___flmul@grs+1)& (0+255),w,b
  7026  0026A6  6F7D               	movwf	(??___flmul+1)& (0+255),b
  7027  0026A8  0EFF               	movlw	255
  7028  0026AA  1584               	andwf	(___flmul@grs+2)& (0+255),w,b
  7029  0026AC  6F7E               	movwf	(??___flmul+2)& (0+255),b
  7030  0026AE  0E7F               	movlw	127
  7031  0026B0  1585               	andwf	(___flmul@grs+3)& (0+255),w,b
  7032  0026B2  6F7F               	movwf	(??___flmul+3)& (0+255),b
  7033  0026B4  517C               	movf	??___flmul& (0+255),w,b
  7034  0026B6  117D               	iorwf	(??___flmul+1)& (0+255),w,b
  7035  0026B8  117E               	iorwf	(??___flmul+2)& (0+255),w,b
  7036  0026BA  117F               	iorwf	(??___flmul+3)& (0+255),w,b
  7037  0026BC  B4D8               	btfsc	status,2,c
  7038  0026BE  EF63  F013         	goto	u7141
  7039  0026C2  EF65  F013         	goto	u7140
  7040  0026C6                     u7141:
  7041  0026C6  EF69  F013         	goto	l753
  7042  0026CA                     u7140:
  7043  0026CA                     l5231:
  7044                           
  7045                           ; BSR set to: 0
  7046  0026CA  0E01               	movlw	1
  7047  0026CC  6F81               	movwf	___flmul@aexp& (0+255),b
  7048  0026CE  EF72  F013         	goto	l752
  7049  0026D2                     l753:
  7050                           
  7051                           ; BSR set to: 0
  7052  0026D2  A187               	btfss	___flmul@prod& (0+255),0,b
  7053  0026D4  EF6E  F013         	goto	u7151
  7054  0026D8  EF70  F013         	goto	u7150
  7055  0026DC                     u7151:
  7056  0026DC  EF72  F013         	goto	l752
  7057  0026E0                     u7150:
  7058  0026E0  EF65  F013         	goto	l5231
  7059  0026E4                     l752:
  7060                           
  7061                           ; BSR set to: 0
  7062  0026E4  5181               	movf	___flmul@aexp& (0+255),w,b
  7063  0026E6  B4D8               	btfsc	status,2,c
  7064  0026E8  EF78  F013         	goto	u7161
  7065  0026EC  EF7A  F013         	goto	u7160
  7066  0026F0                     u7161:
  7067  0026F0  EF9E  F013         	goto	l5243
  7068  0026F4                     u7160:
  7069  0026F4                     
  7070                           ; BSR set to: 0
  7071  0026F4  0E01               	movlw	1
  7072  0026F6  2787               	addwf	___flmul@prod& (0+255),f,b
  7073  0026F8  0E00               	movlw	0
  7074  0026FA  2388               	addwfc	(___flmul@prod+1)& (0+255),f,b
  7075  0026FC  2389               	addwfc	(___flmul@prod+2)& (0+255),f,b
  7076  0026FE  238A               	addwfc	(___flmul@prod+3)& (0+255),f,b
  7077  002700                     
  7078                           ; BSR set to: 0
  7079  002700  A18A               	btfss	(___flmul@prod+3)& (0+255),0,b
  7080  002702  EF85  F013         	goto	u7171
  7081  002706  EF87  F013         	goto	u7170
  7082  00270A                     u7171:
  7083  00270A  EF9E  F013         	goto	l5243
  7084  00270E                     u7170:
  7085  00270E                     
  7086                           ; BSR set to: 0
  7087  00270E  C087  F07C         	movff	___flmul@prod,??___flmul
  7088  002712  C088  F07D         	movff	___flmul@prod+1,??___flmul+1
  7089  002716  C089  F07E         	movff	___flmul@prod+2,??___flmul+2
  7090  00271A  C08A  F07F         	movff	___flmul@prod+3,??___flmul+3
  7091  00271E  357F               	rlcf	(??___flmul+3)& (0+255),w,b
  7092  002720  337F               	rrcf	(??___flmul+3)& (0+255),f,b
  7093  002722  337E               	rrcf	(??___flmul+2)& (0+255),f,b
  7094  002724  337D               	rrcf	(??___flmul+1)& (0+255),f,b
  7095  002726  337C               	rrcf	??___flmul& (0+255),f,b
  7096  002728  C07C  F087         	movff	??___flmul,___flmul@prod
  7097  00272C  C07D  F088         	movff	??___flmul+1,___flmul@prod+1
  7098  002730  C07E  F089         	movff	??___flmul+2,___flmul@prod+2
  7099  002734  C07F  F08A         	movff	??___flmul+3,___flmul@prod+3
  7100  002738                     
  7101                           ; BSR set to: 0
  7102  002738  4B8B               	infsnz	___flmul@temp& (0+255),f,b
  7103  00273A  2B8C               	incf	(___flmul@temp+1)& (0+255),f,b
  7104  00273C                     l5243:
  7105                           
  7106                           ; BSR set to: 0
  7107  00273C  BF8C               	btfsc	(___flmul@temp+1)& (0+255),7,b
  7108  00273E  EFA9  F013         	goto	u7181
  7109  002742  518C               	movf	(___flmul@temp+1)& (0+255),w,b
  7110  002744  E108               	bnz	u7180
  7111  002746  298B               	incf	___flmul@temp& (0+255),w,b
  7112  002748  A0D8               	btfss	status,0,c
  7113  00274A  EFA9  F013         	goto	u7181
  7114  00274E  EFAB  F013         	goto	u7180
  7115  002752                     u7181:
  7116  002752  EFB5  F013         	goto	l5247
  7117  002756                     u7180:
  7118  002756                     
  7119                           ; BSR set to: 0
  7120  002756  0E00               	movlw	0
  7121  002758  6F87               	movwf	___flmul@prod& (0+255),b
  7122  00275A  0E00               	movlw	0
  7123  00275C  6F88               	movwf	(___flmul@prod+1)& (0+255),b
  7124  00275E  0E80               	movlw	128
  7125  002760  6F89               	movwf	(___flmul@prod+2)& (0+255),b
  7126  002762  0E7F               	movlw	127
  7127  002764  6F8A               	movwf	(___flmul@prod+3)& (0+255),b
  7128  002766  EFE3  F013         	goto	l5259
  7129  00276A                     l5247:
  7130                           
  7131                           ; BSR set to: 0
  7132  00276A  BF8C               	btfsc	(___flmul@temp+1)& (0+255),7,b
  7133  00276C  EFC2  F013         	goto	u7190
  7134  002770  518C               	movf	(___flmul@temp+1)& (0+255),w,b
  7135  002772  E106               	bnz	u7191
  7136  002774  058B               	decf	___flmul@temp& (0+255),w,b
  7137  002776  B0D8               	btfsc	status,0,c
  7138  002778  EFC0  F013         	goto	u7191
  7139  00277C  EFC2  F013         	goto	u7190
  7140  002780                     u7191:
  7141  002780  EFCE  F013         	goto	l760
  7142  002784                     u7190:
  7143  002784                     
  7144                           ; BSR set to: 0
  7145  002784  0E00               	movlw	0
  7146  002786  6F87               	movwf	___flmul@prod& (0+255),b
  7147  002788  0E00               	movlw	0
  7148  00278A  6F88               	movwf	(___flmul@prod+1)& (0+255),b
  7149  00278C  0E00               	movlw	0
  7150  00278E  6F89               	movwf	(___flmul@prod+2)& (0+255),b
  7151  002790  0E00               	movlw	0
  7152  002792  6F8A               	movwf	(___flmul@prod+3)& (0+255),b
  7153  002794  0E00               	movlw	0
  7154  002796  6F80               	movwf	___flmul@sign& (0+255),b
  7155  002798  EFE3  F013         	goto	l5259
  7156  00279C                     l760:
  7157                           
  7158                           ; BSR set to: 0
  7159  00279C  C08B  F086         	movff	___flmul@temp,___flmul@bexp
  7160  0027A0                     
  7161                           ; BSR set to: 0
  7162  0027A0  0EFF               	movlw	255
  7163  0027A2  1787               	andwf	___flmul@prod& (0+255),f,b
  7164  0027A4  0EFF               	movlw	255
  7165  0027A6  1788               	andwf	(___flmul@prod+1)& (0+255),f,b
  7166  0027A8  0E7F               	movlw	127
  7167  0027AA  1789               	andwf	(___flmul@prod+2)& (0+255),f,b
  7168  0027AC  0E00               	movlw	0
  7169  0027AE  178A               	andwf	(___flmul@prod+3)& (0+255),f,b
  7170  0027B0                     
  7171                           ; BSR set to: 0
  7172  0027B0  A186               	btfss	___flmul@bexp& (0+255),0,b
  7173  0027B2  EFDD  F013         	goto	u7201
  7174  0027B6  EFDF  F013         	goto	u7200
  7175  0027BA                     u7201:
  7176  0027BA  EFE0  F013         	goto	l5257
  7177  0027BE                     u7200:
  7178  0027BE                     
  7179                           ; BSR set to: 0
  7180  0027BE  8F89               	bsf	(___flmul@prod+2)& (0+255),7,b
  7181  0027C0                     l5257:
  7182                           
  7183                           ; BSR set to: 0
  7184  0027C0  90D8               	bcf	status,0,c
  7185  0027C2  3186               	rrcf	___flmul@bexp& (0+255),w,b
  7186  0027C4  6F8A               	movwf	(___flmul@prod+3)& (0+255),b
  7187  0027C6                     l5259:
  7188                           
  7189                           ; BSR set to: 0
  7190  0027C6  5180               	movf	___flmul@sign& (0+255),w,b
  7191  0027C8  138A               	iorwf	(___flmul@prod+3)& (0+255),f,b
  7192  0027CA                     
  7193                           ; BSR set to: 0
  7194  0027CA  C087  F074         	movff	___flmul@prod,?___flmul
  7195  0027CE  C088  F075         	movff	___flmul@prod+1,?___flmul+1
  7196  0027D2  C089  F076         	movff	___flmul@prod+2,?___flmul+2
  7197  0027D6  C08A  F077         	movff	___flmul@prod+3,?___flmul+3
  7198  0027DA                     l747:
  7199                           
  7200                           ; BSR set to: 0
  7201  0027DA  0012               	return		;funcret
  7202  0027DC                     __end_of___flmul:
  7203                           	callstack 0
  7204                           
  7205 ;; *************** function ___flge *****************
  7206 ;; Defined at:
  7207 ;;		line 4 in file "C:\Program Files\Microchip\xc8\v2.32\pic\sources\c99\common\flge.c"
  7208 ;; Parameters:    Size  Location     Type
  7209 ;;  ff1             4   45[BANK0 ] unsigned char 
  7210 ;;  ff2             4   49[BANK0 ] unsigned char 
  7211 ;; Auto vars:     Size  Location     Type
  7212 ;;		None
  7213 ;; Return value:  Size  Location     Type
  7214 ;;		None               void
  7215 ;; Registers used:
  7216 ;;		wreg, status,2, status,0
  7217 ;; Tracked objects:
  7218 ;;		On entry : 0/0
  7219 ;;		On exit  : 0/0
  7220 ;;		Unchanged: 0/0
  7221 ;; Data sizes:     COMRAM   BANK0   BANK1   BANK2   BANK3   BANK4   BANK5   BANK6   BANK7
  7222 ;;      Params:         0       8       0       0       0       0       0       0       0
  7223 ;;      Locals:         0       0       0       0       0       0       0       0       0
  7224 ;;      Temps:          0       4       0       0       0       0       0       0       0
  7225 ;;      Totals:         0      12       0       0       0       0       0       0       0
  7226 ;;Total ram usage:       12 bytes
  7227 ;; Hardware stack levels used: 1
  7228 ;; Hardware stack levels required when called: 4
  7229 ;; This function calls:
  7230 ;;		Nothing
  7231 ;; This function is called by:
  7232 ;;		_efgtoa
  7233 ;; This function uses a non-reentrant model
  7234 ;;
  7235                           
  7236                           	psect	text20
  7237  0036DE                     __ptext20:
  7238                           	callstack 0
  7239  0036DE                     ___flge:
  7240                           	callstack 22
  7241  0036DE  0E00               	movlw	0
  7242  0036E0  0100               	movlb	0	; () banked
  7243  0036E2  158D               	andwf	___flge@ff1& (0+255),w,b
  7244  0036E4  6F95               	movwf	??___flge& (0+255),b
  7245  0036E6  0E00               	movlw	0
  7246  0036E8  158E               	andwf	(___flge@ff1+1)& (0+255),w,b
  7247  0036EA  6F96               	movwf	(??___flge+1)& (0+255),b
  7248  0036EC  0E80               	movlw	128
  7249  0036EE  158F               	andwf	(___flge@ff1+2)& (0+255),w,b
  7250  0036F0  6F97               	movwf	(??___flge+2)& (0+255),b
  7251  0036F2  0E7F               	movlw	127
  7252  0036F4  1590               	andwf	(___flge@ff1+3)& (0+255),w,b
  7253  0036F6  6F98               	movwf	(??___flge+3)& (0+255),b
  7254  0036F8  5195               	movf	??___flge& (0+255),w,b
  7255  0036FA  1196               	iorwf	(??___flge+1)& (0+255),w,b
  7256  0036FC  1197               	iorwf	(??___flge+2)& (0+255),w,b
  7257  0036FE  1198               	iorwf	(??___flge+3)& (0+255),w,b
  7258  003700  A4D8               	btfss	status,2,c
  7259  003702  EF85  F01B         	goto	u7361
  7260  003706  EF87  F01B         	goto	u7360
  7261  00370A                     u7361:
  7262  00370A  EF8F  F01B         	goto	l5371
  7263  00370E                     u7360:
  7264  00370E                     
  7265                           ; BSR set to: 0
  7266  00370E  0E00               	movlw	0
  7267  003710  6F8D               	movwf	___flge@ff1& (0+255),b
  7268  003712  0E00               	movlw	0
  7269  003714  6F8E               	movwf	(___flge@ff1+1)& (0+255),b
  7270  003716  0E00               	movlw	0
  7271  003718  6F8F               	movwf	(___flge@ff1+2)& (0+255),b
  7272  00371A  0E00               	movlw	0
  7273  00371C  6F90               	movwf	(___flge@ff1+3)& (0+255),b
  7274  00371E                     l5371:
  7275                           
  7276                           ; BSR set to: 0
  7277  00371E  0E00               	movlw	0
  7278  003720  1591               	andwf	___flge@ff2& (0+255),w,b
  7279  003722  6F95               	movwf	??___flge& (0+255),b
  7280  003724  0E00               	movlw	0
  7281  003726  1592               	andwf	(___flge@ff2+1)& (0+255),w,b
  7282  003728  6F96               	movwf	(??___flge+1)& (0+255),b
  7283  00372A  0E80               	movlw	128
  7284  00372C  1593               	andwf	(___flge@ff2+2)& (0+255),w,b
  7285  00372E  6F97               	movwf	(??___flge+2)& (0+255),b
  7286  003730  0E7F               	movlw	127
  7287  003732  1594               	andwf	(___flge@ff2+3)& (0+255),w,b
  7288  003734  6F98               	movwf	(??___flge+3)& (0+255),b
  7289  003736  5195               	movf	??___flge& (0+255),w,b
  7290  003738  1196               	iorwf	(??___flge+1)& (0+255),w,b
  7291  00373A  1197               	iorwf	(??___flge+2)& (0+255),w,b
  7292  00373C  1198               	iorwf	(??___flge+3)& (0+255),w,b
  7293  00373E  A4D8               	btfss	status,2,c
  7294  003740  EFA4  F01B         	goto	u7371
  7295  003744  EFA6  F01B         	goto	u7370
  7296  003748                     u7371:
  7297  003748  EFAE  F01B         	goto	l5375
  7298  00374C                     u7370:
  7299  00374C                     
  7300                           ; BSR set to: 0
  7301  00374C  0E00               	movlw	0
  7302  00374E  6F91               	movwf	___flge@ff2& (0+255),b
  7303  003750  0E00               	movlw	0
  7304  003752  6F92               	movwf	(___flge@ff2+1)& (0+255),b
  7305  003754  0E00               	movlw	0
  7306  003756  6F93               	movwf	(___flge@ff2+2)& (0+255),b
  7307  003758  0E00               	movlw	0
  7308  00375A  6F94               	movwf	(___flge@ff2+3)& (0+255),b
  7309  00375C                     l5375:
  7310                           
  7311                           ; BSR set to: 0
  7312  00375C  AF90               	btfss	(___flge@ff1+3)& (0+255),7,b
  7313  00375E  EFB3  F01B         	goto	u7381
  7314  003762  EFB5  F01B         	goto	u7380
  7315  003766                     u7381:
  7316  003766  EFBE  F01B         	goto	l5379
  7317  00376A                     u7380:
  7318  00376A                     
  7319                           ; BSR set to: 0
  7320  00376A  6D8D               	negf	___flge@ff1& (0+255),b
  7321  00376C  1F8E               	comf	(___flge@ff1+1)& (0+255),f,b
  7322  00376E  B0D8               	btfsc	status,0,c
  7323  003770  2B8E               	incf	(___flge@ff1+1)& (0+255),f,b
  7324  003772  1F8F               	comf	(___flge@ff1+2)& (0+255),f,b
  7325  003774  B0D8               	btfsc	status,0,c
  7326  003776  2B8F               	incf	(___flge@ff1+2)& (0+255),f,b
  7327  003778  0E80               	movlw	128
  7328  00377A  5790               	subfwb	(___flge@ff1+3)& (0+255),f,b
  7329  00377C                     l5379:
  7330                           
  7331                           ; BSR set to: 0
  7332  00377C  AF94               	btfss	(___flge@ff2+3)& (0+255),7,b
  7333  00377E  EFC3  F01B         	goto	u7391
  7334  003782  EFC5  F01B         	goto	u7390
  7335  003786                     u7391:
  7336  003786  EFCE  F01B         	goto	l394
  7337  00378A                     u7390:
  7338  00378A                     
  7339                           ; BSR set to: 0
  7340  00378A  6D91               	negf	___flge@ff2& (0+255),b
  7341  00378C  1F92               	comf	(___flge@ff2+1)& (0+255),f,b
  7342  00378E  B0D8               	btfsc	status,0,c
  7343  003790  2B92               	incf	(___flge@ff2+1)& (0+255),f,b
  7344  003792  1F93               	comf	(___flge@ff2+2)& (0+255),f,b
  7345  003794  B0D8               	btfsc	status,0,c
  7346  003796  2B93               	incf	(___flge@ff2+2)& (0+255),f,b
  7347  003798  0E80               	movlw	128
  7348  00379A  5794               	subfwb	(___flge@ff2+3)& (0+255),f,b
  7349  00379C                     l394:
  7350                           
  7351                           ; BSR set to: 0
  7352  00379C  0E00               	movlw	0
  7353  00379E  1B8D               	xorwf	___flge@ff1& (0+255),f,b
  7354  0037A0  0E00               	movlw	0
  7355  0037A2  1B8E               	xorwf	(___flge@ff1+1)& (0+255),f,b
  7356  0037A4  0E00               	movlw	0
  7357  0037A6  1B8F               	xorwf	(___flge@ff1+2)& (0+255),f,b
  7358  0037A8  0E80               	movlw	128
  7359  0037AA  1B90               	xorwf	(___flge@ff1+3)& (0+255),f,b
  7360  0037AC  0E00               	movlw	0
  7361  0037AE  1B91               	xorwf	___flge@ff2& (0+255),f,b
  7362  0037B0  0E00               	movlw	0
  7363  0037B2  1B92               	xorwf	(___flge@ff2+1)& (0+255),f,b
  7364  0037B4  0E00               	movlw	0
  7365  0037B6  1B93               	xorwf	(___flge@ff2+2)& (0+255),f,b
  7366  0037B8  0E80               	movlw	128
  7367  0037BA  1B94               	xorwf	(___flge@ff2+3)& (0+255),f,b
  7368  0037BC  5191               	movf	___flge@ff2& (0+255),w,b
  7369  0037BE  5D8D               	subwf	___flge@ff1& (0+255),w,b
  7370  0037C0  5192               	movf	(___flge@ff2+1)& (0+255),w,b
  7371  0037C2  598E               	subwfb	(___flge@ff1+1)& (0+255),w,b
  7372  0037C4  5193               	movf	(___flge@ff2+2)& (0+255),w,b
  7373  0037C6  598F               	subwfb	(___flge@ff1+2)& (0+255),w,b
  7374  0037C8  5194               	movf	(___flge@ff2+3)& (0+255),w,b
  7375  0037CA  5990               	subwfb	(___flge@ff1+3)& (0+255),w,b
  7376  0037CC  B0D8               	btfsc	status,0,c
  7377  0037CE  EFEB  F01B         	goto	u7401
  7378  0037D2  EFED  F01B         	goto	u7400
  7379  0037D6                     u7401:
  7380  0037D6  EFF0  F01B         	goto	l5385
  7381  0037DA                     u7400:
  7382  0037DA                     
  7383                           ; BSR set to: 0
  7384  0037DA  90D8               	bcf	status,0,c
  7385  0037DC  EFF1  F01B         	goto	l399
  7386  0037E0                     l5385:
  7387                           
  7388                           ; BSR set to: 0
  7389  0037E0  80D8               	bsf	status,0,c
  7390  0037E2                     l399:
  7391                           
  7392                           ; BSR set to: 0
  7393  0037E2  0012               	return		;funcret
  7394  0037E4                     __end_of___flge:
  7395                           	callstack 0
  7396                           
  7397 ;; *************** function ___fleq *****************
  7398 ;; Defined at:
  7399 ;;		line 4 in file "C:\Program Files\Microchip\xc8\v2.32\pic\sources\c99\common\fleq.c"
  7400 ;; Parameters:    Size  Location     Type
  7401 ;;  ff1             4    0[BANK0 ] unsigned char 
  7402 ;;  ff2             4    4[BANK0 ] unsigned char 
  7403 ;; Auto vars:     Size  Location     Type
  7404 ;;		None
  7405 ;; Return value:  Size  Location     Type
  7406 ;;		None               void
  7407 ;; Registers used:
  7408 ;;		wreg, status,2, status,0
  7409 ;; Tracked objects:
  7410 ;;		On entry : 0/0
  7411 ;;		On exit  : 0/0
  7412 ;;		Unchanged: 0/0
  7413 ;; Data sizes:     COMRAM   BANK0   BANK1   BANK2   BANK3   BANK4   BANK5   BANK6   BANK7
  7414 ;;      Params:         0       8       0       0       0       0       0       0       0
  7415 ;;      Locals:         0       0       0       0       0       0       0       0       0
  7416 ;;      Temps:          0       4       0       0       0       0       0       0       0
  7417 ;;      Totals:         0      12       0       0       0       0       0       0       0
  7418 ;;Total ram usage:       12 bytes
  7419 ;; Hardware stack levels used: 1
  7420 ;; Hardware stack levels required when called: 4
  7421 ;; This function calls:
  7422 ;;		Nothing
  7423 ;; This function is called by:
  7424 ;;		_efgtoa
  7425 ;; This function uses a non-reentrant model
  7426 ;;
  7427                           
  7428                           	psect	text21
  7429  003F78                     __ptext21:
  7430                           	callstack 0
  7431  003F78                     ___fleq:
  7432                           	callstack 22
  7433  003F78  0E00               	movlw	0
  7434  003F7A  0100               	movlb	0	; () banked
  7435  003F7C  1560               	andwf	___fleq@ff1& (0+255),w,b
  7436  003F7E  6F68               	movwf	??___fleq& (0+255),b
  7437  003F80  0E00               	movlw	0
  7438  003F82  1561               	andwf	(___fleq@ff1+1)& (0+255),w,b
  7439  003F84  6F69               	movwf	(??___fleq+1)& (0+255),b
  7440  003F86  0E80               	movlw	128
  7441  003F88  1562               	andwf	(___fleq@ff1+2)& (0+255),w,b
  7442  003F8A  6F6A               	movwf	(??___fleq+2)& (0+255),b
  7443  003F8C  0E7F               	movlw	127
  7444  003F8E  1563               	andwf	(___fleq@ff1+3)& (0+255),w,b
  7445  003F90  6F6B               	movwf	(??___fleq+3)& (0+255),b
  7446  003F92  5168               	movf	??___fleq& (0+255),w,b
  7447  003F94  1169               	iorwf	(??___fleq+1)& (0+255),w,b
  7448  003F96  116A               	iorwf	(??___fleq+2)& (0+255),w,b
  7449  003F98  116B               	iorwf	(??___fleq+3)& (0+255),w,b
  7450  003F9A  A4D8               	btfss	status,2,c
  7451  003F9C  EFD2  F01F         	goto	u7331
  7452  003FA0  EFD4  F01F         	goto	u7330
  7453  003FA4                     u7331:
  7454  003FA4  EFDC  F01F         	goto	l5355
  7455  003FA8                     u7330:
  7456  003FA8                     
  7457                           ; BSR set to: 0
  7458  003FA8  0E00               	movlw	0
  7459  003FAA  6F60               	movwf	___fleq@ff1& (0+255),b
  7460  003FAC  0E00               	movlw	0
  7461  003FAE  6F61               	movwf	(___fleq@ff1+1)& (0+255),b
  7462  003FB0  0E00               	movlw	0
  7463  003FB2  6F62               	movwf	(___fleq@ff1+2)& (0+255),b
  7464  003FB4  0E00               	movlw	0
  7465  003FB6  6F63               	movwf	(___fleq@ff1+3)& (0+255),b
  7466  003FB8                     l5355:
  7467                           
  7468                           ; BSR set to: 0
  7469  003FB8  0E00               	movlw	0
  7470  003FBA  1564               	andwf	___fleq@ff2& (0+255),w,b
  7471  003FBC  6F68               	movwf	??___fleq& (0+255),b
  7472  003FBE  0E00               	movlw	0
  7473  003FC0  1565               	andwf	(___fleq@ff2+1)& (0+255),w,b
  7474  003FC2  6F69               	movwf	(??___fleq+1)& (0+255),b
  7475  003FC4  0E80               	movlw	128
  7476  003FC6  1566               	andwf	(___fleq@ff2+2)& (0+255),w,b
  7477  003FC8  6F6A               	movwf	(??___fleq+2)& (0+255),b
  7478  003FCA  0E7F               	movlw	127
  7479  003FCC  1567               	andwf	(___fleq@ff2+3)& (0+255),w,b
  7480  003FCE  6F6B               	movwf	(??___fleq+3)& (0+255),b
  7481  003FD0  5168               	movf	??___fleq& (0+255),w,b
  7482  003FD2  1169               	iorwf	(??___fleq+1)& (0+255),w,b
  7483  003FD4  116A               	iorwf	(??___fleq+2)& (0+255),w,b
  7484  003FD6  116B               	iorwf	(??___fleq+3)& (0+255),w,b
  7485  003FD8  A4D8               	btfss	status,2,c
  7486  003FDA  EFF1  F01F         	goto	u7341
  7487  003FDE  EFF3  F01F         	goto	u7340
  7488  003FE2                     u7341:
  7489  003FE2  EFFB  F01F         	goto	l5359
  7490  003FE6                     u7340:
  7491  003FE6                     
  7492                           ; BSR set to: 0
  7493  003FE6  0E00               	movlw	0
  7494  003FE8  6F64               	movwf	___fleq@ff2& (0+255),b
  7495  003FEA  0E00               	movlw	0
  7496  003FEC  6F65               	movwf	(___fleq@ff2+1)& (0+255),b
  7497  003FEE  0E00               	movlw	0
  7498  003FF0  6F66               	movwf	(___fleq@ff2+2)& (0+255),b
  7499  003FF2  0E00               	movlw	0
  7500  003FF4  6F67               	movwf	(___fleq@ff2+3)& (0+255),b
  7501  003FF6                     l5359:
  7502                           
  7503                           ; BSR set to: 0
  7504  003FF6  5164               	movf	___fleq@ff2& (0+255),w,b
  7505  003FF8  1960               	xorwf	___fleq@ff1& (0+255),w,b
  7506  003FFA  E10F               	bnz	u7350
  7507  003FFC  5165               	movf	(___fleq@ff2+1)& (0+255),w,b
  7508  003FFE  1961               	xorwf	(___fleq@ff1+1)& (0+255),w,b
  7509  004000  E10C               	bnz	u7350
  7510  004002  5166               	movf	(___fleq@ff2+2)& (0+255),w,b
  7511  004004  1962               	xorwf	(___fleq@ff1+2)& (0+255),w,b
  7512  004006  E109               	bnz	u7350
  7513  004008  5167               	movf	(___fleq@ff2+3)& (0+255),w,b
  7514  00400A  1963               	xorwf	(___fleq@ff1+3)& (0+255),w,b
  7515  00400C  B4D8               	btfsc	status,2,c
  7516  00400E  EF0B  F020         	goto	u7351
  7517  004012  EF0D  F020         	goto	u7350
  7518  004016                     u7351:
  7519  004016  EF10  F020         	goto	l5363
  7520  00401A                     u7350:
  7521  00401A                     
  7522                           ; BSR set to: 0
  7523  00401A  90D8               	bcf	status,0,c
  7524  00401C  EF11  F020         	goto	l388
  7525  004020                     l5363:
  7526                           
  7527                           ; BSR set to: 0
  7528  004020  80D8               	bsf	status,0,c
  7529  004022                     l388:
  7530                           
  7531                           ; BSR set to: 0
  7532  004022  0012               	return		;funcret
  7533  004024                     __end_of___fleq:
  7534                           	callstack 0
  7535                           
  7536 ;; *************** function ___fldiv *****************
  7537 ;; Defined at:
  7538 ;;		line 11 in file "C:\Program Files\Microchip\xc8\v2.32\pic\sources\c99\common\sprcdiv.c"
  7539 ;; Parameters:    Size  Location     Type
  7540 ;;  b               4    0[BANK0 ] unsigned char 
  7541 ;;  a               4    4[BANK0 ] unsigned char 
  7542 ;; Auto vars:     Size  Location     Type
  7543 ;;  grs             4   19[BANK0 ] unsigned long 
  7544 ;;  rem             4   12[BANK0 ] unsigned long 
  7545 ;;  new_exp         2   17[BANK0 ] short 
  7546 ;;  aexp            1   24[BANK0 ] unsigned char 
  7547 ;;  bexp            1   23[BANK0 ] unsigned char 
  7548 ;;  sign            1   16[BANK0 ] unsigned char 
  7549 ;; Return value:  Size  Location     Type
  7550 ;;                  4    0[BANK0 ] unsigned char 
  7551 ;; Registers used:
  7552 ;;		wreg, status,2, status,0
  7553 ;; Tracked objects:
  7554 ;;		On entry : 0/0
  7555 ;;		On exit  : 0/0
  7556 ;;		Unchanged: 0/0
  7557 ;; Data sizes:     COMRAM   BANK0   BANK1   BANK2   BANK3   BANK4   BANK5   BANK6   BANK7
  7558 ;;      Params:         0       8       0       0       0       0       0       0       0
  7559 ;;      Locals:         0      13       0       0       0       0       0       0       0
  7560 ;;      Temps:          0       4       0       0       0       0       0       0       0
  7561 ;;      Totals:         0      25       0       0       0       0       0       0       0
  7562 ;;Total ram usage:       25 bytes
  7563 ;; Hardware stack levels used: 1
  7564 ;; Hardware stack levels required when called: 4
  7565 ;; This function calls:
  7566 ;;		Nothing
  7567 ;; This function is called by:
  7568 ;;		_efgtoa
  7569 ;; This function uses a non-reentrant model
  7570 ;;
  7571                           
  7572                           	psect	text22
  7573  0027DC                     __ptext22:
  7574                           	callstack 0
  7575  0027DC                     ___fldiv:
  7576                           	callstack 22
  7577  0027DC  0100               	movlb	0	; () banked
  7578  0027DE  5163               	movf	(___fldiv@b+3)& (0+255),w,b
  7579  0027E0  0B80               	andlw	128
  7580  0027E2  6F70               	movwf	___fldiv@sign& (0+255),b
  7581  0027E4  5163               	movf	(___fldiv@b+3)& (0+255),w,b
  7582  0027E6  2563               	addwf	(___fldiv@b+3)& (0+255),w,b
  7583  0027E8  6F77               	movwf	___fldiv@bexp& (0+255),b
  7584  0027EA                     
  7585                           ; BSR set to: 0
  7586  0027EA  AF62               	btfss	(___fldiv@b+2)& (0+255),7,b
  7587  0027EC  EFFA  F013         	goto	u6791
  7588  0027F0  EFFC  F013         	goto	u6790
  7589  0027F4                     u6791:
  7590  0027F4  EFFD  F013         	goto	l5003
  7591  0027F8                     u6790:
  7592  0027F8                     
  7593                           ; BSR set to: 0
  7594  0027F8  8177               	bsf	___fldiv@bexp& (0+255),0,b
  7595  0027FA                     l5003:
  7596                           
  7597                           ; BSR set to: 0
  7598  0027FA  5177               	movf	___fldiv@bexp& (0+255),w,b
  7599  0027FC  B4D8               	btfsc	status,2,c
  7600  0027FE  EF03  F014         	goto	u6801
  7601  002802  EF05  F014         	goto	u6800
  7602  002806                     u6801:
  7603  002806  EF1A  F014         	goto	l5013
  7604  00280A                     u6800:
  7605  00280A                     
  7606                           ; BSR set to: 0
  7607  00280A  2977               	incf	___fldiv@bexp& (0+255),w,b
  7608  00280C  A4D8               	btfss	status,2,c
  7609  00280E  EF0B  F014         	goto	u6811
  7610  002812  EF0D  F014         	goto	u6810
  7611  002816                     u6811:
  7612  002816  EF15  F014         	goto	l5009
  7613  00281A                     u6810:
  7614  00281A                     
  7615                           ; BSR set to: 0
  7616  00281A  0E00               	movlw	0
  7617  00281C  6F60               	movwf	___fldiv@b& (0+255),b
  7618  00281E  0E00               	movlw	0
  7619  002820  6F61               	movwf	(___fldiv@b+1)& (0+255),b
  7620  002822  0E00               	movlw	0
  7621  002824  6F62               	movwf	(___fldiv@b+2)& (0+255),b
  7622  002826  0E00               	movlw	0
  7623  002828  6F63               	movwf	(___fldiv@b+3)& (0+255),b
  7624  00282A                     l5009:
  7625                           
  7626                           ; BSR set to: 0
  7627  00282A  8F62               	bsf	(___fldiv@b+2)& (0+255),7,b
  7628  00282C                     
  7629                           ; BSR set to: 0
  7630  00282C  0E00               	movlw	0
  7631  00282E  6F63               	movwf	(___fldiv@b+3)& (0+255),b
  7632  002830  EF22  F014         	goto	l5015
  7633  002834                     l5013:
  7634                           
  7635                           ; BSR set to: 0
  7636  002834  0E00               	movlw	0
  7637  002836  6F60               	movwf	___fldiv@b& (0+255),b
  7638  002838  0E00               	movlw	0
  7639  00283A  6F61               	movwf	(___fldiv@b+1)& (0+255),b
  7640  00283C  0E00               	movlw	0
  7641  00283E  6F62               	movwf	(___fldiv@b+2)& (0+255),b
  7642  002840  0E00               	movlw	0
  7643  002842  6F63               	movwf	(___fldiv@b+3)& (0+255),b
  7644  002844                     l5015:
  7645                           
  7646                           ; BSR set to: 0
  7647  002844  5167               	movf	(___fldiv@a+3)& (0+255),w,b
  7648  002846  0B80               	andlw	128
  7649  002848  1B70               	xorwf	___fldiv@sign& (0+255),f,b
  7650  00284A                     
  7651                           ; BSR set to: 0
  7652  00284A  5167               	movf	(___fldiv@a+3)& (0+255),w,b
  7653  00284C  2567               	addwf	(___fldiv@a+3)& (0+255),w,b
  7654  00284E  6F78               	movwf	___fldiv@aexp& (0+255),b
  7655  002850                     
  7656                           ; BSR set to: 0
  7657  002850  AF66               	btfss	(___fldiv@a+2)& (0+255),7,b
  7658  002852  EF2D  F014         	goto	u6821
  7659  002856  EF2F  F014         	goto	u6820
  7660  00285A                     u6821:
  7661  00285A  EF30  F014         	goto	l5023
  7662  00285E                     u6820:
  7663  00285E                     
  7664                           ; BSR set to: 0
  7665  00285E  8178               	bsf	___fldiv@aexp& (0+255),0,b
  7666  002860                     l5023:
  7667                           
  7668                           ; BSR set to: 0
  7669  002860  5178               	movf	___fldiv@aexp& (0+255),w,b
  7670  002862  B4D8               	btfsc	status,2,c
  7671  002864  EF36  F014         	goto	u6831
  7672  002868  EF38  F014         	goto	u6830
  7673  00286C                     u6831:
  7674  00286C  EF4D  F014         	goto	l5033
  7675  002870                     u6830:
  7676  002870                     
  7677                           ; BSR set to: 0
  7678  002870  2978               	incf	___fldiv@aexp& (0+255),w,b
  7679  002872  A4D8               	btfss	status,2,c
  7680  002874  EF3E  F014         	goto	u6841
  7681  002878  EF40  F014         	goto	u6840
  7682  00287C                     u6841:
  7683  00287C  EF48  F014         	goto	l5029
  7684  002880                     u6840:
  7685  002880                     
  7686                           ; BSR set to: 0
  7687  002880  0E00               	movlw	0
  7688  002882  6F64               	movwf	___fldiv@a& (0+255),b
  7689  002884  0E00               	movlw	0
  7690  002886  6F65               	movwf	(___fldiv@a+1)& (0+255),b
  7691  002888  0E00               	movlw	0
  7692  00288A  6F66               	movwf	(___fldiv@a+2)& (0+255),b
  7693  00288C  0E00               	movlw	0
  7694  00288E  6F67               	movwf	(___fldiv@a+3)& (0+255),b
  7695  002890                     l5029:
  7696                           
  7697                           ; BSR set to: 0
  7698  002890  8F66               	bsf	(___fldiv@a+2)& (0+255),7,b
  7699  002892                     
  7700                           ; BSR set to: 0
  7701  002892  0E00               	movlw	0
  7702  002894  6F67               	movwf	(___fldiv@a+3)& (0+255),b
  7703  002896  EF55  F014         	goto	l5035
  7704  00289A                     l5033:
  7705                           
  7706                           ; BSR set to: 0
  7707  00289A  0E00               	movlw	0
  7708  00289C  6F64               	movwf	___fldiv@a& (0+255),b
  7709  00289E  0E00               	movlw	0
  7710  0028A0  6F65               	movwf	(___fldiv@a+1)& (0+255),b
  7711  0028A2  0E00               	movlw	0
  7712  0028A4  6F66               	movwf	(___fldiv@a+2)& (0+255),b
  7713  0028A6  0E00               	movlw	0
  7714  0028A8  6F67               	movwf	(___fldiv@a+3)& (0+255),b
  7715  0028AA                     l5035:
  7716                           
  7717                           ; BSR set to: 0
  7718  0028AA  5164               	movf	___fldiv@a& (0+255),w,b
  7719  0028AC  1165               	iorwf	(___fldiv@a+1)& (0+255),w,b
  7720  0028AE  1166               	iorwf	(___fldiv@a+2)& (0+255),w,b
  7721  0028B0  1167               	iorwf	(___fldiv@a+3)& (0+255),w,b
  7722  0028B2  A4D8               	btfss	status,2,c
  7723  0028B4  EF5E  F014         	goto	u6851
  7724  0028B8  EF60  F014         	goto	u6850
  7725  0028BC                     u6851:
  7726  0028BC  EF78  F014         	goto	l5047
  7727  0028C0                     u6850:
  7728  0028C0                     
  7729                           ; BSR set to: 0
  7730  0028C0  0E00               	movlw	0
  7731  0028C2  6F60               	movwf	___fldiv@b& (0+255),b
  7732  0028C4  0E00               	movlw	0
  7733  0028C6  6F61               	movwf	(___fldiv@b+1)& (0+255),b
  7734  0028C8  0E00               	movlw	0
  7735  0028CA  6F62               	movwf	(___fldiv@b+2)& (0+255),b
  7736  0028CC  0E00               	movlw	0
  7737  0028CE  6F63               	movwf	(___fldiv@b+3)& (0+255),b
  7738  0028D0                     
  7739                           ; BSR set to: 0
  7740  0028D0  0E80               	movlw	128
  7741  0028D2  1362               	iorwf	(___fldiv@b+2)& (0+255),f,b
  7742  0028D4  0E7F               	movlw	127
  7743  0028D6  1363               	iorwf	(___fldiv@b+3)& (0+255),f,b
  7744  0028D8                     l5041:
  7745                           
  7746                           ; BSR set to: 0
  7747  0028D8  5170               	movf	___fldiv@sign& (0+255),w,b
  7748  0028DA  1363               	iorwf	(___fldiv@b+3)& (0+255),f,b
  7749  0028DC                     
  7750                           ; BSR set to: 0
  7751  0028DC  C060  F060         	movff	___fldiv@b,?___fldiv
  7752  0028E0  C061  F061         	movff	___fldiv@b+1,?___fldiv+1
  7753  0028E4  C062  F062         	movff	___fldiv@b+2,?___fldiv+2
  7754  0028E8  C063  F063         	movff	___fldiv@b+3,?___fldiv+3
  7755  0028EC  EFBB  F015         	goto	l711
  7756  0028F0                     l5047:
  7757                           
  7758                           ; BSR set to: 0
  7759  0028F0  5177               	movf	___fldiv@bexp& (0+255),w,b
  7760  0028F2  A4D8               	btfss	status,2,c
  7761  0028F4  EF7E  F014         	goto	u6861
  7762  0028F8  EF80  F014         	goto	u6860
  7763  0028FC                     u6861:
  7764  0028FC  EF8A  F014         	goto	l5055
  7765  002900                     u6860:
  7766  002900                     
  7767                           ; BSR set to: 0
  7768  002900  0E00               	movlw	0
  7769  002902  6F60               	movwf	?___fldiv& (0+255),b
  7770  002904  0E00               	movlw	0
  7771  002906  6F61               	movwf	(?___fldiv+1)& (0+255),b
  7772  002908  0E00               	movlw	0
  7773  00290A  6F62               	movwf	(?___fldiv+2)& (0+255),b
  7774  00290C  0E00               	movlw	0
  7775  00290E  6F63               	movwf	(?___fldiv+3)& (0+255),b
  7776  002910  EFBB  F015         	goto	l711
  7777  002914                     l5055:
  7778                           
  7779                           ; BSR set to: 0
  7780  002914  5178               	movf	___fldiv@aexp& (0+255),w,b
  7781  002916  C077  F068         	movff	___fldiv@bexp,??___fldiv
  7782  00291A  6B69               	clrf	(??___fldiv+1)& (0+255),b
  7783  00291C  5F68               	subwf	??___fldiv& (0+255),f,b
  7784  00291E  0E00               	movlw	0
  7785  002920  5B69               	subwfb	(??___fldiv+1)& (0+255),f,b
  7786  002922  0E7F               	movlw	127
  7787  002924  2568               	addwf	??___fldiv& (0+255),w,b
  7788  002926  6F71               	movwf	___fldiv@new_exp& (0+255),b
  7789  002928  0E00               	movlw	0
  7790  00292A  2169               	addwfc	(??___fldiv+1)& (0+255),w,b
  7791  00292C  6F72               	movwf	(___fldiv@new_exp+1)& (0+255),b
  7792  00292E                     
  7793                           ; BSR set to: 0
  7794  00292E  C060  F06C         	movff	___fldiv@b,___fldiv@rem
  7795  002932  C061  F06D         	movff	___fldiv@b+1,___fldiv@rem+1
  7796  002936  C062  F06E         	movff	___fldiv@b+2,___fldiv@rem+2
  7797  00293A  C063  F06F         	movff	___fldiv@b+3,___fldiv@rem+3
  7798  00293E                     
  7799                           ; BSR set to: 0
  7800  00293E  0E00               	movlw	0
  7801  002940  6F60               	movwf	___fldiv@b& (0+255),b
  7802  002942  0E00               	movlw	0
  7803  002944  6F61               	movwf	(___fldiv@b+1)& (0+255),b
  7804  002946  0E00               	movlw	0
  7805  002948  6F62               	movwf	(___fldiv@b+2)& (0+255),b
  7806  00294A  0E00               	movlw	0
  7807  00294C  6F63               	movwf	(___fldiv@b+3)& (0+255),b
  7808  00294E                     
  7809                           ; BSR set to: 0
  7810  00294E  0E00               	movlw	0
  7811  002950  6F73               	movwf	___fldiv@grs& (0+255),b
  7812  002952  0E00               	movlw	0
  7813  002954  6F74               	movwf	(___fldiv@grs+1)& (0+255),b
  7814  002956  0E00               	movlw	0
  7815  002958  6F75               	movwf	(___fldiv@grs+2)& (0+255),b
  7816  00295A  0E00               	movlw	0
  7817  00295C  6F76               	movwf	(___fldiv@grs+3)& (0+255),b
  7818  00295E                     
  7819                           ; BSR set to: 0
  7820  00295E  0E00               	movlw	0
  7821  002960  6F78               	movwf	___fldiv@aexp& (0+255),b
  7822  002962  EFEB  F014         	goto	l713
  7823  002966                     l5065:
  7824                           
  7825                           ; BSR set to: 0
  7826  002966  5178               	movf	___fldiv@aexp& (0+255),w,b
  7827  002968  B4D8               	btfsc	status,2,c
  7828  00296A  EFB9  F014         	goto	u6871
  7829  00296E  EFBB  F014         	goto	u6870
  7830  002972                     u6871:
  7831  002972  EFD2  F014         	goto	l5073
  7832  002976                     u6870:
  7833  002976                     
  7834                           ; BSR set to: 0
  7835  002976  90D8               	bcf	status,0,c
  7836  002978  376C               	rlcf	___fldiv@rem& (0+255),f,b
  7837  00297A  376D               	rlcf	(___fldiv@rem+1)& (0+255),f,b
  7838  00297C  376E               	rlcf	(___fldiv@rem+2)& (0+255),f,b
  7839  00297E  376F               	rlcf	(___fldiv@rem+3)& (0+255),f,b
  7840  002980  90D8               	bcf	status,0,c
  7841  002982  3760               	rlcf	___fldiv@b& (0+255),f,b
  7842  002984  3761               	rlcf	(___fldiv@b+1)& (0+255),f,b
  7843  002986  3762               	rlcf	(___fldiv@b+2)& (0+255),f,b
  7844  002988  3763               	rlcf	(___fldiv@b+3)& (0+255),f,b
  7845  00298A                     
  7846                           ; BSR set to: 0
  7847  00298A  AF76               	btfss	(___fldiv@grs+3)& (0+255),7,b
  7848  00298C  EFCA  F014         	goto	u6881
  7849  002990  EFCC  F014         	goto	u6880
  7850  002994                     u6881:
  7851  002994  EFCD  F014         	goto	l716
  7852  002998                     u6880:
  7853  002998                     
  7854                           ; BSR set to: 0
  7855  002998  8160               	bsf	___fldiv@b& (0+255),0,b
  7856  00299A                     l716:
  7857                           
  7858                           ; BSR set to: 0
  7859  00299A  90D8               	bcf	status,0,c
  7860  00299C  3773               	rlcf	___fldiv@grs& (0+255),f,b
  7861  00299E  3774               	rlcf	(___fldiv@grs+1)& (0+255),f,b
  7862  0029A0  3775               	rlcf	(___fldiv@grs+2)& (0+255),f,b
  7863  0029A2  3776               	rlcf	(___fldiv@grs+3)& (0+255),f,b
  7864  0029A4                     l5073:
  7865                           
  7866                           ; BSR set to: 0
  7867  0029A4  5164               	movf	___fldiv@a& (0+255),w,b
  7868  0029A6  5D6C               	subwf	___fldiv@rem& (0+255),w,b
  7869  0029A8  5165               	movf	(___fldiv@a+1)& (0+255),w,b
  7870  0029AA  596D               	subwfb	(___fldiv@rem+1)& (0+255),w,b
  7871  0029AC  5166               	movf	(___fldiv@a+2)& (0+255),w,b
  7872  0029AE  596E               	subwfb	(___fldiv@rem+2)& (0+255),w,b
  7873  0029B0  5167               	movf	(___fldiv@a+3)& (0+255),w,b
  7874  0029B2  596F               	subwfb	(___fldiv@rem+3)& (0+255),w,b
  7875  0029B4  A0D8               	btfss	status,0,c
  7876  0029B6  EFDF  F014         	goto	u6891
  7877  0029BA  EFE1  F014         	goto	u6890
  7878  0029BE                     u6891:
  7879  0029BE  EFEA  F014         	goto	l5079
  7880  0029C2                     u6890:
  7881  0029C2                     
  7882                           ; BSR set to: 0
  7883  0029C2  8D76               	bsf	(___fldiv@grs+3)& (0+255),6,b
  7884  0029C4                     
  7885                           ; BSR set to: 0
  7886  0029C4  5164               	movf	___fldiv@a& (0+255),w,b
  7887  0029C6  5F6C               	subwf	___fldiv@rem& (0+255),f,b
  7888  0029C8  5165               	movf	(___fldiv@a+1)& (0+255),w,b
  7889  0029CA  5B6D               	subwfb	(___fldiv@rem+1)& (0+255),f,b
  7890  0029CC  5166               	movf	(___fldiv@a+2)& (0+255),w,b
  7891  0029CE  5B6E               	subwfb	(___fldiv@rem+2)& (0+255),f,b
  7892  0029D0  5167               	movf	(___fldiv@a+3)& (0+255),w,b
  7893  0029D2  5B6F               	subwfb	(___fldiv@rem+3)& (0+255),f,b
  7894  0029D4                     l5079:
  7895                           
  7896                           ; BSR set to: 0
  7897  0029D4  2B78               	incf	___fldiv@aexp& (0+255),f,b
  7898  0029D6                     l713:
  7899                           
  7900                           ; BSR set to: 0
  7901  0029D6  0E19               	movlw	25
  7902  0029D8  6578               	cpfsgt	___fldiv@aexp& (0+255),b
  7903  0029DA  EFF1  F014         	goto	u6901
  7904  0029DE  EFF3  F014         	goto	u6900
  7905  0029E2                     u6901:
  7906  0029E2  EFB3  F014         	goto	l5065
  7907  0029E6                     u6900:
  7908  0029E6                     
  7909                           ; BSR set to: 0
  7910  0029E6  516C               	movf	___fldiv@rem& (0+255),w,b
  7911  0029E8  116D               	iorwf	(___fldiv@rem+1)& (0+255),w,b
  7912  0029EA  116E               	iorwf	(___fldiv@rem+2)& (0+255),w,b
  7913  0029EC  116F               	iorwf	(___fldiv@rem+3)& (0+255),w,b
  7914  0029EE  B4D8               	btfsc	status,2,c
  7915  0029F0  EFFC  F014         	goto	u6911
  7916  0029F4  EFFE  F014         	goto	u6910
  7917  0029F8                     u6911:
  7918  0029F8  EF16  F015         	goto	l5091
  7919  0029FC                     u6910:
  7920  0029FC                     
  7921                           ; BSR set to: 0
  7922  0029FC  8173               	bsf	___fldiv@grs& (0+255),0,b
  7923  0029FE  EF16  F015         	goto	l5091
  7924  002A02                     l5085:
  7925                           
  7926                           ; BSR set to: 0
  7927  002A02  90D8               	bcf	status,0,c
  7928  002A04  3760               	rlcf	___fldiv@b& (0+255),f,b
  7929  002A06  3761               	rlcf	(___fldiv@b+1)& (0+255),f,b
  7930  002A08  3762               	rlcf	(___fldiv@b+2)& (0+255),f,b
  7931  002A0A  3763               	rlcf	(___fldiv@b+3)& (0+255),f,b
  7932  002A0C                     
  7933                           ; BSR set to: 0
  7934  002A0C  AF76               	btfss	(___fldiv@grs+3)& (0+255),7,b
  7935  002A0E  EF0B  F015         	goto	u6921
  7936  002A12  EF0D  F015         	goto	u6920
  7937  002A16                     u6921:
  7938  002A16  EF0E  F015         	goto	l722
  7939  002A1A                     u6920:
  7940  002A1A                     
  7941                           ; BSR set to: 0
  7942  002A1A  8160               	bsf	___fldiv@b& (0+255),0,b
  7943  002A1C                     l722:
  7944                           
  7945                           ; BSR set to: 0
  7946  002A1C  90D8               	bcf	status,0,c
  7947  002A1E  3773               	rlcf	___fldiv@grs& (0+255),f,b
  7948  002A20  3774               	rlcf	(___fldiv@grs+1)& (0+255),f,b
  7949  002A22  3775               	rlcf	(___fldiv@grs+2)& (0+255),f,b
  7950  002A24  3776               	rlcf	(___fldiv@grs+3)& (0+255),f,b
  7951  002A26  0771               	decf	___fldiv@new_exp& (0+255),f,b
  7952  002A28  A0D8               	btfss	status,0,c
  7953  002A2A  0772               	decf	(___fldiv@new_exp+1)& (0+255),f,b
  7954  002A2C                     l5091:
  7955                           
  7956                           ; BSR set to: 0
  7957  002A2C  AF62               	btfss	(___fldiv@b+2)& (0+255),7,b
  7958  002A2E  EF1B  F015         	goto	u6931
  7959  002A32  EF1D  F015         	goto	u6930
  7960  002A36                     u6931:
  7961  002A36  EF01  F015         	goto	l5085
  7962  002A3A                     u6930:
  7963  002A3A                     
  7964                           ; BSR set to: 0
  7965  002A3A  0E00               	movlw	0
  7966  002A3C  6F78               	movwf	___fldiv@aexp& (0+255),b
  7967  002A3E                     
  7968                           ; BSR set to: 0
  7969  002A3E  AF76               	btfss	(___fldiv@grs+3)& (0+255),7,b
  7970  002A40  EF24  F015         	goto	u6941
  7971  002A44  EF26  F015         	goto	u6940
  7972  002A48                     u6941:
  7973  002A48  EF4A  F015         	goto	l724
  7974  002A4C                     u6940:
  7975  002A4C                     
  7976                           ; BSR set to: 0
  7977  002A4C  0EFF               	movlw	255
  7978  002A4E  1573               	andwf	___fldiv@grs& (0+255),w,b
  7979  002A50  6F68               	movwf	??___fldiv& (0+255),b
  7980  002A52  0EFF               	movlw	255
  7981  002A54  1574               	andwf	(___fldiv@grs+1)& (0+255),w,b
  7982  002A56  6F69               	movwf	(??___fldiv+1)& (0+255),b
  7983  002A58  0EFF               	movlw	255
  7984  002A5A  1575               	andwf	(___fldiv@grs+2)& (0+255),w,b
  7985  002A5C  6F6A               	movwf	(??___fldiv+2)& (0+255),b
  7986  002A5E  0E7F               	movlw	127
  7987  002A60  1576               	andwf	(___fldiv@grs+3)& (0+255),w,b
  7988  002A62  6F6B               	movwf	(??___fldiv+3)& (0+255),b
  7989  002A64  5168               	movf	??___fldiv& (0+255),w,b
  7990  002A66  1169               	iorwf	(??___fldiv+1)& (0+255),w,b
  7991  002A68  116A               	iorwf	(??___fldiv+2)& (0+255),w,b
  7992  002A6A  116B               	iorwf	(??___fldiv+3)& (0+255),w,b
  7993  002A6C  B4D8               	btfsc	status,2,c
  7994  002A6E  EF3B  F015         	goto	u6951
  7995  002A72  EF3D  F015         	goto	u6950
  7996  002A76                     u6951:
  7997  002A76  EF41  F015         	goto	l725
  7998  002A7A                     u6950:
  7999  002A7A                     l5099:
  8000                           
  8001                           ; BSR set to: 0
  8002  002A7A  0E01               	movlw	1
  8003  002A7C  6F78               	movwf	___fldiv@aexp& (0+255),b
  8004  002A7E  EF4A  F015         	goto	l724
  8005  002A82                     l725:
  8006                           
  8007                           ; BSR set to: 0
  8008  002A82  A160               	btfss	___fldiv@b& (0+255),0,b
  8009  002A84  EF46  F015         	goto	u6961
  8010  002A88  EF48  F015         	goto	u6960
  8011  002A8C                     u6961:
  8012  002A8C  EF4A  F015         	goto	l724
  8013  002A90                     u6960:
  8014  002A90  EF3D  F015         	goto	l5099
  8015  002A94                     l724:
  8016                           
  8017                           ; BSR set to: 0
  8018  002A94  5178               	movf	___fldiv@aexp& (0+255),w,b
  8019  002A96  B4D8               	btfsc	status,2,c
  8020  002A98  EF50  F015         	goto	u6971
  8021  002A9C  EF52  F015         	goto	u6970
  8022  002AA0                     u6971:
  8023  002AA0  EF76  F015         	goto	l5111
  8024  002AA4                     u6970:
  8025  002AA4                     
  8026                           ; BSR set to: 0
  8027  002AA4  0E01               	movlw	1
  8028  002AA6  2760               	addwf	___fldiv@b& (0+255),f,b
  8029  002AA8  0E00               	movlw	0
  8030  002AAA  2361               	addwfc	(___fldiv@b+1)& (0+255),f,b
  8031  002AAC  2362               	addwfc	(___fldiv@b+2)& (0+255),f,b
  8032  002AAE  2363               	addwfc	(___fldiv@b+3)& (0+255),f,b
  8033  002AB0                     
  8034                           ; BSR set to: 0
  8035  002AB0  A163               	btfss	(___fldiv@b+3)& (0+255),0,b
  8036  002AB2  EF5D  F015         	goto	u6981
  8037  002AB6  EF5F  F015         	goto	u6980
  8038  002ABA                     u6981:
  8039  002ABA  EF76  F015         	goto	l5111
  8040  002ABE                     u6980:
  8041  002ABE                     
  8042                           ; BSR set to: 0
  8043  002ABE  C060  F068         	movff	___fldiv@b,??___fldiv
  8044  002AC2  C061  F069         	movff	___fldiv@b+1,??___fldiv+1
  8045  002AC6  C062  F06A         	movff	___fldiv@b+2,??___fldiv+2
  8046  002ACA  C063  F06B         	movff	___fldiv@b+3,??___fldiv+3
  8047  002ACE  356B               	rlcf	(??___fldiv+3)& (0+255),w,b
  8048  002AD0  336B               	rrcf	(??___fldiv+3)& (0+255),f,b
  8049  002AD2  336A               	rrcf	(??___fldiv+2)& (0+255),f,b
  8050  002AD4  3369               	rrcf	(??___fldiv+1)& (0+255),f,b
  8051  002AD6  3368               	rrcf	??___fldiv& (0+255),f,b
  8052  002AD8  C068  F060         	movff	??___fldiv,___fldiv@b
  8053  002ADC  C069  F061         	movff	??___fldiv+1,___fldiv@b+1
  8054  002AE0  C06A  F062         	movff	??___fldiv+2,___fldiv@b+2
  8055  002AE4  C06B  F063         	movff	??___fldiv+3,___fldiv@b+3
  8056  002AE8                     
  8057                           ; BSR set to: 0
  8058  002AE8  4B71               	infsnz	___fldiv@new_exp& (0+255),f,b
  8059  002AEA  2B72               	incf	(___fldiv@new_exp+1)& (0+255),f,b
  8060  002AEC                     l5111:
  8061                           
  8062                           ; BSR set to: 0
  8063  002AEC  BF72               	btfsc	(___fldiv@new_exp+1)& (0+255),7,b
  8064  002AEE  EF81  F015         	goto	u6991
  8065  002AF2  5172               	movf	(___fldiv@new_exp+1)& (0+255),w,b
  8066  002AF4  E108               	bnz	u6990
  8067  002AF6  2971               	incf	___fldiv@new_exp& (0+255),w,b
  8068  002AF8  A0D8               	btfss	status,0,c
  8069  002AFA  EF81  F015         	goto	u6991
  8070  002AFE  EF83  F015         	goto	u6990
  8071  002B02                     u6991:
  8072  002B02  EF8E  F015         	goto	l5115
  8073  002B06                     u6990:
  8074  002B06                     
  8075                           ; BSR set to: 0
  8076  002B06  0E00               	movlw	0
  8077  002B08  6F72               	movwf	(___fldiv@new_exp+1)& (0+255),b
  8078  002B0A  6971               	setf	___fldiv@new_exp& (0+255),b
  8079  002B0C  0E00               	movlw	0
  8080  002B0E  6F60               	movwf	___fldiv@b& (0+255),b
  8081  002B10  0E00               	movlw	0
  8082  002B12  6F61               	movwf	(___fldiv@b+1)& (0+255),b
  8083  002B14  0E00               	movlw	0
  8084  002B16  6F62               	movwf	(___fldiv@b+2)& (0+255),b
  8085  002B18  0E00               	movlw	0
  8086  002B1A  6F63               	movwf	(___fldiv@b+3)& (0+255),b
  8087  002B1C                     l5115:
  8088                           
  8089                           ; BSR set to: 0
  8090  002B1C  BF72               	btfsc	(___fldiv@new_exp+1)& (0+255),7,b
  8091  002B1E  EF9B  F015         	goto	u7000
  8092  002B22  5172               	movf	(___fldiv@new_exp+1)& (0+255),w,b
  8093  002B24  E106               	bnz	u7001
  8094  002B26  0571               	decf	___fldiv@new_exp& (0+255),w,b
  8095  002B28  B0D8               	btfsc	status,0,c
  8096  002B2A  EF99  F015         	goto	u7001
  8097  002B2E  EF9B  F015         	goto	u7000
  8098  002B32                     u7001:
  8099  002B32  EFA9  F015         	goto	l5119
  8100  002B36                     u7000:
  8101  002B36                     
  8102                           ; BSR set to: 0
  8103  002B36  0E00               	movlw	0
  8104  002B38  6F72               	movwf	(___fldiv@new_exp+1)& (0+255),b
  8105  002B3A  0E00               	movlw	0
  8106  002B3C  6F71               	movwf	___fldiv@new_exp& (0+255),b
  8107  002B3E  0E00               	movlw	0
  8108  002B40  6F60               	movwf	___fldiv@b& (0+255),b
  8109  002B42  0E00               	movlw	0
  8110  002B44  6F61               	movwf	(___fldiv@b+1)& (0+255),b
  8111  002B46  0E00               	movlw	0
  8112  002B48  6F62               	movwf	(___fldiv@b+2)& (0+255),b
  8113  002B4A  0E00               	movlw	0
  8114  002B4C  6F63               	movwf	(___fldiv@b+3)& (0+255),b
  8115  002B4E  0E00               	movlw	0
  8116  002B50  6F70               	movwf	___fldiv@sign& (0+255),b
  8117  002B52                     l5119:
  8118                           
  8119                           ; BSR set to: 0
  8120  002B52  C071  F077         	movff	___fldiv@new_exp,___fldiv@bexp
  8121  002B56                     
  8122                           ; BSR set to: 0
  8123  002B56  A177               	btfss	___fldiv@bexp& (0+255),0,b
  8124  002B58  EFB0  F015         	goto	u7011
  8125  002B5C  EFB2  F015         	goto	u7010
  8126  002B60                     u7011:
  8127  002B60  EFB5  F015         	goto	l5125
  8128  002B64                     u7010:
  8129  002B64                     
  8130                           ; BSR set to: 0
  8131  002B64  8F62               	bsf	(___fldiv@b+2)& (0+255),7,b
  8132  002B66  EFB6  F015         	goto	l5127
  8133  002B6A                     l5125:
  8134                           
  8135                           ; BSR set to: 0
  8136  002B6A  9F62               	bcf	(___fldiv@b+2)& (0+255),7,b
  8137  002B6C                     l5127:
  8138                           
  8139                           ; BSR set to: 0
  8140  002B6C  90D8               	bcf	status,0,c
  8141  002B6E  3177               	rrcf	___fldiv@bexp& (0+255),w,b
  8142  002B70  6F63               	movwf	(___fldiv@b+3)& (0+255),b
  8143  002B72  EF6C  F014         	goto	l5041
  8144  002B76                     l711:
  8145                           
  8146                           ; BSR set to: 0
  8147  002B76  0012               	return		;funcret
  8148  002B78                     __end_of___fldiv:
  8149                           	callstack 0
  8150                           
  8151 ;; *************** function ___awmod *****************
  8152 ;; Defined at:
  8153 ;;		line 7 in file "C:\Program Files\Microchip\xc8\v2.32\pic\sources\c99\common\awmod.c"
  8154 ;; Parameters:    Size  Location     Type
  8155 ;;  dividend        2    0[BANK0 ] int 
  8156 ;;  divisor         2    2[BANK0 ] int 
  8157 ;; Auto vars:     Size  Location     Type
  8158 ;;  sign            1    5[BANK0 ] unsigned char 
  8159 ;;  counter         1    4[BANK0 ] unsigned char 
  8160 ;; Return value:  Size  Location     Type
  8161 ;;                  2    0[BANK0 ] int 
  8162 ;; Registers used:
  8163 ;;		wreg, status,2, status,0
  8164 ;; Tracked objects:
  8165 ;;		On entry : 0/0
  8166 ;;		On exit  : 0/0
  8167 ;;		Unchanged: 0/0
  8168 ;; Data sizes:     COMRAM   BANK0   BANK1   BANK2   BANK3   BANK4   BANK5   BANK6   BANK7
  8169 ;;      Params:         0       4       0       0       0       0       0       0       0
  8170 ;;      Locals:         0       2       0       0       0       0       0       0       0
  8171 ;;      Temps:          0       0       0       0       0       0       0       0       0
  8172 ;;      Totals:         0       6       0       0       0       0       0       0       0
  8173 ;;Total ram usage:        6 bytes
  8174 ;; Hardware stack levels used: 1
  8175 ;; Hardware stack levels required when called: 4
  8176 ;; This function calls:
  8177 ;;		Nothing
  8178 ;; This function is called by:
  8179 ;;		_efgtoa
  8180 ;; This function uses a non-reentrant model
  8181 ;;
  8182                           
  8183                           	psect	text23
  8184  003E18                     __ptext23:
  8185                           	callstack 0
  8186  003E18                     ___awmod:
  8187                           	callstack 22
  8188  003E18  0E00               	movlw	0
  8189  003E1A  0100               	movlb	0	; () banked
  8190  003E1C  6F65               	movwf	___awmod@sign& (0+255),b
  8191  003E1E                     
  8192                           ; BSR set to: 0
  8193  003E1E  BF61               	btfsc	(___awmod@dividend+1)& (0+255),7,b
  8194  003E20  EF16  F01F         	goto	u7270
  8195  003E24  EF14  F01F         	goto	u7271
  8196  003E28                     u7271:
  8197  003E28  EF1C  F01F         	goto	l5323
  8198  003E2C                     u7270:
  8199  003E2C                     
  8200                           ; BSR set to: 0
  8201  003E2C  6D60               	negf	___awmod@dividend& (0+255),b
  8202  003E2E  1F61               	comf	(___awmod@dividend+1)& (0+255),f,b
  8203  003E30  B0D8               	btfsc	status,0,c
  8204  003E32  2B61               	incf	(___awmod@dividend+1)& (0+255),f,b
  8205  003E34                     
  8206                           ; BSR set to: 0
  8207  003E34  0E01               	movlw	1
  8208  003E36  6F65               	movwf	___awmod@sign& (0+255),b
  8209  003E38                     l5323:
  8210                           
  8211                           ; BSR set to: 0
  8212  003E38  BF63               	btfsc	(___awmod@divisor+1)& (0+255),7,b
  8213  003E3A  EF23  F01F         	goto	u7280
  8214  003E3E  EF21  F01F         	goto	u7281
  8215  003E42                     u7281:
  8216  003E42  EF27  F01F         	goto	l5327
  8217  003E46                     u7280:
  8218  003E46                     
  8219                           ; BSR set to: 0
  8220  003E46  6D62               	negf	___awmod@divisor& (0+255),b
  8221  003E48  1F63               	comf	(___awmod@divisor+1)& (0+255),f,b
  8222  003E4A  B0D8               	btfsc	status,0,c
  8223  003E4C  2B63               	incf	(___awmod@divisor+1)& (0+255),f,b
  8224  003E4E                     l5327:
  8225                           
  8226                           ; BSR set to: 0
  8227  003E4E  5162               	movf	___awmod@divisor& (0+255),w,b
  8228  003E50  1163               	iorwf	(___awmod@divisor+1)& (0+255),w,b
  8229  003E52  B4D8               	btfsc	status,2,c
  8230  003E54  EF2E  F01F         	goto	u7291
  8231  003E58  EF30  F01F         	goto	u7290
  8232  003E5C                     u7291:
  8233  003E5C  EF54  F01F         	goto	l5343
  8234  003E60                     u7290:
  8235  003E60                     
  8236                           ; BSR set to: 0
  8237  003E60  0E01               	movlw	1
  8238  003E62  6F64               	movwf	___awmod@counter& (0+255),b
  8239  003E64  EF38  F01F         	goto	l5333
  8240  003E68                     l5331:
  8241                           
  8242                           ; BSR set to: 0
  8243  003E68  90D8               	bcf	status,0,c
  8244  003E6A  3762               	rlcf	___awmod@divisor& (0+255),f,b
  8245  003E6C  3763               	rlcf	(___awmod@divisor+1)& (0+255),f,b
  8246  003E6E  2B64               	incf	___awmod@counter& (0+255),f,b
  8247  003E70                     l5333:
  8248                           
  8249                           ; BSR set to: 0
  8250  003E70  AF63               	btfss	(___awmod@divisor+1)& (0+255),7,b
  8251  003E72  EF3D  F01F         	goto	u7301
  8252  003E76  EF3F  F01F         	goto	u7300
  8253  003E7A                     u7301:
  8254  003E7A  EF34  F01F         	goto	l5331
  8255  003E7E                     u7300:
  8256  003E7E                     l5335:
  8257                           
  8258                           ; BSR set to: 0
  8259  003E7E  5162               	movf	___awmod@divisor& (0+255),w,b
  8260  003E80  5D60               	subwf	___awmod@dividend& (0+255),w,b
  8261  003E82  5163               	movf	(___awmod@divisor+1)& (0+255),w,b
  8262  003E84  5961               	subwfb	(___awmod@dividend+1)& (0+255),w,b
  8263  003E86  A0D8               	btfss	status,0,c
  8264  003E88  EF48  F01F         	goto	u7311
  8265  003E8C  EF4A  F01F         	goto	u7310
  8266  003E90                     u7311:
  8267  003E90  EF4E  F01F         	goto	l5339
  8268  003E94                     u7310:
  8269  003E94                     
  8270                           ; BSR set to: 0
  8271  003E94  5162               	movf	___awmod@divisor& (0+255),w,b
  8272  003E96  5F60               	subwf	___awmod@dividend& (0+255),f,b
  8273  003E98  5163               	movf	(___awmod@divisor+1)& (0+255),w,b
  8274  003E9A  5B61               	subwfb	(___awmod@dividend+1)& (0+255),f,b
  8275  003E9C                     l5339:
  8276                           
  8277                           ; BSR set to: 0
  8278  003E9C  90D8               	bcf	status,0,c
  8279  003E9E  3363               	rrcf	(___awmod@divisor+1)& (0+255),f,b
  8280  003EA0  3362               	rrcf	___awmod@divisor& (0+255),f,b
  8281  003EA2                     
  8282                           ; BSR set to: 0
  8283  003EA2  2F64               	decfsz	___awmod@counter& (0+255),f,b
  8284  003EA4  EF3F  F01F         	goto	l5335
  8285  003EA8                     l5343:
  8286                           
  8287                           ; BSR set to: 0
  8288  003EA8  5165               	movf	___awmod@sign& (0+255),w,b
  8289  003EAA  B4D8               	btfsc	status,2,c
  8290  003EAC  EF5A  F01F         	goto	u7321
  8291  003EB0  EF5C  F01F         	goto	u7320
  8292  003EB4                     u7321:
  8293  003EB4  EF60  F01F         	goto	l5347
  8294  003EB8                     u7320:
  8295  003EB8                     
  8296                           ; BSR set to: 0
  8297  003EB8  6D60               	negf	___awmod@dividend& (0+255),b
  8298  003EBA  1F61               	comf	(___awmod@dividend+1)& (0+255),f,b
  8299  003EBC  B0D8               	btfsc	status,0,c
  8300  003EBE  2B61               	incf	(___awmod@dividend+1)& (0+255),f,b
  8301  003EC0                     l5347:
  8302                           
  8303                           ; BSR set to: 0
  8304  003EC0  C060  F060         	movff	___awmod@dividend,?___awmod
  8305  003EC4  C061  F061         	movff	___awmod@dividend+1,?___awmod+1
  8306  003EC8                     
  8307                           ; BSR set to: 0
  8308  003EC8  0012               	return		;funcret
  8309  003ECA                     __end_of___awmod:
  8310                           	callstack 0
  8311                           
  8312 ;; *************** function ___awdiv *****************
  8313 ;; Defined at:
  8314 ;;		line 7 in file "C:\Program Files\Microchip\xc8\v2.32\pic\sources\c99\common\awdiv.c"
  8315 ;; Parameters:    Size  Location     Type
  8316 ;;  dividend        2    0[BANK0 ] int 
  8317 ;;  divisor         2    2[BANK0 ] int 
  8318 ;; Auto vars:     Size  Location     Type
  8319 ;;  quotient        2    6[BANK0 ] int 
  8320 ;;  sign            1    5[BANK0 ] unsigned char 
  8321 ;;  counter         1    4[BANK0 ] unsigned char 
  8322 ;; Return value:  Size  Location     Type
  8323 ;;                  2    0[BANK0 ] int 
  8324 ;; Registers used:
  8325 ;;		wreg, status,2, status,0
  8326 ;; Tracked objects:
  8327 ;;		On entry : 0/0
  8328 ;;		On exit  : 0/0
  8329 ;;		Unchanged: 0/0
  8330 ;; Data sizes:     COMRAM   BANK0   BANK1   BANK2   BANK3   BANK4   BANK5   BANK6   BANK7
  8331 ;;      Params:         0       4       0       0       0       0       0       0       0
  8332 ;;      Locals:         0       4       0       0       0       0       0       0       0
  8333 ;;      Temps:          0       0       0       0       0       0       0       0       0
  8334 ;;      Totals:         0       8       0       0       0       0       0       0       0
  8335 ;;Total ram usage:        8 bytes
  8336 ;; Hardware stack levels used: 1
  8337 ;; Hardware stack levels required when called: 4
  8338 ;; This function calls:
  8339 ;;		Nothing
  8340 ;; This function is called by:
  8341 ;;		_efgtoa
  8342 ;; This function uses a non-reentrant model
  8343 ;;
  8344                           
  8345                           	psect	text24
  8346  003D52                     __ptext24:
  8347                           	callstack 0
  8348  003D52                     ___awdiv:
  8349                           	callstack 22
  8350  003D52  0E00               	movlw	0
  8351  003D54  0100               	movlb	0	; () banked
  8352  003D56  6F65               	movwf	___awdiv@sign& (0+255),b
  8353  003D58                     
  8354                           ; BSR set to: 0
  8355  003D58  BF63               	btfsc	(___awdiv@divisor+1)& (0+255),7,b
  8356  003D5A  EFB3  F01E         	goto	u7210
  8357  003D5E  EFB1  F01E         	goto	u7211
  8358  003D62                     u7211:
  8359  003D62  EFB9  F01E         	goto	l5279
  8360  003D66                     u7210:
  8361  003D66                     
  8362                           ; BSR set to: 0
  8363  003D66  6D62               	negf	___awdiv@divisor& (0+255),b
  8364  003D68  1F63               	comf	(___awdiv@divisor+1)& (0+255),f,b
  8365  003D6A  B0D8               	btfsc	status,0,c
  8366  003D6C  2B63               	incf	(___awdiv@divisor+1)& (0+255),f,b
  8367  003D6E                     
  8368                           ; BSR set to: 0
  8369  003D6E  0E01               	movlw	1
  8370  003D70  6F65               	movwf	___awdiv@sign& (0+255),b
  8371  003D72                     l5279:
  8372                           
  8373                           ; BSR set to: 0
  8374  003D72  BF61               	btfsc	(___awdiv@dividend+1)& (0+255),7,b
  8375  003D74  EFC0  F01E         	goto	u7220
  8376  003D78  EFBE  F01E         	goto	u7221
  8377  003D7C                     u7221:
  8378  003D7C  EFC6  F01E         	goto	l5285
  8379  003D80                     u7220:
  8380  003D80                     
  8381                           ; BSR set to: 0
  8382  003D80  6D60               	negf	___awdiv@dividend& (0+255),b
  8383  003D82  1F61               	comf	(___awdiv@dividend+1)& (0+255),f,b
  8384  003D84  B0D8               	btfsc	status,0,c
  8385  003D86  2B61               	incf	(___awdiv@dividend+1)& (0+255),f,b
  8386  003D88                     
  8387                           ; BSR set to: 0
  8388  003D88  0E01               	movlw	1
  8389  003D8A  1B65               	xorwf	___awdiv@sign& (0+255),f,b
  8390  003D8C                     l5285:
  8391                           
  8392                           ; BSR set to: 0
  8393  003D8C  0E00               	movlw	0
  8394  003D8E  6F67               	movwf	(___awdiv@quotient+1)& (0+255),b
  8395  003D90  0E00               	movlw	0
  8396  003D92  6F66               	movwf	___awdiv@quotient& (0+255),b
  8397  003D94                     
  8398                           ; BSR set to: 0
  8399  003D94  5162               	movf	___awdiv@divisor& (0+255),w,b
  8400  003D96  1163               	iorwf	(___awdiv@divisor+1)& (0+255),w,b
  8401  003D98  B4D8               	btfsc	status,2,c
  8402  003D9A  EFD1  F01E         	goto	u7231
  8403  003D9E  EFD3  F01E         	goto	u7230
  8404  003DA2                     u7231:
  8405  003DA2  EFFB  F01E         	goto	l5307
  8406  003DA6                     u7230:
  8407  003DA6                     
  8408                           ; BSR set to: 0
  8409  003DA6  0E01               	movlw	1
  8410  003DA8  6F64               	movwf	___awdiv@counter& (0+255),b
  8411  003DAA  EFDB  F01E         	goto	l5293
  8412  003DAE                     l5291:
  8413                           
  8414                           ; BSR set to: 0
  8415  003DAE  90D8               	bcf	status,0,c
  8416  003DB0  3762               	rlcf	___awdiv@divisor& (0+255),f,b
  8417  003DB2  3763               	rlcf	(___awdiv@divisor+1)& (0+255),f,b
  8418  003DB4  2B64               	incf	___awdiv@counter& (0+255),f,b
  8419  003DB6                     l5293:
  8420                           
  8421                           ; BSR set to: 0
  8422  003DB6  AF63               	btfss	(___awdiv@divisor+1)& (0+255),7,b
  8423  003DB8  EFE0  F01E         	goto	u7241
  8424  003DBC  EFE2  F01E         	goto	u7240
  8425  003DC0                     u7241:
  8426  003DC0  EFD7  F01E         	goto	l5291
  8427  003DC4                     u7240:
  8428  003DC4                     l5295:
  8429                           
  8430                           ; BSR set to: 0
  8431  003DC4  90D8               	bcf	status,0,c
  8432  003DC6  3766               	rlcf	___awdiv@quotient& (0+255),f,b
  8433  003DC8  3767               	rlcf	(___awdiv@quotient+1)& (0+255),f,b
  8434  003DCA                     
  8435                           ; BSR set to: 0
  8436  003DCA  5162               	movf	___awdiv@divisor& (0+255),w,b
  8437  003DCC  5D60               	subwf	___awdiv@dividend& (0+255),w,b
  8438  003DCE  5163               	movf	(___awdiv@divisor+1)& (0+255),w,b
  8439  003DD0  5961               	subwfb	(___awdiv@dividend+1)& (0+255),w,b
  8440  003DD2  A0D8               	btfss	status,0,c
  8441  003DD4  EFEE  F01E         	goto	u7251
  8442  003DD8  EFF0  F01E         	goto	u7250
  8443  003DDC                     u7251:
  8444  003DDC  EFF5  F01E         	goto	l5303
  8445  003DE0                     u7250:
  8446  003DE0                     
  8447                           ; BSR set to: 0
  8448  003DE0  5162               	movf	___awdiv@divisor& (0+255),w,b
  8449  003DE2  5F60               	subwf	___awdiv@dividend& (0+255),f,b
  8450  003DE4  5163               	movf	(___awdiv@divisor+1)& (0+255),w,b
  8451  003DE6  5B61               	subwfb	(___awdiv@dividend+1)& (0+255),f,b
  8452  003DE8                     
  8453                           ; BSR set to: 0
  8454  003DE8  8166               	bsf	___awdiv@quotient& (0+255),0,b
  8455  003DEA                     l5303:
  8456                           
  8457                           ; BSR set to: 0
  8458  003DEA  90D8               	bcf	status,0,c
  8459  003DEC  3363               	rrcf	(___awdiv@divisor+1)& (0+255),f,b
  8460  003DEE  3362               	rrcf	___awdiv@divisor& (0+255),f,b
  8461  003DF0                     
  8462                           ; BSR set to: 0
  8463  003DF0  2F64               	decfsz	___awdiv@counter& (0+255),f,b
  8464  003DF2  EFE2  F01E         	goto	l5295
  8465  003DF6                     l5307:
  8466                           
  8467                           ; BSR set to: 0
  8468  003DF6  5165               	movf	___awdiv@sign& (0+255),w,b
  8469  003DF8  B4D8               	btfsc	status,2,c
  8470  003DFA  EF01  F01F         	goto	u7261
  8471  003DFE  EF03  F01F         	goto	u7260
  8472  003E02                     u7261:
  8473  003E02  EF07  F01F         	goto	l5311
  8474  003E06                     u7260:
  8475  003E06                     
  8476                           ; BSR set to: 0
  8477  003E06  6D66               	negf	___awdiv@quotient& (0+255),b
  8478  003E08  1F67               	comf	(___awdiv@quotient+1)& (0+255),f,b
  8479  003E0A  B0D8               	btfsc	status,0,c
  8480  003E0C  2B67               	incf	(___awdiv@quotient+1)& (0+255),f,b
  8481  003E0E                     l5311:
  8482                           
  8483                           ; BSR set to: 0
  8484  003E0E  C066  F060         	movff	___awdiv@quotient,?___awdiv
  8485  003E12  C067  F061         	movff	___awdiv@quotient+1,?___awdiv+1
  8486  003E16                     
  8487                           ; BSR set to: 0
  8488  003E16  0012               	return		;funcret
  8489  003E18                     __end_of___awdiv:
  8490                           	callstack 0
  8491                           
  8492 ;; *************** function _atoi *****************
  8493 ;; Defined at:
  8494 ;;		line 4 in file "C:\Program Files\Microchip\xc8\v2.32\pic\sources\c99\common\atoi.c"
  8495 ;; Parameters:    Size  Location     Type
  8496 ;;  s               2    7[BANK0 ] PTR const unsigned char 
  8497 ;;		 -> STR_6(6), 
  8498 ;; Auto vars:     Size  Location     Type
  8499 ;;  n               2   20[BANK0 ] int 
  8500 ;;  neg             2   13[BANK0 ] int 
  8501 ;; Return value:  Size  Location     Type
  8502 ;;                  2    7[BANK0 ] int 
  8503 ;; Registers used:
  8504 ;;		wreg, status,2, status,0, tblptrl, tblptrh, tblptru, prodl, prodh, cstack
  8505 ;; Tracked objects:
  8506 ;;		On entry : 0/0
  8507 ;;		On exit  : 0/0
  8508 ;;		Unchanged: 0/0
  8509 ;; Data sizes:     COMRAM   BANK0   BANK1   BANK2   BANK3   BANK4   BANK5   BANK6   BANK7
  8510 ;;      Params:         0       2       0       0       0       0       0       0       0
  8511 ;;      Locals:         0       9       0       0       0       0       0       0       0
  8512 ;;      Temps:          0       4       0       0       0       0       0       0       0
  8513 ;;      Totals:         0      15       0       0       0       0       0       0       0
  8514 ;;Total ram usage:       15 bytes
  8515 ;; Hardware stack levels used: 1
  8516 ;; Hardware stack levels required when called: 5
  8517 ;; This function calls:
  8518 ;;		___wmul
  8519 ;;		_isdigit
  8520 ;;		_isspace
  8521 ;; This function is called by:
  8522 ;;		_vfpfcnvrt
  8523 ;; This function uses a non-reentrant model
  8524 ;;
  8525                           
  8526                           	psect	text25
  8527  0032E4                     __ptext25:
  8528                           	callstack 0
  8529  0032E4                     _atoi:
  8530                           	callstack 22
  8531  0032E4  0E00               	movlw	0
  8532  0032E6  0100               	movlb	0	; () banked
  8533  0032E8  6F75               	movwf	(atoi@n+1)& (0+255),b
  8534  0032EA  0E00               	movlw	0
  8535  0032EC  6F74               	movwf	atoi@n& (0+255),b
  8536  0032EE  0E00               	movlw	0
  8537  0032F0  6F6E               	movwf	(atoi@neg+1)& (0+255),b
  8538  0032F2  0E00               	movlw	0
  8539  0032F4  6F6D               	movwf	atoi@neg& (0+255),b
  8540  0032F6  EF7F  F019         	goto	l5855
  8541  0032FA                     l5853:
  8542                           
  8543                           ; BSR set to: 0
  8544  0032FA  4B67               	infsnz	atoi@s& (0+255),f,b
  8545  0032FC  2B68               	incf	(atoi@s+1)& (0+255),f,b
  8546  0032FE                     l5855:
  8547                           
  8548                           ; BSR set to: 0
  8549  0032FE  0E01               	movlw	1
  8550  003300  6F73               	movwf	_atoi$1172& (0+255),b
  8551  003302                     
  8552                           ; BSR set to: 0
  8553  003302  C067  FFF6         	movff	atoi@s,tblptrl
  8554  003306  C068  FFF7         	movff	atoi@s+1,tblptrh
  8555  00330A                     	if	0	;tblptru may be non-zero
  8556  00330A                     	endif
  8557  00330A                     	if	0	;tblptru may be non-zero
  8558  00330A                     	endif
  8559  00330A  0008               	tblrd		*
  8560  00330C  50F5               	movf	tablat,w,c
  8561  00330E  0A20               	xorlw	32
  8562  003310  B4D8               	btfsc	status,2,c
  8563  003312  EF8D  F019         	goto	u8331
  8564  003316  EF8F  F019         	goto	u8330
  8565  00331A                     u8331:
  8566  00331A  EFAC  F019         	goto	l5863
  8567  00331E                     u8330:
  8568  00331E                     
  8569                           ; BSR set to: 0
  8570  00331E  0EF7               	movlw	247
  8571  003320  6F69               	movwf	??_atoi& (0+255),b
  8572  003322  0EFF               	movlw	255
  8573  003324  6F6A               	movwf	(??_atoi+1)& (0+255),b
  8574  003326  C067  FFF6         	movff	atoi@s,tblptrl
  8575  00332A  C068  FFF7         	movff	atoi@s+1,tblptrh
  8576  00332E                     	if	0	;tblptru may be non-zero
  8577  00332E                     	endif
  8578  00332E                     	if	0	;tblptru may be non-zero
  8579  00332E                     	endif
  8580  00332E  0008               	tblrd		*
  8581  003330  50F5               	movf	tablat,w,c
  8582  003332  6F6B               	movwf	(??_atoi+2)& (0+255),b
  8583  003334  6B6C               	clrf	(??_atoi+3)& (0+255),b
  8584  003336  5169               	movf	??_atoi& (0+255),w,b
  8585  003338  276B               	addwf	(??_atoi+2)& (0+255),f,b
  8586  00333A  516A               	movf	(??_atoi+1)& (0+255),w,b
  8587  00333C  236C               	addwfc	(??_atoi+3)& (0+255),f,b
  8588  00333E  516C               	movf	(??_atoi+3)& (0+255),w,b
  8589  003340  E109               	bnz	u8340
  8590  003342  0E05               	movlw	5
  8591  003344  5D6B               	subwf	(??_atoi+2)& (0+255),w,b
  8592  003346  A0D8               	btfss	status,0,c
  8593  003348  EFA8  F019         	goto	u8341
  8594  00334C  EFAA  F019         	goto	u8340
  8595  003350                     u8341:
  8596  003350  EFAC  F019         	goto	l5863
  8597  003354                     u8340:
  8598  003354                     
  8599                           ; BSR set to: 0
  8600  003354  0E00               	movlw	0
  8601  003356  6F73               	movwf	_atoi$1172& (0+255),b
  8602  003358                     l5863:
  8603                           
  8604                           ; BSR set to: 0
  8605  003358  C073  F06F         	movff	_atoi$1172,_atoi$1171
  8606  00335C  6B70               	clrf	(_atoi$1171+1)& (0+255),b
  8607  00335E                     
  8608                           ; BSR set to: 0
  8609  00335E  516F               	movf	_atoi$1171& (0+255),w,b
  8610  003360  1170               	iorwf	(_atoi$1171+1)& (0+255),w,b
  8611  003362  A4D8               	btfss	status,2,c
  8612  003364  EFB6  F019         	goto	u8351
  8613  003368  EFB8  F019         	goto	u8350
  8614  00336C                     u8351:
  8615  00336C  EF7D  F019         	goto	l5853
  8616  003370                     u8350:
  8617  003370  EFC2  F019         	goto	l5873
  8618  003374                     l5869:
  8619                           
  8620                           ; BSR set to: 0
  8621  003374  0E00               	movlw	0
  8622  003376  6F6E               	movwf	(atoi@neg+1)& (0+255),b
  8623  003378  0E01               	movlw	1
  8624  00337A  6F6D               	movwf	atoi@neg& (0+255),b
  8625  00337C                     l5871:
  8626                           
  8627                           ; BSR set to: 0
  8628  00337C  4B67               	infsnz	atoi@s& (0+255),f,b
  8629  00337E  2B68               	incf	(atoi@s+1)& (0+255),f,b
  8630  003380  EFF8  F019         	goto	l5879
  8631  003384                     l5873:
  8632                           
  8633                           ; BSR set to: 0
  8634  003384  C067  FFF6         	movff	atoi@s,tblptrl
  8635  003388  C068  FFF7         	movff	atoi@s+1,tblptrh
  8636  00338C                     	if	0	;tblptru may be non-zero
  8637  00338C                     	endif
  8638  00338C                     	if	0	;tblptru may be non-zero
  8639  00338C                     	endif
  8640  00338C  0008               	tblrd		*
  8641  00338E  50F5               	movf	tablat,w,c
  8642  003390  6F69               	movwf	??_atoi& (0+255),b
  8643  003392  6B6A               	clrf	(??_atoi+1)& (0+255),b
  8644                           
  8645                           ; Switch on 2 bytes has been partitioned into a top level switch of size 1, and 1 sub-sw
      +                          itches
  8646                           ; Switch size 1, requested type "simple"
  8647                           ; Number of cases is 1, Range of values is 0 to 0
  8648                           ; switch strategies available:
  8649                           ; Name         Instructions Cycles
  8650                           ; simple_byte            4     3 (average)
  8651                           ;	Chosen strategy is simple_byte
  8652  003394  516A               	movf	(??_atoi+1)& (0+255),w,b
  8653  003396  0A00               	xorlw	0	; case 0
  8654  003398  B4D8               	btfsc	status,2,c
  8655  00339A  EFD1  F019         	goto	l6195
  8656  00339E  EFF8  F019         	goto	l5879
  8657  0033A2                     l6195:
  8658                           
  8659                           ; BSR set to: 0
  8660                           ; Switch size 1, requested type "simple"
  8661                           ; Number of cases is 2, Range of values is 43 to 45
  8662                           ; switch strategies available:
  8663                           ; Name         Instructions Cycles
  8664                           ; simple_byte            7     4 (average)
  8665                           ;	Chosen strategy is simple_byte
  8666  0033A2  5169               	movf	??_atoi& (0+255),w,b
  8667  0033A4  0A2B               	xorlw	43	; case 43
  8668  0033A6  B4D8               	btfsc	status,2,c
  8669  0033A8  EFBE  F019         	goto	l5871
  8670  0033AC  0A06               	xorlw	6	; case 45
  8671  0033AE  B4D8               	btfsc	status,2,c
  8672  0033B0  EFBA  F019         	goto	l5869
  8673  0033B4  EFF8  F019         	goto	l5879
  8674  0033B8                     l5875:
  8675                           
  8676                           ; BSR set to: 0
  8677  0033B8  C074  F060         	movff	atoi@n,___wmul@multiplier
  8678  0033BC  C075  F061         	movff	atoi@n+1,___wmul@multiplier+1
  8679  0033C0  0E00               	movlw	0
  8680  0033C2  6F63               	movwf	(___wmul@multiplicand+1)& (0+255),b
  8681  0033C4  0E0A               	movlw	10
  8682  0033C6  6F62               	movwf	___wmul@multiplicand& (0+255),b
  8683  0033C8  ECA3  F022         	call	___wmul	;wreg free
  8684  0033CC  C067  FFF6         	movff	atoi@s,tblptrl
  8685  0033D0  C068  FFF7         	movff	atoi@s+1,tblptrh
  8686  0033D4                     	if	0	;tblptru may be non-zero
  8687  0033D4                     	endif
  8688  0033D4                     	if	0	;tblptru may be non-zero
  8689  0033D4                     	endif
  8690  0033D4  0008               	tblrd		*
  8691  0033D6  50F5               	movf	tablat,w,c
  8692  0033D8  0100               	movlb	0	; () banked
  8693  0033DA  5F60               	subwf	?___wmul& (0+255),f,b
  8694  0033DC  0E00               	movlw	0
  8695  0033DE  5B61               	subwfb	(?___wmul+1)& (0+255),f,b
  8696  0033E0  0E30               	movlw	48
  8697  0033E2  2560               	addwf	?___wmul& (0+255),w,b
  8698  0033E4  6F74               	movwf	atoi@n& (0+255),b
  8699  0033E6  0E00               	movlw	0
  8700  0033E8  2161               	addwfc	(?___wmul+1)& (0+255),w,b
  8701  0033EA  6F75               	movwf	(atoi@n+1)& (0+255),b
  8702  0033EC  EFBE  F019         	goto	l5871
  8703  0033F0                     l5879:
  8704                           
  8705                           ; BSR set to: 0
  8706  0033F0  0ED0               	movlw	208
  8707  0033F2  6F69               	movwf	??_atoi& (0+255),b
  8708  0033F4  0EFF               	movlw	255
  8709  0033F6  6F6A               	movwf	(??_atoi+1)& (0+255),b
  8710  0033F8  C067  FFF6         	movff	atoi@s,tblptrl
  8711  0033FC  C068  FFF7         	movff	atoi@s+1,tblptrh
  8712  003400                     	if	0	;tblptru may be non-zero
  8713  003400                     	endif
  8714  003400                     	if	0	;tblptru may be non-zero
  8715  003400                     	endif
  8716  003400  0008               	tblrd		*
  8717  003402  50F5               	movf	tablat,w,c
  8718  003404  6F6B               	movwf	(??_atoi+2)& (0+255),b
  8719  003406  6B6C               	clrf	(??_atoi+3)& (0+255),b
  8720  003408  5169               	movf	??_atoi& (0+255),w,b
  8721  00340A  276B               	addwf	(??_atoi+2)& (0+255),f,b
  8722  00340C  516A               	movf	(??_atoi+1)& (0+255),w,b
  8723  00340E  236C               	addwfc	(??_atoi+3)& (0+255),f,b
  8724  003410  516C               	movf	(??_atoi+3)& (0+255),w,b
  8725  003412  E10A               	bnz	u8360
  8726  003414  0E0A               	movlw	10
  8727  003416  5D6B               	subwf	(??_atoi+2)& (0+255),w,b
  8728  003418  A0D8               	btfss	status,0,c
  8729  00341A  EF11  F01A         	goto	u8361
  8730  00341E  EF14  F01A         	goto	u8360
  8731  003422                     u8361:
  8732  003422  0E01               	movlw	1
  8733  003424  EF15  F01A         	goto	u8370
  8734  003428                     u8360:
  8735  003428  0E00               	movlw	0
  8736  00342A                     u8370:
  8737  00342A  6F71               	movwf	_atoi$1173& (0+255),b
  8738  00342C  6B72               	clrf	(_atoi$1173+1)& (0+255),b
  8739  00342E                     
  8740                           ; BSR set to: 0
  8741  00342E  5171               	movf	_atoi$1173& (0+255),w,b
  8742  003430  1172               	iorwf	(_atoi$1173+1)& (0+255),w,b
  8743  003432  A4D8               	btfss	status,2,c
  8744  003434  EF1E  F01A         	goto	u8381
  8745  003438  EF20  F01A         	goto	u8380
  8746  00343C                     u8381:
  8747  00343C  EFDC  F019         	goto	l5875
  8748  003440                     u8380:
  8749  003440                     
  8750                           ; BSR set to: 0
  8751  003440  516D               	movf	atoi@neg& (0+255),w,b
  8752  003442  116E               	iorwf	(atoi@neg+1)& (0+255),w,b
  8753  003444  A4D8               	btfss	status,2,c
  8754  003446  EF27  F01A         	goto	u8391
  8755  00344A  EF29  F01A         	goto	u8390
  8756  00344E                     u8391:
  8757  00344E  EF37  F01A         	goto	l1026
  8758  003452                     u8390:
  8759  003452                     
  8760                           ; BSR set to: 0
  8761  003452  C074  F069         	movff	atoi@n,??_atoi
  8762  003456  C075  F06A         	movff	atoi@n+1,??_atoi+1
  8763  00345A  1F69               	comf	??_atoi& (0+255),f,b
  8764  00345C  1F6A               	comf	(??_atoi+1)& (0+255),f,b
  8765  00345E  4B69               	infsnz	??_atoi& (0+255),f,b
  8766  003460  2B6A               	incf	(??_atoi+1)& (0+255),f,b
  8767  003462  C069  F067         	movff	??_atoi,?_atoi
  8768  003466  C06A  F068         	movff	??_atoi+1,?_atoi+1
  8769  00346A  EF3B  F01A         	goto	l1029
  8770  00346E                     l1026:
  8771                           
  8772                           ; BSR set to: 0
  8773  00346E  C074  F067         	movff	atoi@n,?_atoi
  8774  003472  C075  F068         	movff	atoi@n+1,?_atoi+1
  8775  003476                     l1029:
  8776                           
  8777                           ; BSR set to: 0
  8778  003476  0012               	return		;funcret
  8779  003478                     __end_of_atoi:
  8780                           	callstack 0
  8781                           
  8782 ;; *************** function _isspace *****************
  8783 ;; Defined at:
  8784 ;;		line 5 in file "C:\Program Files\Microchip\xc8\v2.32\pic\sources\c99\common\isspace.c"
  8785 ;; Parameters:    Size  Location     Type
  8786 ;;  c               2    0[BANK0 ] int 
  8787 ;; Auto vars:     Size  Location     Type
  8788 ;;		None
  8789 ;; Return value:  Size  Location     Type
  8790 ;;                  2    0[BANK0 ] int 
  8791 ;; Registers used:
  8792 ;;		wreg, status,2, status,0
  8793 ;; Tracked objects:
  8794 ;;		On entry : 0/0
  8795 ;;		On exit  : 0/0
  8796 ;;		Unchanged: 0/0
  8797 ;; Data sizes:     COMRAM   BANK0   BANK1   BANK2   BANK3   BANK4   BANK5   BANK6   BANK7
  8798 ;;      Params:         0       2       0       0       0       0       0       0       0
  8799 ;;      Locals:         0       1       0       0       0       0       0       0       0
  8800 ;;      Temps:          0       4       0       0       0       0       0       0       0
  8801 ;;      Totals:         0       7       0       0       0       0       0       0       0
  8802 ;;Total ram usage:        7 bytes
  8803 ;; Hardware stack levels used: 1
  8804 ;; Hardware stack levels required when called: 4
  8805 ;; This function calls:
  8806 ;;		Nothing
  8807 ;; This function is called by:
  8808 ;;		_atoi
  8809 ;; This function uses a non-reentrant model
  8810 ;;
  8811                           
  8812                           	psect	text26
  8813  004246                     __ptext26:
  8814                           	callstack 0
  8815  004246                     _isspace:
  8816                           	callstack 22
  8817  004246  0E01               	movlw	1
  8818  004248  0100               	movlb	0	; () banked
  8819  00424A  6F66               	movwf	_isspace$1202& (0+255),b
  8820  00424C                     
  8821                           ; BSR set to: 0
  8822  00424C  0E20               	movlw	32
  8823  00424E  1960               	xorwf	isspace@c& (0+255),w,b
  8824  004250  1161               	iorwf	(isspace@c+1)& (0+255),w,b
  8825  004252  B4D8               	btfsc	status,2,c
  8826  004254  EF2E  F021         	goto	u7771
  8827  004258  EF30  F021         	goto	u7770
  8828  00425C                     u7771:
  8829  00425C  EF49  F021         	goto	l5539
  8830  004260                     u7770:
  8831  004260                     
  8832                           ; BSR set to: 0
  8833  004260  0EF7               	movlw	247
  8834  004262  6F62               	movwf	??_isspace& (0+255),b
  8835  004264  0EFF               	movlw	255
  8836  004266  6F63               	movwf	(??_isspace+1)& (0+255),b
  8837  004268  C060  F064         	movff	isspace@c,??_isspace+2
  8838  00426C  C061  F065         	movff	isspace@c+1,??_isspace+3
  8839  004270  5162               	movf	??_isspace& (0+255),w,b
  8840  004272  2764               	addwf	(??_isspace+2)& (0+255),f,b
  8841  004274  5163               	movf	(??_isspace+1)& (0+255),w,b
  8842  004276  2365               	addwfc	(??_isspace+3)& (0+255),f,b
  8843  004278  5165               	movf	(??_isspace+3)& (0+255),w,b
  8844  00427A  E109               	bnz	u7780
  8845  00427C  0E05               	movlw	5
  8846  00427E  5D64               	subwf	(??_isspace+2)& (0+255),w,b
  8847  004280  A0D8               	btfss	status,0,c
  8848  004282  EF45  F021         	goto	u7781
  8849  004286  EF47  F021         	goto	u7780
  8850  00428A                     u7781:
  8851  00428A  EF49  F021         	goto	l5539
  8852  00428E                     u7780:
  8853  00428E                     
  8854                           ; BSR set to: 0
  8855  00428E  0E00               	movlw	0
  8856  004290  6F66               	movwf	_isspace$1202& (0+255),b
  8857  004292                     l5539:
  8858                           
  8859                           ; BSR set to: 0
  8860  004292  C066  F060         	movff	_isspace$1202,?_isspace
  8861  004296  6B61               	clrf	(?_isspace+1)& (0+255),b
  8862  004298                     
  8863                           ; BSR set to: 0
  8864  004298  0012               	return		;funcret
  8865  00429A                     __end_of_isspace:
  8866                           	callstack 0
  8867                           
  8868 ;; *************** function _isdigit *****************
  8869 ;; Defined at:
  8870 ;;		line 5 in file "C:\Program Files\Microchip\xc8\v2.32\pic\sources\c99\common\isdigit.c"
  8871 ;; Parameters:    Size  Location     Type
  8872 ;;  c               2    0[BANK0 ] int 
  8873 ;; Auto vars:     Size  Location     Type
  8874 ;;		None
  8875 ;; Return value:  Size  Location     Type
  8876 ;;                  2    0[BANK0 ] int 
  8877 ;; Registers used:
  8878 ;;		wreg, status,2, status,0
  8879 ;; Tracked objects:
  8880 ;;		On entry : 0/0
  8881 ;;		On exit  : 0/0
  8882 ;;		Unchanged: 0/0
  8883 ;; Data sizes:     COMRAM   BANK0   BANK1   BANK2   BANK3   BANK4   BANK5   BANK6   BANK7
  8884 ;;      Params:         0       2       0       0       0       0       0       0       0
  8885 ;;      Locals:         0       0       0       0       0       0       0       0       0
  8886 ;;      Temps:          0       4       0       0       0       0       0       0       0
  8887 ;;      Totals:         0       6       0       0       0       0       0       0       0
  8888 ;;Total ram usage:        6 bytes
  8889 ;; Hardware stack levels used: 1
  8890 ;; Hardware stack levels required when called: 4
  8891 ;; This function calls:
  8892 ;;		Nothing
  8893 ;; This function is called by:
  8894 ;;		_vfpfcnvrt
  8895 ;;		_atoi
  8896 ;; This function uses a non-reentrant model
  8897 ;;
  8898                           
  8899                           	psect	text27
  8900  0044E2                     __ptext27:
  8901                           	callstack 0
  8902  0044E2                     _isdigit:
  8903                           	callstack 23
  8904  0044E2  0ED0               	movlw	208
  8905  0044E4  0100               	movlb	0	; () banked
  8906  0044E6  6F62               	movwf	??_isdigit& (0+255),b
  8907  0044E8  0EFF               	movlw	255
  8908  0044EA  6F63               	movwf	(??_isdigit+1)& (0+255),b
  8909  0044EC  C060  F064         	movff	isdigit@c,??_isdigit+2
  8910  0044F0  C061  F065         	movff	isdigit@c+1,??_isdigit+3
  8911  0044F4  5162               	movf	??_isdigit& (0+255),w,b
  8912  0044F6  2764               	addwf	(??_isdigit+2)& (0+255),f,b
  8913  0044F8  5163               	movf	(??_isdigit+1)& (0+255),w,b
  8914  0044FA  2365               	addwfc	(??_isdigit+3)& (0+255),f,b
  8915  0044FC  5165               	movf	(??_isdigit+3)& (0+255),w,b
  8916  0044FE  E10A               	bnz	u7750
  8917  004500  0E0A               	movlw	10
  8918  004502  5D64               	subwf	(??_isdigit+2)& (0+255),w,b
  8919  004504  A0D8               	btfss	status,0,c
  8920  004506  EF87  F022         	goto	u7751
  8921  00450A  EF8A  F022         	goto	u7750
  8922  00450E                     u7751:
  8923  00450E  0E01               	movlw	1
  8924  004510  EF8B  F022         	goto	u7760
  8925  004514                     u7750:
  8926  004514  0E00               	movlw	0
  8927  004516                     u7760:
  8928  004516  6F60               	movwf	?_isdigit& (0+255),b
  8929  004518  6B61               	clrf	(?_isdigit+1)& (0+255),b
  8930  00451A                     
  8931                           ; BSR set to: 0
  8932  00451A  0012               	return		;funcret
  8933  00451C                     __end_of_isdigit:
  8934                           	callstack 0
  8935                           
  8936 ;; *************** function ___wmul *****************
  8937 ;; Defined at:
  8938 ;;		line 15 in file "C:\Program Files\Microchip\xc8\v2.32\pic\sources\c99\common\Umul16.c"
  8939 ;; Parameters:    Size  Location     Type
  8940 ;;  multiplier      2    0[BANK0 ] unsigned int 
  8941 ;;  multiplicand    2    2[BANK0 ] unsigned int 
  8942 ;; Auto vars:     Size  Location     Type
  8943 ;;  product         2    4[BANK0 ] unsigned int 
  8944 ;; Return value:  Size  Location     Type
  8945 ;;                  2    0[BANK0 ] unsigned int 
  8946 ;; Registers used:
  8947 ;;		wreg, status,2, status,0, prodl, prodh
  8948 ;; Tracked objects:
  8949 ;;		On entry : 0/0
  8950 ;;		On exit  : 0/0
  8951 ;;		Unchanged: 0/0
  8952 ;; Data sizes:     COMRAM   BANK0   BANK1   BANK2   BANK3   BANK4   BANK5   BANK6   BANK7
  8953 ;;      Params:         0       4       0       0       0       0       0       0       0
  8954 ;;      Locals:         0       2       0       0       0       0       0       0       0
  8955 ;;      Temps:          0       0       0       0       0       0       0       0       0
  8956 ;;      Totals:         0       6       0       0       0       0       0       0       0
  8957 ;;Total ram usage:        6 bytes
  8958 ;; Hardware stack levels used: 1
  8959 ;; Hardware stack levels required when called: 4
  8960 ;; This function calls:
  8961 ;;		Nothing
  8962 ;; This function is called by:
  8963 ;;		_main
  8964 ;;		_atoi
  8965 ;; This function uses a non-reentrant model
  8966 ;;
  8967                           
  8968                           	psect	text28
  8969  004546                     __ptext28:
  8970                           	callstack 0
  8971  004546                     ___wmul:
  8972                           	callstack 22
  8973  004546  0100               	movlb	0	; () banked
  8974  004548  5160               	movf	___wmul@multiplier& (0+255),w,b
  8975  00454A  0362               	mulwf	___wmul@multiplicand& (0+255),b
  8976  00454C  CFF3 F064          	movff	prodl,___wmul@product
  8977  004550  CFF4 F065          	movff	prodh,___wmul@product+1
  8978  004554  5160               	movf	___wmul@multiplier& (0+255),w,b
  8979  004556  0363               	mulwf	(___wmul@multiplicand+1)& (0+255),b
  8980  004558  50F3               	movf	243,w,c
  8981  00455A  2765               	addwf	(___wmul@product+1)& (0+255),f,b
  8982  00455C  5161               	movf	(___wmul@multiplier+1)& (0+255),w,b
  8983  00455E  0362               	mulwf	___wmul@multiplicand& (0+255),b
  8984  004560  50F3               	movf	243,w,c
  8985  004562  2765               	addwf	(___wmul@product+1)& (0+255),f,b
  8986  004564                     
  8987                           ; BSR set to: 0
  8988  004564  C064  F060         	movff	___wmul@product,?___wmul
  8989  004568  C065  F061         	movff	___wmul@product+1,?___wmul+1
  8990  00456C                     
  8991                           ; BSR set to: 0
  8992  00456C  0012               	return		;funcret
  8993  00456E                     __end_of___wmul:
  8994                           	callstack 0
  8995                           
  8996 ;; *************** function _setupADC *****************
  8997 ;; Defined at:
  8998 ;;		line 22 in file "ADC_LM35_lcd.c"
  8999 ;; Parameters:    Size  Location     Type
  9000 ;;		None
  9001 ;; Auto vars:     Size  Location     Type
  9002 ;;		None
  9003 ;; Return value:  Size  Location     Type
  9004 ;;                  1    wreg      void 
  9005 ;; Registers used:
  9006 ;;		wreg, status,2
  9007 ;; Tracked objects:
  9008 ;;		On entry : 0/0
  9009 ;;		On exit  : 0/0
  9010 ;;		Unchanged: 0/0
  9011 ;; Data sizes:     COMRAM   BANK0   BANK1   BANK2   BANK3   BANK4   BANK5   BANK6   BANK7
  9012 ;;      Params:         0       0       0       0       0       0       0       0       0
  9013 ;;      Locals:         0       0       0       0       0       0       0       0       0
  9014 ;;      Temps:          0       0       0       0       0       0       0       0       0
  9015 ;;      Totals:         0       0       0       0       0       0       0       0       0
  9016 ;;Total ram usage:        0 bytes
  9017 ;; Hardware stack levels used: 1
  9018 ;; Hardware stack levels required when called: 4
  9019 ;; This function calls:
  9020 ;;		Nothing
  9021 ;; This function is called by:
  9022 ;;		_main
  9023 ;; This function uses a non-reentrant model
  9024 ;;
  9025                           
  9026                           	psect	text29
  9027  00451C                     __ptext29:
  9028                           	callstack 0
  9029  00451C                     _setupADC:
  9030                           	callstack 26
  9031  00451C                     
  9032                           ;ADC_LM35_lcd.c: 24:     }
  9033  00451C  0E07               	movlw	7
  9034  00451E  6E92               	movwf	146,c	;volatile
  9035                           
  9036                           ;ADC_LM35_lcd.c: 25: 
  9037  004520  0E0C               	movlw	12
  9038  004522  6EC1               	movwf	193,c	;volatile
  9039                           
  9040                           ;ADC_LM35_lcd.c: 27:         CCPR1L = CCPR1L + 80;
  9041  004524  50C0               	movf	192,w,c	;volatile
  9042  004526  0BF8               	andlw	-8
  9043  004528  0906               	iorlw	6
  9044  00452A  6EC0               	movwf	192,c	;volatile
  9045                           
  9046                           ;ADC_LM35_lcd.c: 28:     } else if(temperatura >= 55){
  9047  00452C  50C0               	movf	192,w,c	;volatile
  9048  00452E  0BC7               	andlw	-57
  9049  004530  0920               	iorlw	32
  9050  004532  6EC0               	movwf	192,c	;volatile
  9051  004534                     
  9052                           ;ADC_LM35_lcd.c: 29:         CCPR1L = CCPR1L + 5;
  9053  004534  8EC0               	bsf	192,7,c	;volatile
  9054                           
  9055                           ;ADC_LM35_lcd.c: 31: }
  9056  004536  0E00               	movlw	0
  9057  004538  6EC2               	movwf	194,c	;volatile
  9058                           
  9059                           ;ADC_LM35_lcd.c: 32: void alarmeTemperatura(){
  9060  00453A  50C2               	movf	194,w,c	;volatile
  9061  00453C  0BC3               	andlw	-61
  9062  00453E  0908               	iorlw	8
  9063  004540  6EC2               	movwf	194,c	;volatile
  9064  004542                     
  9065                           ;ADC_LM35_lcd.c: 33:     if(temperatura > temperaturaMax){
  9066  004542  80C2               	bsf	194,0,c	;volatile
  9067  004544  0012               	return		;funcret
  9068  004546                     __end_of_setupADC:
  9069                           	callstack 0
  9070                           
  9071 ;; *************** function _limpa_lcd *****************
  9072 ;; Defined at:
  9073 ;;		line 26 in file "./lcd.intermed.h"
  9074 ;; Parameters:    Size  Location     Type
  9075 ;;		None
  9076 ;; Auto vars:     Size  Location     Type
  9077 ;;		None
  9078 ;; Return value:  Size  Location     Type
  9079 ;;                  1    wreg      void 
  9080 ;; Registers used:
  9081 ;;		wreg, status,2, cstack
  9082 ;; Tracked objects:
  9083 ;;		On entry : 0/0
  9084 ;;		On exit  : 0/0
  9085 ;;		Unchanged: 0/0
  9086 ;; Data sizes:     COMRAM   BANK0   BANK1   BANK2   BANK3   BANK4   BANK5   BANK6   BANK7
  9087 ;;      Params:         0       0       0       0       0       0       0       0       0
  9088 ;;      Locals:         0       0       0       0       0       0       0       0       0
  9089 ;;      Temps:          0       0       0       0       0       0       0       0       0
  9090 ;;      Totals:         0       0       0       0       0       0       0       0       0
  9091 ;;Total ram usage:        0 bytes
  9092 ;; Hardware stack levels used: 1
  9093 ;; Hardware stack levels required when called: 5
  9094 ;; This function calls:
  9095 ;;		_comando_lcd
  9096 ;; This function is called by:
  9097 ;;		_main
  9098 ;; This function uses a non-reentrant model
  9099 ;;
  9100                           
  9101                           	psect	text30
  9102  0045DE                     __ptext30:
  9103                           	callstack 0
  9104  0045DE                     _limpa_lcd:
  9105                           	callstack 25
  9106  0045DE                     
  9107                           ;./lcd.intermed.h: 28:     comando_lcd(1);
  9108  0045DE  0E00               	movlw	0
  9109  0045E0  0100               	movlb	0	; () banked
  9110  0045E2  6F61               	movwf	(comando_lcd@comando+1)& (0+255),b
  9111  0045E4  0E01               	movlw	1
  9112  0045E6  6F60               	movwf	comando_lcd@comando& (0+255),b
  9113  0045E8  ECB7  F022         	call	_comando_lcd	;wreg free
  9114  0045EC  0012               	return		;funcret
  9115  0045EE                     __end_of_limpa_lcd:
  9116                           	callstack 0
  9117                           
  9118 ;; *************** function _comando_lcd *****************
  9119 ;; Defined at:
  9120 ;;		line 7 in file "./lcd.intermed.h"
  9121 ;; Parameters:    Size  Location     Type
  9122 ;;  comando         2    0[BANK0 ] unsigned int 
  9123 ;; Auto vars:     Size  Location     Type
  9124 ;;		None
  9125 ;; Return value:  Size  Location     Type
  9126 ;;                  1    wreg      void 
  9127 ;; Registers used:
  9128 ;;		wreg
  9129 ;; Tracked objects:
  9130 ;;		On entry : 0/0
  9131 ;;		On exit  : 0/0
  9132 ;;		Unchanged: 0/0
  9133 ;; Data sizes:     COMRAM   BANK0   BANK1   BANK2   BANK3   BANK4   BANK5   BANK6   BANK7
  9134 ;;      Params:         0       2       0       0       0       0       0       0       0
  9135 ;;      Locals:         0       0       0       0       0       0       0       0       0
  9136 ;;      Temps:          0       1       0       0       0       0       0       0       0
  9137 ;;      Totals:         0       3       0       0       0       0       0       0       0
  9138 ;;Total ram usage:        3 bytes
  9139 ;; Hardware stack levels used: 1
  9140 ;; Hardware stack levels required when called: 4
  9141 ;; This function calls:
  9142 ;;		Nothing
  9143 ;; This function is called by:
  9144 ;;		_limpa_lcd
  9145 ;;		_main
  9146 ;; This function uses a non-reentrant model
  9147 ;;
  9148                           
  9149                           	psect	text31
  9150  00456E                     __ptext31:
  9151                           	callstack 0
  9152  00456E                     _comando_lcd:
  9153                           	callstack 25
  9154  00456E                     
  9155                           ;./lcd.intermed.h: 7: void comando_lcd(unsigned int comando);./lcd.intermed.h: 8: {;./lc
      +                          d.intermed.h: 9:     PORTEbits.RE2 = 0;
  9156  00456E  9484               	bcf	132,2,c	;volatile
  9157                           
  9158                           ;./lcd.intermed.h: 10:     PORTEbits.RE1 = 1;
  9159  004570  8284               	bsf	132,1,c	;volatile
  9160                           
  9161                           ;./lcd.intermed.h: 11:     PORTD = comando;
  9162  004572  C060  FF83         	movff	comando_lcd@comando,3971	;volatile
  9163  004576                     
  9164                           ;./lcd.intermed.h: 12:     _delay((unsigned long)((2)*(4000000/4000.0)));
  9165  004576  0E03               	movlw	3
  9166  004578  0100               	movlb	0	; () banked
  9167  00457A  6F62               	movwf	??_comando_lcd& (0+255),b
  9168  00457C  0E97               	movlw	151
  9169  00457E                     u8797:
  9170  00457E  2EE8               	decfsz	wreg,f,c
  9171  004580  D7FE               	bra	u8797
  9172  004582  2F62               	decfsz	??_comando_lcd& (0+255),f,b
  9173  004584  D7FC               	bra	u8797
  9174  004586  D000               	nop2	
  9175  004588                     
  9176                           ;./lcd.intermed.h: 13:     PORTEbits.RE1 = 0;
  9177  004588  9284               	bcf	132,1,c	;volatile
  9178  00458A  0012               	return		;funcret
  9179  00458C                     __end_of_comando_lcd:
  9180                           	callstack 0
  9181                           
  9182 ;; *************** function _imprime_lcd *****************
  9183 ;; Defined at:
  9184 ;;		line 31 in file "./lcd.intermed.h"
  9185 ;; Parameters:    Size  Location     Type
  9186 ;;  frase           2    4[BANK0 ] PTR unsigned char 
  9187 ;;		 -> STR_7(15), temperature(8), STR_5(12), STR_4(12), 
  9188 ;;		 -> STR_3(13), STR_2(12), STR_1(12), 
  9189 ;; Auto vars:     Size  Location     Type
  9190 ;;  indice          2   11[BANK0 ] int 
  9191 ;;  tamanho         2    9[BANK0 ] int 
  9192 ;; Return value:  Size  Location     Type
  9193 ;;                  1    wreg      void 
  9194 ;; Registers used:
  9195 ;;		wreg, fsr1l, fsr1h, status,2, status,0, tblptrl, tblptrh, tblptru, cstack
  9196 ;; Tracked objects:
  9197 ;;		On entry : 0/0
  9198 ;;		On exit  : 0/0
  9199 ;;		Unchanged: 0/0
  9200 ;; Data sizes:     COMRAM   BANK0   BANK1   BANK2   BANK3   BANK4   BANK5   BANK6   BANK7
  9201 ;;      Params:         0       2       0       0       0       0       0       0       0
  9202 ;;      Locals:         0       4       0       0       0       0       0       0       0
  9203 ;;      Temps:          0       3       0       0       0       0       0       0       0
  9204 ;;      Totals:         0       9       0       0       0       0       0       0       0
  9205 ;;Total ram usage:        9 bytes
  9206 ;; Hardware stack levels used: 1
  9207 ;; Hardware stack levels required when called: 5
  9208 ;; This function calls:
  9209 ;;		_dado_lcd
  9210 ;;		_strlen
  9211 ;; This function is called by:
  9212 ;;		_main
  9213 ;; This function uses a non-reentrant model
  9214 ;;
  9215                           
  9216                           	psect	text32
  9217  004024                     __ptext32:
  9218                           	callstack 0
  9219  004024                     _imprime_lcd:
  9220                           	callstack 25
  9221  004024                     
  9222                           ;./lcd.intermed.h: 31: void imprime_lcd(char frase[]);./lcd.intermed.h: 32: {;./lcd.inte
      +                          rmed.h: 33: int indice = 0;
  9223  004024  0E00               	movlw	0
  9224  004026  0100               	movlb	0	; () banked
  9225  004028  6F6C               	movwf	(imprime_lcd@indice+1)& (0+255),b
  9226  00402A  0E00               	movlw	0
  9227  00402C  6F6B               	movwf	imprime_lcd@indice& (0+255),b
  9228  00402E                     
  9229                           ; BSR set to: 0
  9230                           ;./lcd.intermed.h: 34: int tamanho = strlen(frase);
  9231  00402E  C064  F060         	movff	imprime_lcd@frase,strlen@s
  9232  004032  C065  F061         	movff	imprime_lcd@frase+1,strlen@s+1
  9233  004036  EC9F  F021         	call	_strlen	;wreg free
  9234  00403A  C060  F069         	movff	?_strlen,imprime_lcd@tamanho
  9235  00403E  C061  F06A         	movff	?_strlen+1,imprime_lcd@tamanho+1
  9236                           
  9237                           ;./lcd.intermed.h: 35: while(indice<tamanho)
  9238  004042  EF43  F020         	goto	l6051
  9239  004046                     l6047:
  9240                           
  9241                           ; BSR set to: 0
  9242                           ;./lcd.intermed.h: 36:     {;./lcd.intermed.h: 37: dado_lcd(frase[indice]);
  9243  004046  516B               	movf	imprime_lcd@indice& (0+255),w,b
  9244  004048  2564               	addwf	imprime_lcd@frase& (0+255),w,b
  9245  00404A  6F66               	movwf	??_imprime_lcd& (0+255),b
  9246  00404C  516C               	movf	(imprime_lcd@indice+1)& (0+255),w,b
  9247  00404E  2165               	addwfc	(imprime_lcd@frase+1)& (0+255),w,b
  9248  004050  6F67               	movwf	(??_imprime_lcd+1)& (0+255),b
  9249  004052  C066  FFF6         	movff	??_imprime_lcd,tblptrl
  9250  004056  C067  FFF7         	movff	??_imprime_lcd+1,tblptrh
  9251  00405A  6AF8               	clrf	tblptru,c
  9252  00405C  0E07               	movlw	(high __ramtop+-1)
  9253  00405E  64F7               	cpfsgt	tblptrh,c
  9254  004060  D003               	bra	u8657
  9255  004062  0008               	tblrd		*
  9256  004064  50F5               	movf	tablat,w,c
  9257  004066  D005               	bra	u8650
  9258  004068                     u8657:
  9259  004068  CFF6 FFE1          	movff	tblptrl,fsr1l
  9260  00406C  CFF7 FFE2          	movff	tblptrh,fsr1h
  9261  004070  50E7               	movf	indf1,w,c
  9262  004072                     u8650:
  9263  004072  0100               	movlb	0	; () banked
  9264  004074  6F68               	movwf	(??_imprime_lcd+2)& (0+255),b
  9265  004076  5168               	movf	(??_imprime_lcd+2)& (0+255),w,b
  9266  004078  6F60               	movwf	dado_lcd@dado& (0+255),b
  9267  00407A  6B61               	clrf	(dado_lcd@dado+1)& (0+255),b
  9268  00407C  ECC6  F022         	call	_dado_lcd	;wreg free
  9269  004080                     
  9270                           ;./lcd.intermed.h: 38: indice++;
  9271  004080  0100               	movlb	0	; () banked
  9272  004082  4B6B               	infsnz	imprime_lcd@indice& (0+255),f,b
  9273  004084  2B6C               	incf	(imprime_lcd@indice+1)& (0+255),f,b
  9274  004086                     l6051:
  9275                           
  9276                           ;./lcd.intermed.h: 35: while(indice<tamanho)
  9277  004086  0100               	movlb	0	; () banked
  9278  004088  5169               	movf	imprime_lcd@tamanho& (0+255),w,b
  9279  00408A  5D6B               	subwf	imprime_lcd@indice& (0+255),w,b
  9280  00408C  516C               	movf	(imprime_lcd@indice+1)& (0+255),w,b
  9281  00408E  0A80               	xorlw	128
  9282  004090  6F66               	movwf	??_imprime_lcd& (0+255),b
  9283  004092  516A               	movf	(imprime_lcd@tamanho+1)& (0+255),w,b
  9284  004094  0A80               	xorlw	128
  9285  004096  5966               	subwfb	??_imprime_lcd& (0+255),w,b
  9286  004098  A0D8               	btfss	status,0,c
  9287  00409A  EF51  F020         	goto	u8661
  9288  00409E  EF53  F020         	goto	u8660
  9289  0040A2                     u8661:
  9290  0040A2  EF23  F020         	goto	l6047
  9291  0040A6                     u8660:
  9292  0040A6                     
  9293                           ; BSR set to: 0
  9294  0040A6  0012               	return		;funcret
  9295  0040A8                     __end_of_imprime_lcd:
  9296                           	callstack 0
  9297                           
  9298 ;; *************** function _strlen *****************
  9299 ;; Defined at:
  9300 ;;		line 5 in file "C:\Program Files\Microchip\xc8\v2.32\pic\sources\c99\common\strlen.c"
  9301 ;; Parameters:    Size  Location     Type
  9302 ;;  s               2    0[BANK0 ] PTR const unsigned char 
  9303 ;;		 -> dbuf(80), STR_7(15), temperature(8), STR_5(12), 
  9304 ;;		 -> STR_4(12), STR_3(13), STR_2(12), STR_1(12), 
  9305 ;; Auto vars:     Size  Location     Type
  9306 ;;  a               2    2[BANK0 ] PTR const unsigned char 
  9307 ;;		 -> dbuf(80), STR_7(15), temperature(8), STR_5(12), 
  9308 ;;		 -> STR_4(12), STR_3(13), STR_2(12), STR_1(12), 
  9309 ;; Return value:  Size  Location     Type
  9310 ;;                  2    0[BANK0 ] unsigned int 
  9311 ;; Registers used:
  9312 ;;		wreg, fsr1l, fsr1h, status,2, status,0, tblptrl, tblptrh, tblptru
  9313 ;; Tracked objects:
  9314 ;;		On entry : 0/0
  9315 ;;		On exit  : 0/0
  9316 ;;		Unchanged: 0/0
  9317 ;; Data sizes:     COMRAM   BANK0   BANK1   BANK2   BANK3   BANK4   BANK5   BANK6   BANK7
  9318 ;;      Params:         0       2       0       0       0       0       0       0       0
  9319 ;;      Locals:         0       2       0       0       0       0       0       0       0
  9320 ;;      Temps:          0       0       0       0       0       0       0       0       0
  9321 ;;      Totals:         0       4       0       0       0       0       0       0       0
  9322 ;;Total ram usage:        4 bytes
  9323 ;; Hardware stack levels used: 1
  9324 ;; Hardware stack levels required when called: 4
  9325 ;; This function calls:
  9326 ;;		Nothing
  9327 ;; This function is called by:
  9328 ;;		_imprime_lcd
  9329 ;;		_pad
  9330 ;; This function uses a non-reentrant model
  9331 ;;
  9332                           
  9333                           	psect	text33
  9334  00433E                     __ptext33:
  9335                           	callstack 0
  9336  00433E                     _strlen:
  9337                           	callstack 21
  9338  00433E  C060  F062         	movff	strlen@s,strlen@a
  9339  004342  C061  F063         	movff	strlen@s+1,strlen@a+1
  9340  004346  EFA8  F021         	goto	l4771
  9341  00434A                     l4769:
  9342  00434A  0100               	movlb	0	; () banked
  9343  00434C  4B60               	infsnz	strlen@s& (0+255),f,b
  9344  00434E  2B61               	incf	(strlen@s+1)& (0+255),f,b
  9345  004350                     l4771:
  9346  004350  C060  FFF6         	movff	strlen@s,tblptrl
  9347  004354  C061  FFF7         	movff	strlen@s+1,tblptrh
  9348  004358  6AF8               	clrf	tblptru,c
  9349  00435A  0E07               	movlw	(high __ramtop+-1)
  9350  00435C  64F7               	cpfsgt	tblptrh,c
  9351  00435E  D003               	bra	u6357
  9352  004360  0008               	tblrd		*
  9353  004362  50F5               	movf	tablat,w,c
  9354  004364  D005               	bra	u6350
  9355  004366                     u6357:
  9356  004366  CFF6 FFE1          	movff	tblptrl,fsr1l
  9357  00436A  CFF7 FFE2          	movff	tblptrh,fsr1h
  9358  00436E  50E7               	movf	indf1,w,c
  9359  004370                     u6350:
  9360  004370  0900               	iorlw	0
  9361  004372  A4D8               	btfss	status,2,c
  9362  004374  EFBE  F021         	goto	u6361
  9363  004378  EFC0  F021         	goto	u6360
  9364  00437C                     u6361:
  9365  00437C  EFA5  F021         	goto	l4769
  9366  004380                     u6360:
  9367  004380  0100               	movlb	0	; () banked
  9368  004382  5162               	movf	strlen@a& (0+255),w,b
  9369  004384  5D60               	subwf	strlen@s& (0+255),w,b
  9370  004386  6F60               	movwf	?_strlen& (0+255),b
  9371  004388  5163               	movf	(strlen@a+1)& (0+255),w,b
  9372  00438A  5961               	subwfb	(strlen@s+1)& (0+255),w,b
  9373  00438C  6F61               	movwf	(?_strlen+1)& (0+255),b
  9374  00438E                     
  9375                           ; BSR set to: 0
  9376  00438E  0012               	return		;funcret
  9377  004390                     __end_of_strlen:
  9378                           	callstack 0
  9379                           
  9380 ;; *************** function _dado_lcd *****************
  9381 ;; Defined at:
  9382 ;;		line 16 in file "./lcd.intermed.h"
  9383 ;; Parameters:    Size  Location     Type
  9384 ;;  dado            2    0[BANK0 ] unsigned int 
  9385 ;; Auto vars:     Size  Location     Type
  9386 ;;		None
  9387 ;; Return value:  Size  Location     Type
  9388 ;;                  1    wreg      void 
  9389 ;; Registers used:
  9390 ;;		wreg
  9391 ;; Tracked objects:
  9392 ;;		On entry : 0/0
  9393 ;;		On exit  : 0/0
  9394 ;;		Unchanged: 0/0
  9395 ;; Data sizes:     COMRAM   BANK0   BANK1   BANK2   BANK3   BANK4   BANK5   BANK6   BANK7
  9396 ;;      Params:         0       2       0       0       0       0       0       0       0
  9397 ;;      Locals:         0       0       0       0       0       0       0       0       0
  9398 ;;      Temps:          0       1       0       0       0       0       0       0       0
  9399 ;;      Totals:         0       3       0       0       0       0       0       0       0
  9400 ;;Total ram usage:        3 bytes
  9401 ;; Hardware stack levels used: 1
  9402 ;; Hardware stack levels required when called: 4
  9403 ;; This function calls:
  9404 ;;		Nothing
  9405 ;; This function is called by:
  9406 ;;		_imprime_lcd
  9407 ;; This function uses a non-reentrant model
  9408 ;;
  9409                           
  9410                           	psect	text34
  9411  00458C                     __ptext34:
  9412                           	callstack 0
  9413  00458C                     _dado_lcd:
  9414                           	callstack 25
  9415  00458C                     
  9416                           ;./lcd.intermed.h: 16: void dado_lcd(unsigned int dado);./lcd.intermed.h: 17: {;./lcd.in
      +                          termed.h: 18:     PORTEbits.RE2 = 1;
  9417  00458C  8484               	bsf	132,2,c	;volatile
  9418                           
  9419                           ;./lcd.intermed.h: 19:     PORTEbits.RE1 = 1;
  9420  00458E  8284               	bsf	132,1,c	;volatile
  9421                           
  9422                           ;./lcd.intermed.h: 20:     PORTD = dado;
  9423  004590  C060  FF83         	movff	dado_lcd@dado,3971	;volatile
  9424  004594                     
  9425                           ;./lcd.intermed.h: 21:     _delay((unsigned long)((2)*(4000000/4000.0)));
  9426  004594  0E03               	movlw	3
  9427  004596  0100               	movlb	0	; () banked
  9428  004598  6F62               	movwf	??_dado_lcd& (0+255),b
  9429  00459A  0E97               	movlw	151
  9430  00459C                     u8807:
  9431  00459C  2EE8               	decfsz	wreg,f,c
  9432  00459E  D7FE               	bra	u8807
  9433  0045A0  2F62               	decfsz	??_dado_lcd& (0+255),f,b
  9434  0045A2  D7FC               	bra	u8807
  9435  0045A4  D000               	nop2	
  9436  0045A6                     
  9437                           ;./lcd.intermed.h: 22:     PORTEbits.RE1 = 0;
  9438  0045A6  9284               	bcf	132,1,c	;volatile
  9439  0045A8  0012               	return		;funcret
  9440  0045AA                     __end_of_dado_lcd:
  9441                           	callstack 0
  9442                           
  9443 ;; *************** function ___xxtofl *****************
  9444 ;; Defined at:
  9445 ;;		line 10 in file "C:\Program Files\Microchip\xc8\v2.32\pic\sources\c99\common\xxtofl.c"
  9446 ;; Parameters:    Size  Location     Type
  9447 ;;  sign            1    wreg     unsigned char 
  9448 ;;  val             4    6[BANK0 ] long 
  9449 ;; Auto vars:     Size  Location     Type
  9450 ;;  sign            1   14[BANK0 ] unsigned char 
  9451 ;;  arg             4   16[BANK0 ] unsigned long 
  9452 ;;  exp             1   15[BANK0 ] unsigned char 
  9453 ;; Return value:  Size  Location     Type
  9454 ;;                  4    6[BANK0 ] unsigned char 
  9455 ;; Registers used:
  9456 ;;		wreg, status,2, status,0
  9457 ;; Tracked objects:
  9458 ;;		On entry : 0/0
  9459 ;;		On exit  : 0/0
  9460 ;;		Unchanged: 0/0
  9461 ;; Data sizes:     COMRAM   BANK0   BANK1   BANK2   BANK3   BANK4   BANK5   BANK6   BANK7
  9462 ;;      Params:         0       4       0       0       0       0       0       0       0
  9463 ;;      Locals:         0       6       0       0       0       0       0       0       0
  9464 ;;      Temps:          0       4       0       0       0       0       0       0       0
  9465 ;;      Totals:         0      14       0       0       0       0       0       0       0
  9466 ;;Total ram usage:       14 bytes
  9467 ;; Hardware stack levels used: 1
  9468 ;; Hardware stack levels required when called: 4
  9469 ;; This function calls:
  9470 ;;		Nothing
  9471 ;; This function is called by:
  9472 ;;		_main
  9473 ;; This function uses a non-reentrant model
  9474 ;;
  9475                           
  9476                           	psect	text35
  9477  002F78                     __ptext35:
  9478                           	callstack 0
  9479  002F78                     ___xxtofl:
  9480                           	callstack 26
  9481                           
  9482                           ;incstack = 0
  9483                           ;___xxtofl@sign stored from wreg
  9484  002F78  0100               	movlb	0	; () banked
  9485  002F7A  6F6E               	movwf	___xxtofl@sign& (0+255),b
  9486  002F7C  0100               	movlb	0	; () banked
  9487  002F7E  516E               	movf	___xxtofl@sign& (0+255),w,b
  9488  002F80  B4D8               	btfsc	status,2,c
  9489  002F82  EFC5  F017         	goto	u8671
  9490  002F86  EFC7  F017         	goto	u8670
  9491  002F8A                     u8671:
  9492  002F8A  EFE9  F017         	goto	l784
  9493  002F8E                     u8670:
  9494  002F8E                     
  9495                           ; BSR set to: 0
  9496  002F8E  BF69               	btfsc	(___xxtofl@val+3)& (0+255),7,b
  9497  002F90  EFCE  F017         	goto	u8680
  9498  002F94  EFCC  F017         	goto	u8681
  9499  002F98                     u8681:
  9500  002F98  EFE9  F017         	goto	l784
  9501  002F9C                     u8680:
  9502  002F9C                     
  9503                           ; BSR set to: 0
  9504  002F9C  C066  F06A         	movff	___xxtofl@val,??___xxtofl
  9505  002FA0  C067  F06B         	movff	___xxtofl@val+1,??___xxtofl+1
  9506  002FA4  C068  F06C         	movff	___xxtofl@val+2,??___xxtofl+2
  9507  002FA8  C069  F06D         	movff	___xxtofl@val+3,??___xxtofl+3
  9508  002FAC  1F6A               	comf	??___xxtofl& (0+255),f,b
  9509  002FAE  1F6B               	comf	(??___xxtofl+1)& (0+255),f,b
  9510  002FB0  1F6C               	comf	(??___xxtofl+2)& (0+255),f,b
  9511  002FB2  1F6D               	comf	(??___xxtofl+3)& (0+255),f,b
  9512  002FB4  2B6A               	incf	??___xxtofl& (0+255),f,b
  9513  002FB6  0E00               	movlw	0
  9514  002FB8  236B               	addwfc	(??___xxtofl+1)& (0+255),f,b
  9515  002FBA  236C               	addwfc	(??___xxtofl+2)& (0+255),f,b
  9516  002FBC  236D               	addwfc	(??___xxtofl+3)& (0+255),f,b
  9517  002FBE  C06A  F070         	movff	??___xxtofl,___xxtofl@arg
  9518  002FC2  C06B  F071         	movff	??___xxtofl+1,___xxtofl@arg+1
  9519  002FC6  C06C  F072         	movff	??___xxtofl+2,___xxtofl@arg+2
  9520  002FCA  C06D  F073         	movff	??___xxtofl+3,___xxtofl@arg+3
  9521  002FCE  EFF1  F017         	goto	l6077
  9522  002FD2                     l784:
  9523                           
  9524                           ; BSR set to: 0
  9525  002FD2  C066  F070         	movff	___xxtofl@val,___xxtofl@arg
  9526  002FD6  C067  F071         	movff	___xxtofl@val+1,___xxtofl@arg+1
  9527  002FDA  C068  F072         	movff	___xxtofl@val+2,___xxtofl@arg+2
  9528  002FDE  C069  F073         	movff	___xxtofl@val+3,___xxtofl@arg+3
  9529  002FE2                     l6077:
  9530                           
  9531                           ; BSR set to: 0
  9532  002FE2  5166               	movf	___xxtofl@val& (0+255),w,b
  9533  002FE4  1167               	iorwf	(___xxtofl@val+1)& (0+255),w,b
  9534  002FE6  1168               	iorwf	(___xxtofl@val+2)& (0+255),w,b
  9535  002FE8  1169               	iorwf	(___xxtofl@val+3)& (0+255),w,b
  9536  002FEA  A4D8               	btfss	status,2,c
  9537  002FEC  EFFA  F017         	goto	u8691
  9538  002FF0  EFFC  F017         	goto	u8690
  9539  002FF4                     u8691:
  9540  002FF4  EF06  F018         	goto	l6083
  9541  002FF8                     u8690:
  9542  002FF8                     
  9543                           ; BSR set to: 0
  9544  002FF8  0E00               	movlw	0
  9545  002FFA  6F66               	movwf	?___xxtofl& (0+255),b
  9546  002FFC  0E00               	movlw	0
  9547  002FFE  6F67               	movwf	(?___xxtofl+1)& (0+255),b
  9548  003000  0E00               	movlw	0
  9549  003002  6F68               	movwf	(?___xxtofl+2)& (0+255),b
  9550  003004  0E00               	movlw	0
  9551  003006  6F69               	movwf	(?___xxtofl+3)& (0+255),b
  9552  003008  EF97  F018         	goto	l787
  9553  00300C                     l6083:
  9554                           
  9555                           ; BSR set to: 0
  9556  00300C  0E96               	movlw	150
  9557  00300E  6F6F               	movwf	___xxtofl@exp& (0+255),b
  9558  003010  EF10  F018         	goto	l6087
  9559  003014                     l6085:
  9560                           
  9561                           ; BSR set to: 0
  9562  003014  2B6F               	incf	___xxtofl@exp& (0+255),f,b
  9563  003016  90D8               	bcf	status,0,c
  9564  003018  3373               	rrcf	(___xxtofl@arg+3)& (0+255),f,b
  9565  00301A  3372               	rrcf	(___xxtofl@arg+2)& (0+255),f,b
  9566  00301C  3371               	rrcf	(___xxtofl@arg+1)& (0+255),f,b
  9567  00301E  3370               	rrcf	___xxtofl@arg& (0+255),f,b
  9568  003020                     l6087:
  9569                           
  9570                           ; BSR set to: 0
  9571  003020  0E00               	movlw	0
  9572  003022  1570               	andwf	___xxtofl@arg& (0+255),w,b
  9573  003024  6F6A               	movwf	??___xxtofl& (0+255),b
  9574  003026  0E00               	movlw	0
  9575  003028  1571               	andwf	(___xxtofl@arg+1)& (0+255),w,b
  9576  00302A  6F6B               	movwf	(??___xxtofl+1)& (0+255),b
  9577  00302C  0E00               	movlw	0
  9578  00302E  1572               	andwf	(___xxtofl@arg+2)& (0+255),w,b
  9579  003030  6F6C               	movwf	(??___xxtofl+2)& (0+255),b
  9580  003032  0EFE               	movlw	254
  9581  003034  1573               	andwf	(___xxtofl@arg+3)& (0+255),w,b
  9582  003036  6F6D               	movwf	(??___xxtofl+3)& (0+255),b
  9583  003038  516A               	movf	??___xxtofl& (0+255),w,b
  9584  00303A  116B               	iorwf	(??___xxtofl+1)& (0+255),w,b
  9585  00303C  116C               	iorwf	(??___xxtofl+2)& (0+255),w,b
  9586  00303E  116D               	iorwf	(??___xxtofl+3)& (0+255),w,b
  9587  003040  A4D8               	btfss	status,2,c
  9588  003042  EF25  F018         	goto	u8701
  9589  003046  EF27  F018         	goto	u8700
  9590  00304A                     u8701:
  9591  00304A  EF0A  F018         	goto	l6085
  9592  00304E                     u8700:
  9593  00304E  EF35  F018         	goto	l791
  9594  003052                     l6089:
  9595                           
  9596                           ; BSR set to: 0
  9597  003052  2B6F               	incf	___xxtofl@exp& (0+255),f,b
  9598  003054                     
  9599                           ; BSR set to: 0
  9600  003054  0E01               	movlw	1
  9601  003056  2770               	addwf	___xxtofl@arg& (0+255),f,b
  9602  003058  0E00               	movlw	0
  9603  00305A  2371               	addwfc	(___xxtofl@arg+1)& (0+255),f,b
  9604  00305C  2372               	addwfc	(___xxtofl@arg+2)& (0+255),f,b
  9605  00305E  2373               	addwfc	(___xxtofl@arg+3)& (0+255),f,b
  9606  003060                     
  9607                           ; BSR set to: 0
  9608  003060  90D8               	bcf	status,0,c
  9609  003062  3373               	rrcf	(___xxtofl@arg+3)& (0+255),f,b
  9610  003064  3372               	rrcf	(___xxtofl@arg+2)& (0+255),f,b
  9611  003066  3371               	rrcf	(___xxtofl@arg+1)& (0+255),f,b
  9612  003068  3370               	rrcf	___xxtofl@arg& (0+255),f,b
  9613  00306A                     l791:
  9614                           
  9615                           ; BSR set to: 0
  9616  00306A  0E00               	movlw	0
  9617  00306C  1570               	andwf	___xxtofl@arg& (0+255),w,b
  9618  00306E  6F6A               	movwf	??___xxtofl& (0+255),b
  9619  003070  0E00               	movlw	0
  9620  003072  1571               	andwf	(___xxtofl@arg+1)& (0+255),w,b
  9621  003074  6F6B               	movwf	(??___xxtofl+1)& (0+255),b
  9622  003076  0E00               	movlw	0
  9623  003078  1572               	andwf	(___xxtofl@arg+2)& (0+255),w,b
  9624  00307A  6F6C               	movwf	(??___xxtofl+2)& (0+255),b
  9625  00307C  0EFF               	movlw	255
  9626  00307E  1573               	andwf	(___xxtofl@arg+3)& (0+255),w,b
  9627  003080  6F6D               	movwf	(??___xxtofl+3)& (0+255),b
  9628  003082  516A               	movf	??___xxtofl& (0+255),w,b
  9629  003084  116B               	iorwf	(??___xxtofl+1)& (0+255),w,b
  9630  003086  116C               	iorwf	(??___xxtofl+2)& (0+255),w,b
  9631  003088  116D               	iorwf	(??___xxtofl+3)& (0+255),w,b
  9632  00308A  A4D8               	btfss	status,2,c
  9633  00308C  EF4A  F018         	goto	u8711
  9634  003090  EF4C  F018         	goto	u8710
  9635  003094                     u8711:
  9636  003094  EF29  F018         	goto	l6089
  9637  003098                     u8710:
  9638  003098  EF54  F018         	goto	l6097
  9639  00309C                     l6095:
  9640                           
  9641                           ; BSR set to: 0
  9642  00309C  076F               	decf	___xxtofl@exp& (0+255),f,b
  9643  00309E  90D8               	bcf	status,0,c
  9644  0030A0  3770               	rlcf	___xxtofl@arg& (0+255),f,b
  9645  0030A2  3771               	rlcf	(___xxtofl@arg+1)& (0+255),f,b
  9646  0030A4  3772               	rlcf	(___xxtofl@arg+2)& (0+255),f,b
  9647  0030A6  3773               	rlcf	(___xxtofl@arg+3)& (0+255),f,b
  9648  0030A8                     l6097:
  9649                           
  9650                           ; BSR set to: 0
  9651  0030A8  BF72               	btfsc	(___xxtofl@arg+2)& (0+255),7,b
  9652  0030AA  EF59  F018         	goto	u8721
  9653  0030AE  EF5B  F018         	goto	u8720
  9654  0030B2                     u8721:
  9655  0030B2  EF63  F018         	goto	l798
  9656  0030B6                     u8720:
  9657  0030B6                     
  9658                           ; BSR set to: 0
  9659  0030B6  0E02               	movlw	2
  9660  0030B8  616F               	cpfslt	___xxtofl@exp& (0+255),b
  9661  0030BA  EF61  F018         	goto	u8731
  9662  0030BE  EF63  F018         	goto	u8730
  9663  0030C2                     u8731:
  9664  0030C2  EF4E  F018         	goto	l6095
  9665  0030C6                     u8730:
  9666  0030C6                     l798:
  9667                           
  9668                           ; BSR set to: 0
  9669  0030C6  B16F               	btfsc	___xxtofl@exp& (0+255),0,b
  9670  0030C8  EF68  F018         	goto	u8741
  9671  0030CC  EF6A  F018         	goto	u8740
  9672  0030D0                     u8741:
  9673  0030D0  EF6B  F018         	goto	l6103
  9674  0030D4                     u8740:
  9675  0030D4                     
  9676                           ; BSR set to: 0
  9677  0030D4  9F72               	bcf	(___xxtofl@arg+2)& (0+255),7,b
  9678  0030D6                     l6103:
  9679                           
  9680                           ; BSR set to: 0
  9681  0030D6  90D8               	bcf	status,0,c
  9682  0030D8  336F               	rrcf	___xxtofl@exp& (0+255),f,b
  9683  0030DA                     
  9684                           ; BSR set to: 0
  9685  0030DA  C06F  F06A         	movff	___xxtofl@exp,??___xxtofl
  9686  0030DE  6B6B               	clrf	(??___xxtofl+1)& (0+255),b
  9687  0030E0  6B6C               	clrf	(??___xxtofl+2)& (0+255),b
  9688  0030E2  6B6D               	clrf	(??___xxtofl+3)& (0+255),b
  9689  0030E4  C06A  F06D         	movff	??___xxtofl,??___xxtofl+3
  9690  0030E8  6B6C               	clrf	(??___xxtofl+2)& (0+255),b
  9691  0030EA  6B6B               	clrf	(??___xxtofl+1)& (0+255),b
  9692  0030EC  6B6A               	clrf	??___xxtofl& (0+255),b
  9693  0030EE  516A               	movf	??___xxtofl& (0+255),w,b
  9694  0030F0  1370               	iorwf	___xxtofl@arg& (0+255),f,b
  9695  0030F2  516B               	movf	(??___xxtofl+1)& (0+255),w,b
  9696  0030F4  1371               	iorwf	(___xxtofl@arg+1)& (0+255),f,b
  9697  0030F6  516C               	movf	(??___xxtofl+2)& (0+255),w,b
  9698  0030F8  1372               	iorwf	(___xxtofl@arg+2)& (0+255),f,b
  9699  0030FA  516D               	movf	(??___xxtofl+3)& (0+255),w,b
  9700  0030FC  1373               	iorwf	(___xxtofl@arg+3)& (0+255),f,b
  9701  0030FE                     
  9702                           ; BSR set to: 0
  9703  0030FE  516E               	movf	___xxtofl@sign& (0+255),w,b
  9704  003100  B4D8               	btfsc	status,2,c
  9705  003102  EF85  F018         	goto	u8751
  9706  003106  EF87  F018         	goto	u8750
  9707  00310A                     u8751:
  9708  00310A  EF8F  F018         	goto	l6113
  9709  00310E                     u8750:
  9710  00310E                     
  9711                           ; BSR set to: 0
  9712  00310E  BF69               	btfsc	(___xxtofl@val+3)& (0+255),7,b
  9713  003110  EF8E  F018         	goto	u8760
  9714  003114  EF8C  F018         	goto	u8761
  9715  003118                     u8761:
  9716  003118  EF8F  F018         	goto	l6113
  9717  00311C                     u8760:
  9718  00311C                     
  9719                           ; BSR set to: 0
  9720  00311C  8F73               	bsf	(___xxtofl@arg+3)& (0+255),7,b
  9721  00311E                     l6113:
  9722                           
  9723                           ; BSR set to: 0
  9724  00311E  C070  F066         	movff	___xxtofl@arg,?___xxtofl
  9725  003122  C071  F067         	movff	___xxtofl@arg+1,?___xxtofl+1
  9726  003126  C072  F068         	movff	___xxtofl@arg+2,?___xxtofl+2
  9727  00312A  C073  F069         	movff	___xxtofl@arg+3,?___xxtofl+3
  9728  00312E                     l787:
  9729                           
  9730                           ; BSR set to: 0
  9731  00312E  0012               	return		;funcret
  9732  003130                     __end_of___xxtofl:
  9733                           	callstack 0
  9734                           
  9735 ;; *************** function _isr *****************
  9736 ;; Defined at:
  9737 ;;		line 70 in file "ADC_LM35_lcd.c"
  9738 ;; Parameters:    Size  Location     Type
  9739 ;;		None
  9740 ;; Auto vars:     Size  Location     Type
  9741 ;;		None
  9742 ;; Return value:  Size  Location     Type
  9743 ;;                  1    wreg      void 
  9744 ;; Registers used:
  9745 ;;		wreg, fsr1l, fsr1h, status,2, status,0, tblptrl, tblptrh, tblptru, cstack
  9746 ;; Tracked objects:
  9747 ;;		On entry : 0/0
  9748 ;;		On exit  : 0/0
  9749 ;;		Unchanged: 0/0
  9750 ;; Data sizes:     COMRAM   BANK0   BANK1   BANK2   BANK3   BANK4   BANK5   BANK6   BANK7
  9751 ;;      Params:         0       0       0       0       0       0       0       0       0
  9752 ;;      Locals:         0       0       0       0       0       0       0       0       0
  9753 ;;      Temps:          6       0       0       0       0       0       0       0       0
  9754 ;;      Totals:         6       0       0       0       0       0       0       0       0
  9755 ;;Total ram usage:        6 bytes
  9756 ;; Hardware stack levels used: 1
  9757 ;; Hardware stack levels required when called: 3
  9758 ;; This function calls:
  9759 ;;		_alarmeTemperatura
  9760 ;;		_controlaVelocidade
  9761 ;;		i2___fladd
  9762 ;;		i2___flge
  9763 ;; This function is called by:
  9764 ;;		Interrupt level 2
  9765 ;; This function uses a non-reentrant model
  9766 ;;
  9767                           
  9768                           	psect	intcode
  9769  000008                     __pintcode:
  9770                           	callstack 0
  9771  000008                     _isr:
  9772                           	callstack 19
  9773                           
  9774                           ; BSR set to: 0
  9775                           ;incstack = 0
  9776  000008  8241               	bsf	int$flags,1,c	;set compiler interrupt flag (level 2)
  9777  00000A  EDF4  F01C         	call	int_func,f	;refresh shadow registers
  9778                           
  9779                           	psect	intcode_body
  9780  0039E8                     __pintcode_body:
  9781                           	callstack 19
  9782  0039E8                     int_func:
  9783                           	callstack 19
  9784  0039E8  0006               	pop		; remove dummy address from shadow register refresh
  9785  0039EA  CFE1 F01D          	movff	fsr1l,??_isr
  9786  0039EE  CFE2 F01E          	movff	fsr1h,??_isr+1
  9787  0039F2  CFF6 F01F          	movff	tblptrl,??_isr+2
  9788  0039F6  CFF7 F020          	movff	tblptrh,??_isr+3
  9789  0039FA  CFF8 F021          	movff	tblptru,??_isr+4
  9790  0039FE  CFF5 F022          	movff	tablat,??_isr+5
  9791  003A02                     
  9792                           ;ADC_LM35_lcd.c: 72:             controlaVelocidade();
  9793  003A02  A0F0               	btfss	240,0,c	;volatile
  9794  003A04  EF06  F01D         	goto	i2u625_41
  9795  003A08  EF08  F01D         	goto	i2u625_40
  9796  003A0C                     i2u625_41:
  9797  003A0C  EF3C  F01D         	goto	i2l4657
  9798  003A10                     i2u625_40:
  9799  003A10                     
  9800                           ;ADC_LM35_lcd.c: 74:         }
  9801  003A10  90F0               	bcf	240,0,c	;volatile
  9802  003A12                     
  9803                           ;ADC_LM35_lcd.c: 75:         alarmeTemperatura();
  9804  003A12  C039  F00F         	movff	_temperatura,i2___flge@ff1
  9805  003A16  C03A  F010         	movff	_temperatura+1,i2___flge@ff1+1
  9806  003A1A  C03B  F011         	movff	_temperatura+2,i2___flge@ff1+2
  9807  003A1E  C03C  F012         	movff	_temperatura+3,i2___flge@ff1+3
  9808  003A22  0E00               	movlw	0
  9809  003A24  6E13               	movwf	i2___flge@ff2^0,c
  9810  003A26  0E00               	movlw	0
  9811  003A28  6E14               	movwf	(i2___flge@ff2+1)^0,c
  9812  003A2A  0EA0               	movlw	160
  9813  003A2C  6E15               	movwf	(i2___flge@ff2+2)^0,c
  9814  003A2E  0E41               	movlw	65
  9815  003A30  6E16               	movwf	(i2___flge@ff2+3)^0,c
  9816  003A32  ECF2  F01B         	call	i2___flge	;wreg free
  9817  003A36  A0D8               	btfss	status,0,c
  9818  003A38  EF20  F01D         	goto	i2u626_41
  9819  003A3C  EF22  F01D         	goto	i2u626_40
  9820  003A40                     i2u626_41:
  9821  003A40  EF3C  F01D         	goto	i2l4657
  9822  003A44                     i2u626_40:
  9823  003A44                     
  9824                           ;ADC_LM35_lcd.c: 76: 
  9825  003A44  C039  F001         	movff	_temperatura,i2___fladd@b
  9826  003A48  C03A  F002         	movff	_temperatura+1,i2___fladd@b+1
  9827  003A4C  C03B  F003         	movff	_temperatura+2,i2___fladd@b+2
  9828  003A50  C03C  F004         	movff	_temperatura+3,i2___fladd@b+3
  9829  003A54  0E00               	movlw	0
  9830  003A56  6E05               	movwf	i2___fladd@a^0,c
  9831  003A58  0E00               	movlw	0
  9832  003A5A  6E06               	movwf	(i2___fladd@a+1)^0,c
  9833  003A5C  0E20               	movlw	32
  9834  003A5E  6E07               	movwf	(i2___fladd@a+2)^0,c
  9835  003A60  0EC1               	movlw	193
  9836  003A62  6E08               	movwf	(i2___fladd@a+3)^0,c
  9837  003A64  EC78  F00F         	call	i2___fladd	;wreg free
  9838  003A68  C001  F039         	movff	?i2___fladd,_temperatura
  9839  003A6C  C002  F03A         	movff	?i2___fladd+1,_temperatura+1
  9840  003A70  C003  F03B         	movff	?i2___fladd+2,_temperatura+2
  9841  003A74  C004  F03C         	movff	?i2___fladd+3,_temperatura+3
  9842  003A78                     i2l4657:
  9843                           
  9844                           ;ADC_LM35_lcd.c: 80: 
  9845  003A78  AAF2               	btfss	242,5,c	;volatile
  9846  003A7A  EF41  F01D         	goto	i2u627_41
  9847  003A7E  EF43  F01D         	goto	i2u627_40
  9848  003A82                     i2u627_41:
  9849  003A82  EF65  F01D         	goto	i2l115
  9850  003A86                     i2u627_40:
  9851  003A86  A4F2               	btfss	242,2,c	;volatile
  9852  003A88  EF48  F01D         	goto	i2u628_41
  9853  003A8C  EF4A  F01D         	goto	i2u628_40
  9854  003A90                     i2u628_41:
  9855  003A90  EF65  F01D         	goto	i2l115
  9856  003A94                     i2u628_40:
  9857  003A94                     
  9858                           ;ADC_LM35_lcd.c: 85:     PORTAbits.RA4 = 0;
  9859  003A94  4A31               	infsnz	_contadorInt^0,f,c
  9860  003A96  2A32               	incf	(_contadorInt+1)^0,f,c
  9861  003A98                     
  9862                           ;ADC_LM35_lcd.c: 86: 
  9863  003A98  BE32               	btfsc	(_contadorInt+1)^0,7,c
  9864  003A9A  EF58  F01D         	goto	i2u629_41
  9865  003A9E  5032               	movf	(_contadorInt+1)^0,w,c
  9866  003AA0  E109               	bnz	i2u629_40
  9867  003AA2  0E08               	movlw	8
  9868  003AA4  5C31               	subwf	_contadorInt^0,w,c
  9869  003AA6  A0D8               	btfss	status,0,c
  9870  003AA8  EF58  F01D         	goto	i2u629_41
  9871  003AAC  EF5A  F01D         	goto	i2u629_40
  9872  003AB0                     i2u629_41:
  9873  003AB0  EF60  F01D         	goto	i2l4669
  9874  003AB4                     i2u629_40:
  9875  003AB4                     
  9876                           ;ADC_LM35_lcd.c: 87:     INTCONbits.GIE =1;
  9877  003AB4  EC65  F01F         	call	_controlaVelocidade	;wreg free
  9878  003AB8                     
  9879                           ;ADC_LM35_lcd.c: 88:     INTCONbits.TMR0IE = 1;
  9880  003AB8  0E00               	movlw	0
  9881  003ABA  6E32               	movwf	(_contadorInt+1)^0,c
  9882  003ABC  0E00               	movlw	0
  9883  003ABE  6E31               	movwf	_contadorInt^0,c
  9884  003AC0                     i2l4669:
  9885                           
  9886                           ;ADC_LM35_lcd.c: 90:     TMR0L = 5;
  9887  003AC0  EC3C  F01A         	call	_alarmeTemperatura	;wreg free
  9888  003AC4                     
  9889                           ;ADC_LM35_lcd.c: 92:     TRISD = 0b00000000;
  9890  003AC4  0E05               	movlw	5
  9891  003AC6  6ED6               	movwf	214,c	;volatile
  9892  003AC8                     
  9893                           ;ADC_LM35_lcd.c: 93:     TRISE = 0b00000000;
  9894  003AC8  94F2               	bcf	242,2,c	;volatile
  9895  003ACA                     i2l115:
  9896  003ACA  C022  FFF5         	movff	??_isr+5,tablat
  9897  003ACE  C021  FFF8         	movff	??_isr+4,tblptru
  9898  003AD2  C020  FFF7         	movff	??_isr+3,tblptrh
  9899  003AD6  C01F  FFF6         	movff	??_isr+2,tblptrl
  9900  003ADA  C01E  FFE2         	movff	??_isr+1,fsr1h
  9901  003ADE  C01D  FFE1         	movff	??_isr,fsr1l
  9902  003AE2  9241               	bcf	int$flags,1,c	;clear compiler interrupt flag (level 2)
  9903  003AE4  0011               	retfie		f
  9904  003AE6                     __end_of_isr:
  9905                           	callstack 0
  9906                           
  9907 ;; *************** function i2___fladd *****************
  9908 ;; Defined at:
  9909 ;;		line 10 in file "C:\Program Files\Microchip\xc8\v2.32\pic\sources\c99\common\sprcadd.c"
  9910 ;; Parameters:    Size  Location     Type
  9911 ;;  b               4    0[COMRAM] void 
  9912 ;;  a               4    4[COMRAM] void 
  9913 ;; Auto vars:     Size  Location     Type
  9914 ;;  grs             1   15[COMRAM] unsigned char 
  9915 ;;  bexp            1   14[COMRAM] unsigned char 
  9916 ;;  aexp            1   13[COMRAM] unsigned char 
  9917 ;;  signs           1   12[COMRAM] unsigned char 
  9918 ;; Return value:  Size  Location     Type
  9919 ;;                  4    0[COMRAM] unsigned char 
  9920 ;; Registers used:
  9921 ;;		wreg, status,2, status,0
  9922 ;; Tracked objects:
  9923 ;;		On entry : 0/0
  9924 ;;		On exit  : 0/0
  9925 ;;		Unchanged: 0/0
  9926 ;; Data sizes:     COMRAM   BANK0   BANK1   BANK2   BANK3   BANK4   BANK5   BANK6   BANK7
  9927 ;;      Params:         8       0       0       0       0       0       0       0       0
  9928 ;;      Locals:         4       0       0       0       0       0       0       0       0
  9929 ;;      Temps:          4       0       0       0       0       0       0       0       0
  9930 ;;      Totals:        16       0       0       0       0       0       0       0       0
  9931 ;;Total ram usage:       16 bytes
  9932 ;; Hardware stack levels used: 1
  9933 ;; This function calls:
  9934 ;;		Nothing
  9935 ;; This function is called by:
  9936 ;;		_isr
  9937 ;; This function uses a non-reentrant model
  9938 ;;
  9939                           
  9940                           	psect	text37
  9941  001EF0                     __ptext37:
  9942                           	callstack 0
  9943  001EF0                     i2___fladd:
  9944                           	callstack 21
  9945  001EF0  5004               	movf	(i2___fladd@b+3)^0,w,c
  9946  001EF2  0B80               	andlw	128
  9947  001EF4  6E0D               	movwf	i2___fladd@signs^0,c
  9948  001EF6  5004               	movf	(i2___fladd@b+3)^0,w,c
  9949  001EF8  2404               	addwf	(i2___fladd@b+3)^0,w,c
  9950  001EFA  6E0F               	movwf	i2___fladd@bexp^0,c
  9951  001EFC  AE03               	btfss	(i2___fladd@b+2)^0,7,c
  9952  001EFE  EF83  F00F         	goto	i2u586_41
  9953  001F02  EF85  F00F         	goto	i2u586_40
  9954  001F06                     i2u586_41:
  9955  001F06  EF86  F00F         	goto	i2l4453
  9956  001F0A                     i2u586_40:
  9957  001F0A  800F               	bsf	i2___fladd@bexp^0,0,c
  9958  001F0C                     i2l4453:
  9959  001F0C  500F               	movf	i2___fladd@bexp^0,w,c
  9960  001F0E  B4D8               	btfsc	status,2,c
  9961  001F10  EF8C  F00F         	goto	i2u587_41
  9962  001F14  EF8E  F00F         	goto	i2u587_40
  9963  001F18                     i2u587_41:
  9964  001F18  EFA3  F00F         	goto	i2l4463
  9965  001F1C                     i2u587_40:
  9966  001F1C  280F               	incf	i2___fladd@bexp^0,w,c
  9967  001F1E  A4D8               	btfss	status,2,c
  9968  001F20  EF94  F00F         	goto	i2u588_41
  9969  001F24  EF96  F00F         	goto	i2u588_40
  9970  001F28                     i2u588_41:
  9971  001F28  EF9E  F00F         	goto	i2l4459
  9972  001F2C                     i2u588_40:
  9973  001F2C  0E00               	movlw	0
  9974  001F2E  6E01               	movwf	i2___fladd@b^0,c
  9975  001F30  0E00               	movlw	0
  9976  001F32  6E02               	movwf	(i2___fladd@b+1)^0,c
  9977  001F34  0E00               	movlw	0
  9978  001F36  6E03               	movwf	(i2___fladd@b+2)^0,c
  9979  001F38  0E00               	movlw	0
  9980  001F3A  6E04               	movwf	(i2___fladd@b+3)^0,c
  9981  001F3C                     i2l4459:
  9982  001F3C  8E03               	bsf	(i2___fladd@b+2)^0,7,c
  9983  001F3E  0E00               	movlw	0
  9984  001F40  6E04               	movwf	(i2___fladd@b+3)^0,c
  9985  001F42  EFAB  F00F         	goto	i2l4465
  9986  001F46                     i2l4463:
  9987  001F46  0E00               	movlw	0
  9988  001F48  6E01               	movwf	i2___fladd@b^0,c
  9989  001F4A  0E00               	movlw	0
  9990  001F4C  6E02               	movwf	(i2___fladd@b+1)^0,c
  9991  001F4E  0E00               	movlw	0
  9992  001F50  6E03               	movwf	(i2___fladd@b+2)^0,c
  9993  001F52  0E00               	movlw	0
  9994  001F54  6E04               	movwf	(i2___fladd@b+3)^0,c
  9995  001F56                     i2l4465:
  9996  001F56  5008               	movf	(i2___fladd@a+3)^0,w,c
  9997  001F58  0B80               	andlw	128
  9998  001F5A  6E0E               	movwf	i2___fladd@aexp^0,c
  9999  001F5C  500D               	movf	i2___fladd@signs^0,w,c
 10000  001F5E  180E               	xorwf	i2___fladd@aexp^0,w,c
 10001  001F60  B4D8               	btfsc	status,2,c
 10002  001F62  EFB5  F00F         	goto	i2u589_41
 10003  001F66  EFB7  F00F         	goto	i2u589_40
 10004  001F6A                     i2u589_41:
 10005  001F6A  EFB8  F00F         	goto	i2l4471
 10006  001F6E                     i2u589_40:
 10007  001F6E  8C0D               	bsf	i2___fladd@signs^0,6,c
 10008  001F70                     i2l4471:
 10009  001F70  5008               	movf	(i2___fladd@a+3)^0,w,c
 10010  001F72  2408               	addwf	(i2___fladd@a+3)^0,w,c
 10011  001F74  6E0E               	movwf	i2___fladd@aexp^0,c
 10012  001F76  AE07               	btfss	(i2___fladd@a+2)^0,7,c
 10013  001F78  EFC0  F00F         	goto	i2u590_41
 10014  001F7C  EFC2  F00F         	goto	i2u590_40
 10015  001F80                     i2u590_41:
 10016  001F80  EFC3  F00F         	goto	i2l4477
 10017  001F84                     i2u590_40:
 10018  001F84  800E               	bsf	i2___fladd@aexp^0,0,c
 10019  001F86                     i2l4477:
 10020  001F86  500E               	movf	i2___fladd@aexp^0,w,c
 10021  001F88  B4D8               	btfsc	status,2,c
 10022  001F8A  EFC9  F00F         	goto	i2u591_41
 10023  001F8E  EFCB  F00F         	goto	i2u591_40
 10024  001F92                     i2u591_41:
 10025  001F92  EFE0  F00F         	goto	i2l4487
 10026  001F96                     i2u591_40:
 10027  001F96  280E               	incf	i2___fladd@aexp^0,w,c
 10028  001F98  A4D8               	btfss	status,2,c
 10029  001F9A  EFD1  F00F         	goto	i2u592_41
 10030  001F9E  EFD3  F00F         	goto	i2u592_40
 10031  001FA2                     i2u592_41:
 10032  001FA2  EFDB  F00F         	goto	i2l4483
 10033  001FA6                     i2u592_40:
 10034  001FA6  0E00               	movlw	0
 10035  001FA8  6E05               	movwf	i2___fladd@a^0,c
 10036  001FAA  0E00               	movlw	0
 10037  001FAC  6E06               	movwf	(i2___fladd@a+1)^0,c
 10038  001FAE  0E00               	movlw	0
 10039  001FB0  6E07               	movwf	(i2___fladd@a+2)^0,c
 10040  001FB2  0E00               	movlw	0
 10041  001FB4  6E08               	movwf	(i2___fladd@a+3)^0,c
 10042  001FB6                     i2l4483:
 10043  001FB6  8E07               	bsf	(i2___fladd@a+2)^0,7,c
 10044  001FB8  0E00               	movlw	0
 10045  001FBA  6E08               	movwf	(i2___fladd@a+3)^0,c
 10046  001FBC  EFE8  F00F         	goto	i2l4489
 10047  001FC0                     i2l4487:
 10048  001FC0  0E00               	movlw	0
 10049  001FC2  6E05               	movwf	i2___fladd@a^0,c
 10050  001FC4  0E00               	movlw	0
 10051  001FC6  6E06               	movwf	(i2___fladd@a+1)^0,c
 10052  001FC8  0E00               	movlw	0
 10053  001FCA  6E07               	movwf	(i2___fladd@a+2)^0,c
 10054  001FCC  0E00               	movlw	0
 10055  001FCE  6E08               	movwf	(i2___fladd@a+3)^0,c
 10056  001FD0                     i2l4489:
 10057  001FD0  500F               	movf	i2___fladd@bexp^0,w,c
 10058  001FD2  5C0E               	subwf	i2___fladd@aexp^0,w,c
 10059  001FD4  B0D8               	btfsc	status,0,c
 10060  001FD6  EFEF  F00F         	goto	i2u593_41
 10061  001FDA  EFF1  F00F         	goto	i2u593_40
 10062  001FDE                     i2u593_41:
 10063  001FDE  EF18  F010         	goto	i2l4525
 10064  001FE2                     i2u593_40:
 10065  001FE2  AC0D               	btfss	i2___fladd@signs^0,6,c
 10066  001FE4  EFF6  F00F         	goto	i2u594_41
 10067  001FE8  EFF8  F00F         	goto	i2u594_40
 10068  001FEC                     i2u594_41:
 10069  001FEC  EFFA  F00F         	goto	i2l4495
 10070  001FF0                     i2u594_40:
 10071  001FF0  0E80               	movlw	128
 10072  001FF2  1A0D               	xorwf	i2___fladd@signs^0,f,c
 10073  001FF4                     i2l4495:
 10074  001FF4  C00F  F010         	movff	i2___fladd@bexp,i2___fladd@grs
 10075  001FF8  C00E  F00F         	movff	i2___fladd@aexp,i2___fladd@bexp
 10076  001FFC  C010  F00E         	movff	i2___fladd@grs,i2___fladd@aexp
 10077  002000  C001  F010         	movff	i2___fladd@b,i2___fladd@grs
 10078  002004  C005  F001         	movff	i2___fladd@a,i2___fladd@b
 10079  002008  C010  F005         	movff	i2___fladd@grs,i2___fladd@a
 10080  00200C  C002  F010         	movff	i2___fladd@b+1,i2___fladd@grs
 10081  002010  C006  F002         	movff	i2___fladd@a+1,i2___fladd@b+1
 10082  002014  C010  F006         	movff	i2___fladd@grs,i2___fladd@a+1
 10083  002018  C003  F010         	movff	i2___fladd@b+2,i2___fladd@grs
 10084  00201C  C007  F003         	movff	i2___fladd@a+2,i2___fladd@b+2
 10085  002020  C010  F007         	movff	i2___fladd@grs,i2___fladd@a+2
 10086  002024  C004  F010         	movff	i2___fladd@b+3,i2___fladd@grs
 10087  002028  C008  F004         	movff	i2___fladd@a+3,i2___fladd@b+3
 10088  00202C  C010  F008         	movff	i2___fladd@grs,i2___fladd@a+3
 10089  002030                     i2l4525:
 10090  002030  0E00               	movlw	0
 10091  002032  6E10               	movwf	i2___fladd@grs^0,c
 10092  002034  500F               	movf	i2___fladd@bexp^0,w,c
 10093  002036  C00E  F009         	movff	i2___fladd@aexp,??i2___fladd
 10094  00203A  6A0A               	clrf	(??i2___fladd+1)^0,c
 10095  00203C  5E09               	subwf	??i2___fladd^0,f,c
 10096  00203E  0E00               	movlw	0
 10097  002040  5A0A               	subwfb	(??i2___fladd+1)^0,f,c
 10098  002042  BE0A               	btfsc	(??i2___fladd+1)^0,7,c
 10099  002044  EF2D  F010         	goto	i2u595_41
 10100  002048  500A               	movf	(??i2___fladd+1)^0,w,c
 10101  00204A  E109               	bnz	i2u595_40
 10102  00204C  0E1A               	movlw	26
 10103  00204E  5C09               	subwf	??i2___fladd^0,w,c
 10104  002050  A0D8               	btfss	status,0,c
 10105  002052  EF2D  F010         	goto	i2u595_41
 10106  002056  EF2F  F010         	goto	i2u595_40
 10107  00205A                     i2u595_41:
 10108  00205A  EF66  F010         	goto	i2l658
 10109  00205E                     i2u595_40:
 10110  00205E  5001               	movf	i2___fladd@b^0,w,c
 10111  002060  1002               	iorwf	(i2___fladd@b+1)^0,w,c
 10112  002062  1003               	iorwf	(i2___fladd@b+2)^0,w,c
 10113  002064  1004               	iorwf	(i2___fladd@b+3)^0,w,c
 10114  002066  A4D8               	btfss	status,2,c
 10115  002068  EF38  F010         	goto	i2u596_41
 10116  00206C  EF3B  F010         	goto	i2u596_40
 10117  002070                     i2u596_41:
 10118  002070  0E01               	movlw	1
 10119  002072  EF3C  F010         	goto	i2u597_40
 10120  002076                     i2u596_40:
 10121  002076  0E00               	movlw	0
 10122  002078                     i2u597_40:
 10123  002078  6E10               	movwf	i2___fladd@grs^0,c
 10124  00207A  0E00               	movlw	0
 10125  00207C  6E01               	movwf	i2___fladd@b^0,c
 10126  00207E  0E00               	movlw	0
 10127  002080  6E02               	movwf	(i2___fladd@b+1)^0,c
 10128  002082  0E00               	movlw	0
 10129  002084  6E03               	movwf	(i2___fladd@b+2)^0,c
 10130  002086  0E00               	movlw	0
 10131  002088  6E04               	movwf	(i2___fladd@b+3)^0,c
 10132  00208A  C00E  F00F         	movff	i2___fladd@aexp,i2___fladd@bexp
 10133  00208E  EF6F  F010         	goto	i2l657
 10134  002092                     i2l659:
 10135  002092  A010               	btfss	i2___fladd@grs^0,0,c
 10136  002094  EF4E  F010         	goto	i2u598_41
 10137  002098  EF50  F010         	goto	i2u598_40
 10138  00209C                     i2u598_41:
 10139  00209C  EF56  F010         	goto	i2l4537
 10140  0020A0                     i2u598_40:
 10141  0020A0  90D8               	bcf	status,0,c
 10142  0020A2  3010               	rrcf	i2___fladd@grs^0,w,c
 10143  0020A4  0901               	iorlw	1
 10144  0020A6  6E10               	movwf	i2___fladd@grs^0,c
 10145  0020A8  EF58  F010         	goto	i2l4539
 10146  0020AC                     i2l4537:
 10147  0020AC  90D8               	bcf	status,0,c
 10148  0020AE  3210               	rrcf	i2___fladd@grs^0,f,c
 10149  0020B0                     i2l4539:
 10150  0020B0  A001               	btfss	i2___fladd@b^0,0,c
 10151  0020B2  EF5D  F010         	goto	i2u599_41
 10152  0020B6  EF5F  F010         	goto	i2u599_40
 10153  0020BA                     i2u599_41:
 10154  0020BA  EF60  F010         	goto	i2l4543
 10155  0020BE                     i2u599_40:
 10156  0020BE  8E10               	bsf	i2___fladd@grs^0,7,c
 10157  0020C0                     i2l4543:
 10158  0020C0  3404               	rlcf	(i2___fladd@b+3)^0,w,c
 10159  0020C2  3204               	rrcf	(i2___fladd@b+3)^0,f,c
 10160  0020C4  3203               	rrcf	(i2___fladd@b+2)^0,f,c
 10161  0020C6  3202               	rrcf	(i2___fladd@b+1)^0,f,c
 10162  0020C8  3201               	rrcf	i2___fladd@b^0,f,c
 10163  0020CA  2A0F               	incf	i2___fladd@bexp^0,f,c
 10164  0020CC                     i2l658:
 10165  0020CC  500E               	movf	i2___fladd@aexp^0,w,c
 10166  0020CE  5C0F               	subwf	i2___fladd@bexp^0,w,c
 10167  0020D0  A0D8               	btfss	status,0,c
 10168  0020D2  EF6D  F010         	goto	i2u600_41
 10169  0020D6  EF6F  F010         	goto	i2u600_40
 10170  0020DA                     i2u600_41:
 10171  0020DA  EF49  F010         	goto	i2l659
 10172  0020DE                     i2u600_40:
 10173  0020DE                     i2l657:
 10174  0020DE  BC0D               	btfsc	i2___fladd@signs^0,6,c
 10175  0020E0  EF74  F010         	goto	i2u601_41
 10176  0020E4  EF76  F010         	goto	i2u601_40
 10177  0020E8                     i2u601_41:
 10178  0020E8  EFB6  F010         	goto	i2l4571
 10179  0020EC                     i2u601_40:
 10180  0020EC  500F               	movf	i2___fladd@bexp^0,w,c
 10181  0020EE  A4D8               	btfss	status,2,c
 10182  0020F0  EF7C  F010         	goto	i2u602_41
 10183  0020F4  EF7E  F010         	goto	i2u602_40
 10184  0020F8                     i2u602_41:
 10185  0020F8  EF88  F010         	goto	i2l4553
 10186  0020FC                     i2u602_40:
 10187  0020FC  0E00               	movlw	0
 10188  0020FE  6E01               	movwf	?i2___fladd^0,c
 10189  002100  0E00               	movlw	0
 10190  002102  6E02               	movwf	(?i2___fladd+1)^0,c
 10191  002104  0E00               	movlw	0
 10192  002106  6E03               	movwf	(?i2___fladd+2)^0,c
 10193  002108  0E00               	movlw	0
 10194  00210A  6E04               	movwf	(?i2___fladd+3)^0,c
 10195  00210C  EFD7  F011         	goto	i2l666
 10196  002110                     i2l4553:
 10197  002110  5005               	movf	i2___fladd@a^0,w,c
 10198  002112  2601               	addwf	i2___fladd@b^0,f,c
 10199  002114  5006               	movf	(i2___fladd@a+1)^0,w,c
 10200  002116  2202               	addwfc	(i2___fladd@b+1)^0,f,c
 10201  002118  5007               	movf	(i2___fladd@a+2)^0,w,c
 10202  00211A  2203               	addwfc	(i2___fladd@b+2)^0,f,c
 10203  00211C  5008               	movf	(i2___fladd@a+3)^0,w,c
 10204  00211E  2204               	addwfc	(i2___fladd@b+3)^0,f,c
 10205  002120  A004               	btfss	(i2___fladd@b+3)^0,0,c
 10206  002122  EF95  F010         	goto	i2u603_41
 10207  002126  EF97  F010         	goto	i2u603_40
 10208  00212A                     i2u603_41:
 10209  00212A  EF43  F011         	goto	i2l4607
 10210  00212E                     i2u603_40:
 10211  00212E  A010               	btfss	i2___fladd@grs^0,0,c
 10212  002130  EF9C  F010         	goto	i2u604_41
 10213  002134  EF9E  F010         	goto	i2u604_40
 10214  002138                     i2u604_41:
 10215  002138  EFA4  F010         	goto	i2l4561
 10216  00213C                     i2u604_40:
 10217  00213C  90D8               	bcf	status,0,c
 10218  00213E  3010               	rrcf	i2___fladd@grs^0,w,c
 10219  002140  0901               	iorlw	1
 10220  002142  6E10               	movwf	i2___fladd@grs^0,c
 10221  002144  EFA6  F010         	goto	i2l4563
 10222  002148                     i2l4561:
 10223  002148  90D8               	bcf	status,0,c
 10224  00214A  3210               	rrcf	i2___fladd@grs^0,f,c
 10225  00214C                     i2l4563:
 10226  00214C  A001               	btfss	i2___fladd@b^0,0,c
 10227  00214E  EFAB  F010         	goto	i2u605_41
 10228  002152  EFAD  F010         	goto	i2u605_40
 10229  002156                     i2u605_41:
 10230  002156  EFAE  F010         	goto	i2l4567
 10231  00215A                     i2u605_40:
 10232  00215A  8E10               	bsf	i2___fladd@grs^0,7,c
 10233  00215C                     i2l4567:
 10234  00215C  3404               	rlcf	(i2___fladd@b+3)^0,w,c
 10235  00215E  3204               	rrcf	(i2___fladd@b+3)^0,f,c
 10236  002160  3203               	rrcf	(i2___fladd@b+2)^0,f,c
 10237  002162  3202               	rrcf	(i2___fladd@b+1)^0,f,c
 10238  002164  3201               	rrcf	i2___fladd@b^0,f,c
 10239  002166  2A0F               	incf	i2___fladd@bexp^0,f,c
 10240  002168  EF43  F011         	goto	i2l4607
 10241  00216C                     i2l4571:
 10242  00216C  5005               	movf	i2___fladd@a^0,w,c
 10243  00216E  5C01               	subwf	i2___fladd@b^0,w,c
 10244  002170  5006               	movf	(i2___fladd@a+1)^0,w,c
 10245  002172  5802               	subwfb	(i2___fladd@b+1)^0,w,c
 10246  002174  5007               	movf	(i2___fladd@a+2)^0,w,c
 10247  002176  5803               	subwfb	(i2___fladd@b+2)^0,w,c
 10248  002178  5004               	movf	(i2___fladd@b+3)^0,w,c
 10249  00217A  0A80               	xorlw	128
 10250  00217C  6E09               	movwf	??i2___fladd^0,c
 10251  00217E  5008               	movf	(i2___fladd@a+3)^0,w,c
 10252  002180  0A80               	xorlw	128
 10253  002182  5809               	subwfb	??i2___fladd^0,w,c
 10254  002184  B0D8               	btfsc	status,0,c
 10255  002186  EFC7  F010         	goto	i2u606_41
 10256  00218A  EFC9  F010         	goto	i2u606_40
 10257  00218E                     i2u606_41:
 10258  00218E  EFF4  F010         	goto	i2l4581
 10259  002192                     i2u606_40:
 10260  002192  5001               	movf	i2___fladd@b^0,w,c
 10261  002194  5C05               	subwf	i2___fladd@a^0,w,c
 10262  002196  6E09               	movwf	??i2___fladd^0,c
 10263  002198  5002               	movf	(i2___fladd@b+1)^0,w,c
 10264  00219A  5806               	subwfb	(i2___fladd@a+1)^0,w,c
 10265  00219C  6E0A               	movwf	(??i2___fladd+1)^0,c
 10266  00219E  5003               	movf	(i2___fladd@b+2)^0,w,c
 10267  0021A0  5807               	subwfb	(i2___fladd@a+2)^0,w,c
 10268  0021A2  6E0B               	movwf	(??i2___fladd+2)^0,c
 10269  0021A4  5004               	movf	(i2___fladd@b+3)^0,w,c
 10270  0021A6  5808               	subwfb	(i2___fladd@a+3)^0,w,c
 10271  0021A8  6E0C               	movwf	(??i2___fladd+3)^0,c
 10272  0021AA  0EFF               	movlw	255
 10273  0021AC  2409               	addwf	??i2___fladd^0,w,c
 10274  0021AE  6E01               	movwf	i2___fladd@b^0,c
 10275  0021B0  0EFF               	movlw	255
 10276  0021B2  200A               	addwfc	(??i2___fladd+1)^0,w,c
 10277  0021B4  6E02               	movwf	(i2___fladd@b+1)^0,c
 10278  0021B6  0EFF               	movlw	255
 10279  0021B8  200B               	addwfc	(??i2___fladd+2)^0,w,c
 10280  0021BA  6E03               	movwf	(i2___fladd@b+2)^0,c
 10281  0021BC  0EFF               	movlw	255
 10282  0021BE  200C               	addwfc	(??i2___fladd+3)^0,w,c
 10283  0021C0  6E04               	movwf	(i2___fladd@b+3)^0,c
 10284  0021C2  0E80               	movlw	128
 10285  0021C4  1A0D               	xorwf	i2___fladd@signs^0,f,c
 10286  0021C6  6C10               	negf	i2___fladd@grs^0,c
 10287  0021C8  5010               	movf	i2___fladd@grs^0,w,c
 10288  0021CA  A4D8               	btfss	status,2,c
 10289  0021CC  EFEA  F010         	goto	i2u607_41
 10290  0021D0  EFEC  F010         	goto	i2u607_40
 10291  0021D4                     i2u607_41:
 10292  0021D4  EFFC  F010         	goto	i2l674
 10293  0021D8                     i2u607_40:
 10294  0021D8  0E01               	movlw	1
 10295  0021DA  2601               	addwf	i2___fladd@b^0,f,c
 10296  0021DC  0E00               	movlw	0
 10297  0021DE  2202               	addwfc	(i2___fladd@b+1)^0,f,c
 10298  0021E0  2203               	addwfc	(i2___fladd@b+2)^0,f,c
 10299  0021E2  2204               	addwfc	(i2___fladd@b+3)^0,f,c
 10300  0021E4  EFFC  F010         	goto	i2l674
 10301  0021E8                     i2l4581:
 10302  0021E8  5005               	movf	i2___fladd@a^0,w,c
 10303  0021EA  5E01               	subwf	i2___fladd@b^0,f,c
 10304  0021EC  5006               	movf	(i2___fladd@a+1)^0,w,c
 10305  0021EE  5A02               	subwfb	(i2___fladd@b+1)^0,f,c
 10306  0021F0  5007               	movf	(i2___fladd@a+2)^0,w,c
 10307  0021F2  5A03               	subwfb	(i2___fladd@b+2)^0,f,c
 10308  0021F4  5008               	movf	(i2___fladd@a+3)^0,w,c
 10309  0021F6  5A04               	subwfb	(i2___fladd@b+3)^0,f,c
 10310  0021F8                     i2l674:
 10311  0021F8  5001               	movf	i2___fladd@b^0,w,c
 10312  0021FA  1002               	iorwf	(i2___fladd@b+1)^0,w,c
 10313  0021FC  1003               	iorwf	(i2___fladd@b+2)^0,w,c
 10314  0021FE  1004               	iorwf	(i2___fladd@b+3)^0,w,c
 10315  002200  A4D8               	btfss	status,2,c
 10316  002202  EF05  F011         	goto	i2u608_41
 10317  002206  EF07  F011         	goto	i2u608_40
 10318  00220A                     i2u608_41:
 10319  00220A  EF3C  F011         	goto	i2l4605
 10320  00220E                     i2u608_40:
 10321  00220E  5010               	movf	i2___fladd@grs^0,w,c
 10322  002210  A4D8               	btfss	status,2,c
 10323  002212  EF0D  F011         	goto	i2u609_41
 10324  002216  EF0F  F011         	goto	i2u609_40
 10325  00221A                     i2u609_41:
 10326  00221A  EF3C  F011         	goto	i2l4605
 10327  00221E                     i2u609_40:
 10328  00221E  0E00               	movlw	0
 10329  002220  6E01               	movwf	?i2___fladd^0,c
 10330  002222  0E00               	movlw	0
 10331  002224  6E02               	movwf	(?i2___fladd+1)^0,c
 10332  002226  0E00               	movlw	0
 10333  002228  6E03               	movwf	(?i2___fladd+2)^0,c
 10334  00222A  0E00               	movlw	0
 10335  00222C  6E04               	movwf	(?i2___fladd+3)^0,c
 10336  00222E  EFD7  F011         	goto	i2l666
 10337  002232                     i2l4589:
 10338  002232  90D8               	bcf	status,0,c
 10339  002234  3601               	rlcf	i2___fladd@b^0,f,c
 10340  002236  3602               	rlcf	(i2___fladd@b+1)^0,f,c
 10341  002238  3603               	rlcf	(i2___fladd@b+2)^0,f,c
 10342  00223A  3604               	rlcf	(i2___fladd@b+3)^0,f,c
 10343  00223C  AE10               	btfss	i2___fladd@grs^0,7,c
 10344  00223E  EF23  F011         	goto	i2u610_41
 10345  002242  EF25  F011         	goto	i2u610_40
 10346  002246                     i2u610_41:
 10347  002246  EF26  F011         	goto	i2l4595
 10348  00224A                     i2u610_40:
 10349  00224A  8001               	bsf	i2___fladd@b^0,0,c
 10350  00224C                     i2l4595:
 10351  00224C  A010               	btfss	i2___fladd@grs^0,0,c
 10352  00224E  EF2B  F011         	goto	i2u611_41
 10353  002252  EF2D  F011         	goto	i2u611_40
 10354  002256                     i2u611_41:
 10355  002256  EF31  F011         	goto	i2l4599
 10356  00225A                     i2u611_40:
 10357  00225A  80D8               	bsf	status,0,c
 10358  00225C  3610               	rlcf	i2___fladd@grs^0,f,c
 10359  00225E  EF33  F011         	goto	i2l4601
 10360  002262                     i2l4599:
 10361  002262  90D8               	bcf	status,0,c
 10362  002264  3610               	rlcf	i2___fladd@grs^0,f,c
 10363  002266                     i2l4601:
 10364  002266  500F               	movf	i2___fladd@bexp^0,w,c
 10365  002268  B4D8               	btfsc	status,2,c
 10366  00226A  EF39  F011         	goto	i2u612_41
 10367  00226E  EF3B  F011         	goto	i2u612_40
 10368  002272                     i2u612_41:
 10369  002272  EF3C  F011         	goto	i2l4605
 10370  002276                     i2u612_40:
 10371  002276  060F               	decf	i2___fladd@bexp^0,f,c
 10372  002278                     i2l4605:
 10373  002278  AE03               	btfss	(i2___fladd@b+2)^0,7,c
 10374  00227A  EF41  F011         	goto	i2u613_41
 10375  00227E  EF43  F011         	goto	i2u613_40
 10376  002282                     i2u613_41:
 10377  002282  EF19  F011         	goto	i2l4589
 10378  002286                     i2u613_40:
 10379  002286                     i2l4607:
 10380  002286  0E00               	movlw	0
 10381  002288  6E0E               	movwf	i2___fladd@aexp^0,c
 10382  00228A  AE10               	btfss	i2___fladd@grs^0,7,c
 10383  00228C  EF4A  F011         	goto	i2u614_41
 10384  002290  EF4C  F011         	goto	i2u614_40
 10385  002294                     i2u614_41:
 10386  002294  EF64  F011         	goto	i2l683
 10387  002298                     i2u614_40:
 10388  002298  C010  F009         	movff	i2___fladd@grs,??i2___fladd
 10389  00229C  0E7F               	movlw	127
 10390  00229E  1609               	andwf	??i2___fladd^0,f,c
 10391  0022A0  B4D8               	btfsc	status,2,c
 10392  0022A2  EF55  F011         	goto	i2u615_41
 10393  0022A6  EF57  F011         	goto	i2u615_40
 10394  0022AA                     i2u615_41:
 10395  0022AA  EF5B  F011         	goto	i2l684
 10396  0022AE                     i2u615_40:
 10397  0022AE                     i2l4613:
 10398  0022AE  0E01               	movlw	1
 10399  0022B0  6E0E               	movwf	i2___fladd@aexp^0,c
 10400  0022B2  EF64  F011         	goto	i2l683
 10401  0022B6                     i2l684:
 10402  0022B6  A001               	btfss	i2___fladd@b^0,0,c
 10403  0022B8  EF60  F011         	goto	i2u616_41
 10404  0022BC  EF62  F011         	goto	i2u616_40
 10405  0022C0                     i2u616_41:
 10406  0022C0  EF64  F011         	goto	i2l683
 10407  0022C4                     i2u616_40:
 10408  0022C4  EF57  F011         	goto	i2l4613
 10409  0022C8                     i2l683:
 10410  0022C8  500E               	movf	i2___fladd@aexp^0,w,c
 10411  0022CA  B4D8               	btfsc	status,2,c
 10412  0022CC  EF6A  F011         	goto	i2u617_41
 10413  0022D0  EF6C  F011         	goto	i2u617_40
 10414  0022D4                     i2u617_41:
 10415  0022D4  EF97  F011         	goto	i2l4625
 10416  0022D8                     i2u617_40:
 10417  0022D8  0E01               	movlw	1
 10418  0022DA  2601               	addwf	i2___fladd@b^0,f,c
 10419  0022DC  0E00               	movlw	0
 10420  0022DE  2202               	addwfc	(i2___fladd@b+1)^0,f,c
 10421  0022E0  2203               	addwfc	(i2___fladd@b+2)^0,f,c
 10422  0022E2  2204               	addwfc	(i2___fladd@b+3)^0,f,c
 10423  0022E4  A004               	btfss	(i2___fladd@b+3)^0,0,c
 10424  0022E6  EF77  F011         	goto	i2u618_41
 10425  0022EA  EF79  F011         	goto	i2u618_40
 10426  0022EE                     i2u618_41:
 10427  0022EE  EF97  F011         	goto	i2l4625
 10428  0022F2                     i2u618_40:
 10429  0022F2  C001  F009         	movff	i2___fladd@b,??i2___fladd
 10430  0022F6  C002  F00A         	movff	i2___fladd@b+1,??i2___fladd+1
 10431  0022FA  C003  F00B         	movff	i2___fladd@b+2,??i2___fladd+2
 10432  0022FE  C004  F00C         	movff	i2___fladd@b+3,??i2___fladd+3
 10433  002302  340C               	rlcf	(??i2___fladd+3)^0,w,c
 10434  002304  320C               	rrcf	(??i2___fladd+3)^0,f,c
 10435  002306  320B               	rrcf	(??i2___fladd+2)^0,f,c
 10436  002308  320A               	rrcf	(??i2___fladd+1)^0,f,c
 10437  00230A  3209               	rrcf	??i2___fladd^0,f,c
 10438  00230C  C009  F001         	movff	??i2___fladd,i2___fladd@b
 10439  002310  C00A  F002         	movff	??i2___fladd+1,i2___fladd@b+1
 10440  002314  C00B  F003         	movff	??i2___fladd+2,i2___fladd@b+2
 10441  002318  C00C  F004         	movff	??i2___fladd+3,i2___fladd@b+3
 10442  00231C  280F               	incf	i2___fladd@bexp^0,w,c
 10443  00231E  B4D8               	btfsc	status,2,c
 10444  002320  EF94  F011         	goto	i2u619_41
 10445  002324  EF96  F011         	goto	i2u619_40
 10446  002328                     i2u619_41:
 10447  002328  EF97  F011         	goto	i2l4625
 10448  00232C                     i2u619_40:
 10449  00232C  2A0F               	incf	i2___fladd@bexp^0,f,c
 10450  00232E                     i2l4625:
 10451  00232E  280F               	incf	i2___fladd@bexp^0,w,c
 10452  002330  B4D8               	btfsc	status,2,c
 10453  002332  EF9D  F011         	goto	i2u620_41
 10454  002336  EF9F  F011         	goto	i2u620_40
 10455  00233A                     i2u620_41:
 10456  00233A  EFA7  F011         	goto	i2l4629
 10457  00233E                     i2u620_40:
 10458  00233E  500F               	movf	i2___fladd@bexp^0,w,c
 10459  002340  A4D8               	btfss	status,2,c
 10460  002342  EFA5  F011         	goto	i2u621_41
 10461  002346  EFA7  F011         	goto	i2u621_40
 10462  00234A                     i2u621_41:
 10463  00234A  EFB9  F011         	goto	i2l4633
 10464  00234E                     i2u621_40:
 10465  00234E                     i2l4629:
 10466  00234E  0E00               	movlw	0
 10467  002350  6E01               	movwf	i2___fladd@b^0,c
 10468  002352  0E00               	movlw	0
 10469  002354  6E02               	movwf	(i2___fladd@b+1)^0,c
 10470  002356  0E00               	movlw	0
 10471  002358  6E03               	movwf	(i2___fladd@b+2)^0,c
 10472  00235A  0E00               	movlw	0
 10473  00235C  6E04               	movwf	(i2___fladd@b+3)^0,c
 10474  00235E  500F               	movf	i2___fladd@bexp^0,w,c
 10475  002360  A4D8               	btfss	status,2,c
 10476  002362  EFB5  F011         	goto	i2u622_41
 10477  002366  EFB7  F011         	goto	i2u622_40
 10478  00236A                     i2u622_41:
 10479  00236A  EFB9  F011         	goto	i2l4633
 10480  00236E                     i2u622_40:
 10481  00236E  0E00               	movlw	0
 10482  002370  6E0D               	movwf	i2___fladd@signs^0,c
 10483  002372                     i2l4633:
 10484  002372  A00F               	btfss	i2___fladd@bexp^0,0,c
 10485  002374  EFBE  F011         	goto	i2u623_41
 10486  002378  EFC0  F011         	goto	i2u623_40
 10487  00237C                     i2u623_41:
 10488  00237C  EFC3  F011         	goto	i2l4637
 10489  002380                     i2u623_40:
 10490  002380  8E03               	bsf	(i2___fladd@b+2)^0,7,c
 10491  002382  EFC4  F011         	goto	i2l4639
 10492  002386                     i2l4637:
 10493  002386  9E03               	bcf	(i2___fladd@b+2)^0,7,c
 10494  002388                     i2l4639:
 10495  002388  90D8               	bcf	status,0,c
 10496  00238A  300F               	rrcf	i2___fladd@bexp^0,w,c
 10497  00238C  6E04               	movwf	(i2___fladd@b+3)^0,c
 10498  00238E  AE0D               	btfss	i2___fladd@signs^0,7,c
 10499  002390  EFCC  F011         	goto	i2u624_41
 10500  002394  EFCE  F011         	goto	i2u624_40
 10501  002398                     i2u624_41:
 10502  002398  EFCF  F011         	goto	i2l4645
 10503  00239C                     i2u624_40:
 10504  00239C  8E04               	bsf	(i2___fladd@b+3)^0,7,c
 10505  00239E                     i2l4645:
 10506  00239E  C001  F001         	movff	i2___fladd@b,?i2___fladd
 10507  0023A2  C002  F002         	movff	i2___fladd@b+1,?i2___fladd+1
 10508  0023A6  C003  F003         	movff	i2___fladd@b+2,?i2___fladd+2
 10509  0023AA  C004  F004         	movff	i2___fladd@b+3,?i2___fladd+3
 10510  0023AE                     i2l666:
 10511  0023AE  0012               	return		;funcret
 10512  0023B0                     __end_ofi2___fladd:
 10513                           	callstack 0
 10514                           
 10515 ;; *************** function _controlaVelocidade *****************
 10516 ;; Defined at:
 10517 ;;		line 36 in file "ADC_LM35_lcd.c"
 10518 ;; Parameters:    Size  Location     Type
 10519 ;;		None
 10520 ;; Auto vars:     Size  Location     Type
 10521 ;;		None
 10522 ;; Return value:  Size  Location     Type
 10523 ;;                  1    wreg      void 
 10524 ;; Registers used:
 10525 ;;		wreg, status,2, status,0, cstack
 10526 ;; Tracked objects:
 10527 ;;		On entry : 0/0
 10528 ;;		On exit  : 0/0
 10529 ;;		Unchanged: 0/0
 10530 ;; Data sizes:     COMRAM   BANK0   BANK1   BANK2   BANK3   BANK4   BANK5   BANK6   BANK7
 10531 ;;      Params:         0       0       0       0       0       0       0       0       0
 10532 ;;      Locals:         0       0       0       0       0       0       0       0       0
 10533 ;;      Temps:          0       0       0       0       0       0       0       0       0
 10534 ;;      Totals:         0       0       0       0       0       0       0       0       0
 10535 ;;Total ram usage:        0 bytes
 10536 ;; Hardware stack levels used: 1
 10537 ;; Hardware stack levels required when called: 1
 10538 ;; This function calls:
 10539 ;;		i2___flge
 10540 ;; This function is called by:
 10541 ;;		_isr
 10542 ;; This function uses a non-reentrant model
 10543 ;;
 10544                           
 10545                           	psect	text38
 10546  003ECA                     __ptext38:
 10547                           	callstack 0
 10548  003ECA                     _controlaVelocidade:
 10549                           	callstack 20
 10550  003ECA                     
 10551                           ;ADC_LM35_lcd.c: 37:         imprime_lcd("PERIGO ALTA");
 10552  003ECA  C039  F00F         	movff	_temperatura,i2___flge@ff1
 10553  003ECE  C03A  F010         	movff	_temperatura+1,i2___flge@ff1+1
 10554  003ED2  C03B  F011         	movff	_temperatura+2,i2___flge@ff1+2
 10555  003ED6  C03C  F012         	movff	_temperatura+3,i2___flge@ff1+3
 10556  003EDA  0E00               	movlw	0
 10557  003EDC  6E13               	movwf	i2___flge@ff2^0,c
 10558  003EDE  0E00               	movlw	0
 10559  003EE0  6E14               	movwf	(i2___flge@ff2+1)^0,c
 10560  003EE2  0E48               	movlw	72
 10561  003EE4  6E15               	movwf	(i2___flge@ff2+2)^0,c
 10562  003EE6  0E42               	movlw	66
 10563  003EE8  6E16               	movwf	(i2___flge@ff2+3)^0,c
 10564  003EEA  ECF2  F01B         	call	i2___flge	;wreg free
 10565  003EEE  B0D8               	btfsc	status,0,c
 10566  003EF0  EF7C  F01F         	goto	i2u571_41
 10567  003EF4  EF7E  F01F         	goto	i2u571_40
 10568  003EF8                     i2u571_41:
 10569  003EF8  EF81  F01F         	goto	i2l4349
 10570  003EFC                     i2u571_40:
 10571  003EFC                     
 10572                           ;ADC_LM35_lcd.c: 38:         comando_lcd(192);
 10573  003EFC  50BE               	movf	190,w,c	;volatile
 10574  003EFE  0FE2               	addlw	226
 10575  003F00  6EBE               	movwf	190,c	;volatile
 10576  003F02                     i2l4349:
 10577                           
 10578                           ;ADC_LM35_lcd.c: 41:         limpa_lcd( );
 10579  003F02  0E00               	movlw	0
 10580  003F04  6E0F               	movwf	i2___flge@ff1^0,c
 10581  003F06  0E00               	movlw	0
 10582  003F08  6E10               	movwf	(i2___flge@ff1+1)^0,c
 10583  003F0A  0E70               	movlw	112
 10584  003F0C  6E11               	movwf	(i2___flge@ff1+2)^0,c
 10585  003F0E  0E42               	movlw	66
 10586  003F10  6E12               	movwf	(i2___flge@ff1+3)^0,c
 10587  003F12  C039  F013         	movff	_temperatura,i2___flge@ff2
 10588  003F16  C03A  F014         	movff	_temperatura+1,i2___flge@ff2+1
 10589  003F1A  C03B  F015         	movff	_temperatura+2,i2___flge@ff2+2
 10590  003F1E  C03C  F016         	movff	_temperatura+3,i2___flge@ff2+3
 10591  003F22  ECF2  F01B         	call	i2___flge	;wreg free
 10592  003F26  B0D8               	btfsc	status,0,c
 10593  003F28  EF98  F01F         	goto	i2u572_41
 10594  003F2C  EF9A  F01F         	goto	i2u572_40
 10595  003F30                     i2u572_41:
 10596  003F30  EF9F  F01F         	goto	i2l4353
 10597  003F34                     i2u572_40:
 10598  003F34                     
 10599                           ;ADC_LM35_lcd.c: 42:     }
 10600  003F34  50BE               	movf	190,w,c	;volatile
 10601  003F36  0F50               	addlw	80
 10602  003F38  6EBE               	movwf	190,c	;volatile
 10603                           
 10604                           ;ADC_LM35_lcd.c: 43:     if(temperatura < temperaturaMin){
 10605  003F3A  EFBB  F01F         	goto	i2l101
 10606  003F3E                     i2l4353:
 10607  003F3E  C039  F00F         	movff	_temperatura,i2___flge@ff1
 10608  003F42  C03A  F010         	movff	_temperatura+1,i2___flge@ff1+1
 10609  003F46  C03B  F011         	movff	_temperatura+2,i2___flge@ff1+2
 10610  003F4A  C03C  F012         	movff	_temperatura+3,i2___flge@ff1+3
 10611  003F4E  0E00               	movlw	0
 10612  003F50  6E13               	movwf	i2___flge@ff2^0,c
 10613  003F52  0E00               	movlw	0
 10614  003F54  6E14               	movwf	(i2___flge@ff2+1)^0,c
 10615  003F56  0E5C               	movlw	92
 10616  003F58  6E15               	movwf	(i2___flge@ff2+2)^0,c
 10617  003F5A  0E42               	movlw	66
 10618  003F5C  6E16               	movwf	(i2___flge@ff2+3)^0,c
 10619  003F5E  ECF2  F01B         	call	i2___flge	;wreg free
 10620  003F62  A0D8               	btfss	status,0,c
 10621  003F64  EFB6  F01F         	goto	i2u573_41
 10622  003F68  EFB8  F01F         	goto	i2u573_40
 10623  003F6C                     i2u573_41:
 10624  003F6C  EFBB  F01F         	goto	i2l101
 10625  003F70                     i2u573_40:
 10626  003F70                     
 10627                           ;ADC_LM35_lcd.c: 44:         limpa_lcd( );
 10628  003F70  50BE               	movf	190,w,c	;volatile
 10629  003F72  0F05               	addlw	5
 10630  003F74  6EBE               	movwf	190,c	;volatile
 10631  003F76                     i2l101:
 10632  003F76  0012               	return		;funcret
 10633  003F78                     __end_of_controlaVelocidade:
 10634                           	callstack 0
 10635                           
 10636 ;; *************** function _alarmeTemperatura *****************
 10637 ;; Defined at:
 10638 ;;		line 47 in file "ADC_LM35_lcd.c"
 10639 ;; Parameters:    Size  Location     Type
 10640 ;;		None
 10641 ;; Auto vars:     Size  Location     Type
 10642 ;;		None
 10643 ;; Return value:  Size  Location     Type
 10644 ;;                  1    wreg      void 
 10645 ;; Registers used:
 10646 ;;		wreg, fsr1l, fsr1h, status,2, status,0, tblptrl, tblptrh, tblptru, cstack
 10647 ;; Tracked objects:
 10648 ;;		On entry : 0/0
 10649 ;;		On exit  : 0/0
 10650 ;;		Unchanged: 0/0
 10651 ;; Data sizes:     COMRAM   BANK0   BANK1   BANK2   BANK3   BANK4   BANK5   BANK6   BANK7
 10652 ;;      Params:         0       0       0       0       0       0       0       0       0
 10653 ;;      Locals:         0       0       0       0       0       0       0       0       0
 10654 ;;      Temps:          2       0       0       0       0       0       0       0       0
 10655 ;;      Totals:         2       0       0       0       0       0       0       0       0
 10656 ;;Total ram usage:        2 bytes
 10657 ;; Hardware stack levels used: 1
 10658 ;; Hardware stack levels required when called: 2
 10659 ;; This function calls:
 10660 ;;		i2___flge
 10661 ;;		i2___xxtofl
 10662 ;;		i2_comando_lcd
 10663 ;;		i2_imprime_lcd
 10664 ;;		i2_limpa_lcd
 10665 ;; This function is called by:
 10666 ;;		_isr
 10667 ;; This function uses a non-reentrant model
 10668 ;;
 10669                           
 10670                           	psect	text39
 10671  003478                     __ptext39:
 10672                           	callstack 0
 10673  003478                     _alarmeTemperatura:
 10674                           	callstack 19
 10675  003478                     
 10676                           ;ADC_LM35_lcd.c: 48:         comando_lcd(192);
 10677  003478  C03F  F001         	movff	_temperaturaMax,i2___xxtofl@val
 10678  00347C  C040  F002         	movff	_temperaturaMax+1,i2___xxtofl@val+1
 10679  003480  0E00               	movlw	0
 10680  003482  BE02               	btfsc	(i2___xxtofl@val+1)^0,7,c
 10681  003484  0EFF               	movlw	-1
 10682  003486  6E03               	movwf	(i2___xxtofl@val+2)^0,c
 10683  003488  6E04               	movwf	(i2___xxtofl@val+3)^0,c
 10684  00348A  0E01               	movlw	1
 10685  00348C  EC98  F018         	call	i2___xxtofl
 10686  003490  C001  F00F         	movff	?i2___xxtofl,i2___flge@ff1
 10687  003494  C002  F010         	movff	?i2___xxtofl+1,i2___flge@ff1+1
 10688  003498  C003  F011         	movff	?i2___xxtofl+2,i2___flge@ff1+2
 10689  00349C  C004  F012         	movff	?i2___xxtofl+3,i2___flge@ff1+3
 10690  0034A0  C039  F013         	movff	_temperatura,i2___flge@ff2
 10691  0034A4  C03A  F014         	movff	_temperatura+1,i2___flge@ff2+1
 10692  0034A8  C03B  F015         	movff	_temperatura+2,i2___flge@ff2+2
 10693  0034AC  C03C  F016         	movff	_temperatura+3,i2___flge@ff2+3
 10694  0034B0  ECF2  F01B         	call	i2___flge	;wreg free
 10695  0034B4  B0D8               	btfsc	status,0,c
 10696  0034B6  EF5F  F01A         	goto	i2u574_41
 10697  0034BA  EF61  F01A         	goto	i2u574_40
 10698  0034BE                     i2u574_41:
 10699  0034BE  EF93  F01A         	goto	i2l4373
 10700  0034C2                     i2u574_40:
 10701  0034C2                     
 10702                           ;ADC_LM35_lcd.c: 49:         imprime_lcd("TEMPERATURA");
 10703  0034C2  ECF7  F022         	call	i2_limpa_lcd	;wreg free
 10704  0034C6                     
 10705                           ;ADC_LM35_lcd.c: 50:         _delay((unsigned long)((1000)*(4000000/4000.0)));
 10706  0034C6  0E06               	movlw	6
 10707  0034C8  6E1C               	movwf	(??_alarmeTemperatura+1)^0,c
 10708  0034CA  0E13               	movlw	19
 10709  0034CC  6E1B               	movwf	??_alarmeTemperatura^0,c
 10710  0034CE  0EAE               	movlw	174
 10711  0034D0                     i2u881_47:
 10712  0034D0  2EE8               	decfsz	wreg,f,c
 10713  0034D2  D7FE               	bra	i2u881_47
 10714  0034D4  2E1B               	decfsz	??_alarmeTemperatura^0,f,c
 10715  0034D6  D7FC               	bra	i2u881_47
 10716  0034D8  2E1C               	decfsz	(??_alarmeTemperatura+1)^0,f,c
 10717  0034DA  D7FA               	bra	i2u881_47
 10718  0034DC                     
 10719                           ;ADC_LM35_lcd.c: 51:         limpa_lcd( );
 10720  0034DC  0E00               	movlw	0
 10721  0034DE  6E02               	movwf	(i2comando_lcd@comando+1)^0,c
 10722  0034E0  0E80               	movlw	128
 10723  0034E2  6E01               	movwf	i2comando_lcd@comando^0,c
 10724  0034E4  ECD5  F022         	call	i2_comando_lcd	;wreg free
 10725  0034E8                     
 10726                           ;ADC_LM35_lcd.c: 52:     }
 10727  0034E8  0E29               	movlw	low STR_1
 10728  0034EA  6E05               	movwf	i2imprime_lcd@frase^0,c
 10729  0034EC  0E08               	movlw	high STR_1
 10730  0034EE  6E06               	movwf	(i2imprime_lcd@frase+1)^0,c
 10731  0034F0  EC54  F020         	call	i2_imprime_lcd	;wreg free
 10732  0034F4                     
 10733                           ;ADC_LM35_lcd.c: 53: }
 10734  0034F4  0E00               	movlw	0
 10735  0034F6  6E02               	movwf	(i2comando_lcd@comando+1)^0,c
 10736  0034F8  0EC0               	movlw	192
 10737  0034FA  6E01               	movwf	i2comando_lcd@comando^0,c
 10738  0034FC  ECD5  F022         	call	i2_comando_lcd	;wreg free
 10739  003500                     
 10740                           ;ADC_LM35_lcd.c: 54: 
 10741  003500  0E1D               	movlw	low STR_2
 10742  003502  6E05               	movwf	i2imprime_lcd@frase^0,c
 10743  003504  0E08               	movlw	high STR_2
 10744  003506  6E06               	movwf	(i2imprime_lcd@frase+1)^0,c
 10745  003508  EC54  F020         	call	i2_imprime_lcd	;wreg free
 10746  00350C                     
 10747                           ;ADC_LM35_lcd.c: 55: void __attribute__((picinterrupt(("")))) isr(void){
 10748  00350C  0E06               	movlw	6
 10749  00350E  6E1C               	movwf	(??_alarmeTemperatura+1)^0,c
 10750  003510  0E13               	movlw	19
 10751  003512  6E1B               	movwf	??_alarmeTemperatura^0,c
 10752  003514  0EAE               	movlw	174
 10753  003516                     i2u882_47:
 10754  003516  2EE8               	decfsz	wreg,f,c
 10755  003518  D7FE               	bra	i2u882_47
 10756  00351A  2E1B               	decfsz	??_alarmeTemperatura^0,f,c
 10757  00351C  D7FC               	bra	i2u882_47
 10758  00351E  2E1C               	decfsz	(??_alarmeTemperatura+1)^0,f,c
 10759  003520  D7FA               	bra	i2u882_47
 10760                           
 10761                           ;ADC_LM35_lcd.c: 56: 
 10762  003522  ECF7  F022         	call	i2_limpa_lcd	;wreg free
 10763  003526                     i2l4373:
 10764                           
 10765                           ;ADC_LM35_lcd.c: 58: 
 10766  003526  C039  F00F         	movff	_temperatura,i2___flge@ff1
 10767  00352A  C03A  F010         	movff	_temperatura+1,i2___flge@ff1+1
 10768  00352E  C03B  F011         	movff	_temperatura+2,i2___flge@ff1+2
 10769  003532  C03C  F012         	movff	_temperatura+3,i2___flge@ff1+3
 10770  003536  C03D  F001         	movff	_temperaturaMin,i2___xxtofl@val
 10771  00353A  C03E  F002         	movff	_temperaturaMin+1,i2___xxtofl@val+1
 10772  00353E  0E00               	movlw	0
 10773  003540  BE02               	btfsc	(i2___xxtofl@val+1)^0,7,c
 10774  003542  0EFF               	movlw	-1
 10775  003544  6E03               	movwf	(i2___xxtofl@val+2)^0,c
 10776  003546  6E04               	movwf	(i2___xxtofl@val+3)^0,c
 10777  003548  0E01               	movlw	1
 10778  00354A  EC98  F018         	call	i2___xxtofl
 10779  00354E  C001  F013         	movff	?i2___xxtofl,i2___flge@ff2
 10780  003552  C002  F014         	movff	?i2___xxtofl+1,i2___flge@ff2+1
 10781  003556  C003  F015         	movff	?i2___xxtofl+2,i2___flge@ff2+2
 10782  00355A  C004  F016         	movff	?i2___xxtofl+3,i2___flge@ff2+3
 10783  00355E  ECF2  F01B         	call	i2___flge	;wreg free
 10784  003562  B0D8               	btfsc	status,0,c
 10785  003564  EFB6  F01A         	goto	i2u575_41
 10786  003568  EFB8  F01A         	goto	i2u575_40
 10787  00356C                     i2u575_41:
 10788  00356C  EFEA  F01A         	goto	i2l106
 10789  003570                     i2u575_40:
 10790  003570                     
 10791                           ;ADC_LM35_lcd.c: 59:         INTCON3bits.INT1IF = 0;
 10792  003570  ECF7  F022         	call	i2_limpa_lcd	;wreg free
 10793  003574                     
 10794                           ;ADC_LM35_lcd.c: 60:         if(temperatura >= 20){
 10795  003574  0E06               	movlw	6
 10796  003576  6E1C               	movwf	(??_alarmeTemperatura+1)^0,c
 10797  003578  0E13               	movlw	19
 10798  00357A  6E1B               	movwf	??_alarmeTemperatura^0,c
 10799  00357C  0EAE               	movlw	174
 10800  00357E                     i2u883_47:
 10801  00357E  2EE8               	decfsz	wreg,f,c
 10802  003580  D7FE               	bra	i2u883_47
 10803  003582  2E1B               	decfsz	??_alarmeTemperatura^0,f,c
 10804  003584  D7FC               	bra	i2u883_47
 10805  003586  2E1C               	decfsz	(??_alarmeTemperatura+1)^0,f,c
 10806  003588  D7FA               	bra	i2u883_47
 10807  00358A                     
 10808                           ;ADC_LM35_lcd.c: 61:             temperatura = temperatura - 10;
 10809  00358A  0E00               	movlw	0
 10810  00358C  6E02               	movwf	(i2comando_lcd@comando+1)^0,c
 10811  00358E  0E80               	movlw	128
 10812  003590  6E01               	movwf	i2comando_lcd@comando^0,c
 10813  003592  ECD5  F022         	call	i2_comando_lcd	;wreg free
 10814  003596                     
 10815                           ;ADC_LM35_lcd.c: 62:         }
 10816  003596  0E10               	movlw	low STR_3
 10817  003598  6E05               	movwf	i2imprime_lcd@frase^0,c
 10818  00359A  0E08               	movlw	high STR_3
 10819  00359C  6E06               	movwf	(i2imprime_lcd@frase+1)^0,c
 10820  00359E  EC54  F020         	call	i2_imprime_lcd	;wreg free
 10821  0035A2                     
 10822                           ;ADC_LM35_lcd.c: 63:     }
 10823  0035A2  0E00               	movlw	0
 10824  0035A4  6E02               	movwf	(i2comando_lcd@comando+1)^0,c
 10825  0035A6  0EC0               	movlw	192
 10826  0035A8  6E01               	movwf	i2comando_lcd@comando^0,c
 10827  0035AA  ECD5  F022         	call	i2_comando_lcd	;wreg free
 10828  0035AE                     
 10829                           ;ADC_LM35_lcd.c: 64: 
 10830  0035AE  0E1D               	movlw	low STR_2
 10831  0035B0  6E05               	movwf	i2imprime_lcd@frase^0,c
 10832  0035B2  0E08               	movlw	high STR_2
 10833  0035B4  6E06               	movwf	(i2imprime_lcd@frase+1)^0,c
 10834  0035B6  EC54  F020         	call	i2_imprime_lcd	;wreg free
 10835  0035BA                     
 10836                           ;ADC_LM35_lcd.c: 65:     if(INTCONbits.TMR0IE && INTCONbits.TMR0IF) {
 10837  0035BA  0E06               	movlw	6
 10838  0035BC  6E1C               	movwf	(??_alarmeTemperatura+1)^0,c
 10839  0035BE  0E13               	movlw	19
 10840  0035C0  6E1B               	movwf	??_alarmeTemperatura^0,c
 10841  0035C2  0EAE               	movlw	174
 10842  0035C4                     i2u884_47:
 10843  0035C4  2EE8               	decfsz	wreg,f,c
 10844  0035C6  D7FE               	bra	i2u884_47
 10845  0035C8  2E1B               	decfsz	??_alarmeTemperatura^0,f,c
 10846  0035CA  D7FC               	bra	i2u884_47
 10847  0035CC  2E1C               	decfsz	(??_alarmeTemperatura+1)^0,f,c
 10848  0035CE  D7FA               	bra	i2u884_47
 10849                           
 10850                           ;ADC_LM35_lcd.c: 66: 
 10851  0035D0  ECF7  F022         	call	i2_limpa_lcd	;wreg free
 10852  0035D4                     i2l106:
 10853  0035D4  0012               	return		;funcret
 10854  0035D6                     __end_of_alarmeTemperatura:
 10855                           	callstack 0
 10856                           
 10857 ;; *************** function i2_limpa_lcd *****************
 10858 ;; Defined at:
 10859 ;;		line 26 in file "./lcd.intermed.h"
 10860 ;; Parameters:    Size  Location     Type
 10861 ;;		None
 10862 ;; Auto vars:     Size  Location     Type
 10863 ;;		None
 10864 ;; Return value:  Size  Location     Type
 10865 ;;                  1    wreg      void 
 10866 ;; Registers used:
 10867 ;;		wreg, status,2, cstack
 10868 ;; Tracked objects:
 10869 ;;		On entry : 0/0
 10870 ;;		On exit  : 0/0
 10871 ;;		Unchanged: 0/0
 10872 ;; Data sizes:     COMRAM   BANK0   BANK1   BANK2   BANK3   BANK4   BANK5   BANK6   BANK7
 10873 ;;      Params:         0       0       0       0       0       0       0       0       0
 10874 ;;      Locals:         0       0       0       0       0       0       0       0       0
 10875 ;;      Temps:          0       0       0       0       0       0       0       0       0
 10876 ;;      Totals:         0       0       0       0       0       0       0       0       0
 10877 ;;Total ram usage:        0 bytes
 10878 ;; Hardware stack levels used: 1
 10879 ;; Hardware stack levels required when called: 1
 10880 ;; This function calls:
 10881 ;;		i2_comando_lcd
 10882 ;; This function is called by:
 10883 ;;		_alarmeTemperatura
 10884 ;; This function uses a non-reentrant model
 10885 ;;
 10886                           
 10887                           	psect	text40
 10888  0045EE                     __ptext40:
 10889                           	callstack 0
 10890  0045EE                     i2_limpa_lcd:
 10891                           	callstack 19
 10892  0045EE                     
 10893                           ;./lcd.intermed.h: 28:     comando_lcd(1);
 10894  0045EE  0E00               	movlw	0
 10895  0045F0  6E02               	movwf	(i2comando_lcd@comando+1)^0,c
 10896  0045F2  0E01               	movlw	1
 10897  0045F4  6E01               	movwf	i2comando_lcd@comando^0,c
 10898  0045F6  ECD5  F022         	call	i2_comando_lcd	;wreg free
 10899  0045FA  0012               	return		;funcret
 10900  0045FC                     __end_ofi2_limpa_lcd:
 10901                           	callstack 0
 10902                           
 10903 ;; *************** function i2_comando_lcd *****************
 10904 ;; Defined at:
 10905 ;;		line 7 in file "./lcd.intermed.h"
 10906 ;; Parameters:    Size  Location     Type
 10907 ;;  comando         2    0[COMRAM] unsigned int 
 10908 ;; Auto vars:     Size  Location     Type
 10909 ;;		None
 10910 ;; Return value:  Size  Location     Type
 10911 ;;                  1    wreg      void 
 10912 ;; Registers used:
 10913 ;;		wreg
 10914 ;; Tracked objects:
 10915 ;;		On entry : 0/0
 10916 ;;		On exit  : 0/0
 10917 ;;		Unchanged: 0/0
 10918 ;; Data sizes:     COMRAM   BANK0   BANK1   BANK2   BANK3   BANK4   BANK5   BANK6   BANK7
 10919 ;;      Params:         2       0       0       0       0       0       0       0       0
 10920 ;;      Locals:         0       0       0       0       0       0       0       0       0
 10921 ;;      Temps:          1       0       0       0       0       0       0       0       0
 10922 ;;      Totals:         3       0       0       0       0       0       0       0       0
 10923 ;;Total ram usage:        3 bytes
 10924 ;; Hardware stack levels used: 1
 10925 ;; This function calls:
 10926 ;;		Nothing
 10927 ;; This function is called by:
 10928 ;;		_alarmeTemperatura
 10929 ;;		i2_limpa_lcd
 10930 ;; This function uses a non-reentrant model
 10931 ;;
 10932                           
 10933                           	psect	text41
 10934  0045AA                     __ptext41:
 10935                           	callstack 0
 10936  0045AA                     i2_comando_lcd:
 10937                           	callstack 19
 10938  0045AA                     
 10939                           ;./lcd.intermed.h: 7: void comando_lcd(unsigned int comando);./lcd.intermed.h: 8: {;./lc
      +                          d.intermed.h: 9:     PORTEbits.RE2 = 0;
 10940  0045AA  9484               	bcf	132,2,c	;volatile
 10941                           
 10942                           ;./lcd.intermed.h: 10:     PORTEbits.RE1 = 1;
 10943  0045AC  8284               	bsf	132,1,c	;volatile
 10944                           
 10945                           ;./lcd.intermed.h: 11:     PORTD = comando;
 10946  0045AE  C001  FF83         	movff	i2comando_lcd@comando,3971	;volatile
 10947  0045B2                     
 10948                           ;./lcd.intermed.h: 12:     _delay((unsigned long)((2)*(4000000/4000.0)));
 10949  0045B2  0E03               	movlw	3
 10950  0045B4  6E03               	movwf	??i2_comando_lcd^0,c
 10951  0045B6  0E98               	movlw	152
 10952  0045B8                     i2u885_47:
 10953  0045B8  2EE8               	decfsz	wreg,f,c
 10954  0045BA  D7FE               	bra	i2u885_47
 10955  0045BC  2E03               	decfsz	??i2_comando_lcd^0,f,c
 10956  0045BE  D7FC               	bra	i2u885_47
 10957  0045C0                     
 10958                           ;./lcd.intermed.h: 13:     PORTEbits.RE1 = 0;
 10959  0045C0  9284               	bcf	132,1,c	;volatile
 10960  0045C2  0012               	return		;funcret
 10961  0045C4                     __end_ofi2_comando_lcd:
 10962                           	callstack 0
 10963                           
 10964 ;; *************** function i2_imprime_lcd *****************
 10965 ;; Defined at:
 10966 ;;		line 31 in file "./lcd.intermed.h"
 10967 ;; Parameters:    Size  Location     Type
 10968 ;;  frase           2    4[COMRAM] PTR unsigned char 
 10969 ;;		 -> STR_7(15), temperature(8), STR_5(12), STR_4(12), 
 10970 ;;		 -> STR_3(13), STR_2(12), STR_1(12), 
 10971 ;; Auto vars:     Size  Location     Type
 10972 ;;  indice          2   11[COMRAM] int 
 10973 ;;  tamanho         2    9[COMRAM] int 
 10974 ;; Return value:  Size  Location     Type
 10975 ;;                  1    wreg      void 
 10976 ;; Registers used:
 10977 ;;		wreg, fsr1l, fsr1h, status,2, status,0, tblptrl, tblptrh, tblptru, cstack
 10978 ;; Tracked objects:
 10979 ;;		On entry : 0/0
 10980 ;;		On exit  : 0/0
 10981 ;;		Unchanged: 0/0
 10982 ;; Data sizes:     COMRAM   BANK0   BANK1   BANK2   BANK3   BANK4   BANK5   BANK6   BANK7
 10983 ;;      Params:         2       0       0       0       0       0       0       0       0
 10984 ;;      Locals:         4       0       0       0       0       0       0       0       0
 10985 ;;      Temps:          3       0       0       0       0       0       0       0       0
 10986 ;;      Totals:         9       0       0       0       0       0       0       0       0
 10987 ;;Total ram usage:        9 bytes
 10988 ;; Hardware stack levels used: 1
 10989 ;; Hardware stack levels required when called: 1
 10990 ;; This function calls:
 10991 ;;		i2_dado_lcd
 10992 ;;		i2_strlen
 10993 ;; This function is called by:
 10994 ;;		_alarmeTemperatura
 10995 ;; This function uses a non-reentrant model
 10996 ;;
 10997                           
 10998                           	psect	text42
 10999  0040A8                     __ptext42:
 11000                           	callstack 0
 11001  0040A8                     i2_imprime_lcd:
 11002                           	callstack 19
 11003  0040A8                     
 11004                           ;./lcd.intermed.h: 31: void imprime_lcd(char frase[]);./lcd.intermed.h: 32: {;./lcd.inte
      +                          rmed.h: 33: int indice = 0;
 11005  0040A8  0E00               	movlw	0
 11006  0040AA  6E0D               	movwf	(i2imprime_lcd@indice+1)^0,c
 11007  0040AC  0E00               	movlw	0
 11008  0040AE  6E0C               	movwf	i2imprime_lcd@indice^0,c
 11009  0040B0                     
 11010                           ;./lcd.intermed.h: 34: int tamanho = strlen(frase);
 11011  0040B0  C005  F001         	movff	i2imprime_lcd@frase,i2strlen@s
 11012  0040B4  C006  F002         	movff	i2imprime_lcd@frase+1,i2strlen@s+1
 11013  0040B8  ECC8  F021         	call	i2_strlen	;wreg free
 11014  0040BC  C001  F00A         	movff	?i2_strlen,i2imprime_lcd@tamanho
 11015  0040C0  C002  F00B         	movff	?i2_strlen+1,i2imprime_lcd@tamanho+1
 11016                           
 11017                           ;./lcd.intermed.h: 35: while(indice<tamanho)
 11018  0040C4  EF82  F020         	goto	i2l4257
 11019  0040C8                     i2l4253:
 11020                           
 11021                           ;./lcd.intermed.h: 36:     {;./lcd.intermed.h: 37: dado_lcd(frase[indice]);
 11022  0040C8  500C               	movf	i2imprime_lcd@indice^0,w,c
 11023  0040CA  2405               	addwf	i2imprime_lcd@frase^0,w,c
 11024  0040CC  6E07               	movwf	??i2_imprime_lcd^0,c
 11025  0040CE  500D               	movf	(i2imprime_lcd@indice+1)^0,w,c
 11026  0040D0  2006               	addwfc	(i2imprime_lcd@frase+1)^0,w,c
 11027  0040D2  6E08               	movwf	(??i2_imprime_lcd+1)^0,c
 11028  0040D4  C007  FFF6         	movff	??i2_imprime_lcd,tblptrl
 11029  0040D8  C008  FFF7         	movff	??i2_imprime_lcd+1,tblptrh
 11030  0040DC  6AF8               	clrf	tblptru,c
 11031  0040DE  0E07               	movlw	(high __ramtop+-1)
 11032  0040E0  64F7               	cpfsgt	tblptrh,c
 11033  0040E2  D003               	bra	i2u552_47
 11034  0040E4  0008               	tblrd		*
 11035  0040E6  50F5               	movf	tablat,w,c
 11036  0040E8  D005               	bra	i2u552_40
 11037  0040EA                     i2u552_47:
 11038  0040EA  CFF6 FFE1          	movff	tblptrl,fsr1l
 11039  0040EE  CFF7 FFE2          	movff	tblptrh,fsr1h
 11040  0040F2  50E7               	movf	indf1,w,c
 11041  0040F4                     i2u552_40:
 11042  0040F4  6E09               	movwf	(??i2_imprime_lcd+2)^0,c
 11043  0040F6  5009               	movf	(??i2_imprime_lcd+2)^0,w,c
 11044  0040F8  6E01               	movwf	i2dado_lcd@dado^0,c
 11045  0040FA  6A02               	clrf	(i2dado_lcd@dado+1)^0,c
 11046  0040FC  ECE2  F022         	call	i2_dado_lcd	;wreg free
 11047  004100                     
 11048                           ;./lcd.intermed.h: 38: indice++;
 11049  004100  4A0C               	infsnz	i2imprime_lcd@indice^0,f,c
 11050  004102  2A0D               	incf	(i2imprime_lcd@indice+1)^0,f,c
 11051  004104                     i2l4257:
 11052                           
 11053                           ;./lcd.intermed.h: 35: while(indice<tamanho)
 11054  004104  500A               	movf	i2imprime_lcd@tamanho^0,w,c
 11055  004106  5C0C               	subwf	i2imprime_lcd@indice^0,w,c
 11056  004108  500D               	movf	(i2imprime_lcd@indice+1)^0,w,c
 11057  00410A  0A80               	xorlw	128
 11058  00410C  6E07               	movwf	??i2_imprime_lcd^0,c
 11059  00410E  500B               	movf	(i2imprime_lcd@tamanho+1)^0,w,c
 11060  004110  0A80               	xorlw	128
 11061  004112  5807               	subwfb	??i2_imprime_lcd^0,w,c
 11062  004114  A0D8               	btfss	status,0,c
 11063  004116  EF8F  F020         	goto	i2u553_41
 11064  00411A  EF91  F020         	goto	i2u553_40
 11065  00411E                     i2u553_41:
 11066  00411E  EF64  F020         	goto	i2l4253
 11067  004122                     i2u553_40:
 11068  004122  0012               	return		;funcret
 11069  004124                     __end_ofi2_imprime_lcd:
 11070                           	callstack 0
 11071                           
 11072 ;; *************** function i2_strlen *****************
 11073 ;; Defined at:
 11074 ;;		line 5 in file "C:\Program Files\Microchip\xc8\v2.32\pic\sources\c99\common\strlen.c"
 11075 ;; Parameters:    Size  Location     Type
 11076 ;;  s               2    0[COMRAM] PTR const unsigned char 
 11077 ;;		 -> dbuf(80), STR_7(15), temperature(8), STR_5(12), 
 11078 ;;		 -> STR_4(12), STR_3(13), STR_2(12), STR_1(12), 
 11079 ;; Auto vars:     Size  Location     Type
 11080 ;;  a               2    2[COMRAM] PTR const unsigned char 
 11081 ;;		 -> dbuf(80), STR_7(15), temperature(8), STR_5(12), 
 11082 ;;		 -> STR_4(12), STR_3(13), STR_2(12), STR_1(12), 
 11083 ;; Return value:  Size  Location     Type
 11084 ;;                  2    0[COMRAM] unsigned int 
 11085 ;; Registers used:
 11086 ;;		wreg, fsr1l, fsr1h, status,2, status,0, tblptrl, tblptrh, tblptru
 11087 ;; Tracked objects:
 11088 ;;		On entry : 0/0
 11089 ;;		On exit  : 0/0
 11090 ;;		Unchanged: 0/0
 11091 ;; Data sizes:     COMRAM   BANK0   BANK1   BANK2   BANK3   BANK4   BANK5   BANK6   BANK7
 11092 ;;      Params:         2       0       0       0       0       0       0       0       0
 11093 ;;      Locals:         2       0       0       0       0       0       0       0       0
 11094 ;;      Temps:          0       0       0       0       0       0       0       0       0
 11095 ;;      Totals:         4       0       0       0       0       0       0       0       0
 11096 ;;Total ram usage:        4 bytes
 11097 ;; Hardware stack levels used: 1
 11098 ;; This function calls:
 11099 ;;		Nothing
 11100 ;; This function is called by:
 11101 ;;		i2_imprime_lcd
 11102 ;; This function uses a non-reentrant model
 11103 ;;
 11104                           
 11105                           	psect	text43
 11106  004390                     __ptext43:
 11107                           	callstack 0
 11108  004390                     i2_strlen:
 11109                           	callstack 19
 11110  004390  C001  F003         	movff	i2strlen@s,i2strlen@a
 11111  004394  C002  F004         	movff	i2strlen@s+1,i2strlen@a+1
 11112  004398  EFD0  F021         	goto	i2l4221
 11113  00439C                     i2l4219:
 11114  00439C  4A01               	infsnz	i2strlen@s^0,f,c
 11115  00439E  2A02               	incf	(i2strlen@s+1)^0,f,c
 11116  0043A0                     i2l4221:
 11117  0043A0  C001  FFF6         	movff	i2strlen@s,tblptrl
 11118  0043A4  C002  FFF7         	movff	i2strlen@s+1,tblptrh
 11119  0043A8  6AF8               	clrf	tblptru,c
 11120  0043AA  0E07               	movlw	(high __ramtop+-1)
 11121  0043AC  64F7               	cpfsgt	tblptrh,c
 11122  0043AE  D003               	bra	i2u549_47
 11123  0043B0  0008               	tblrd		*
 11124  0043B2  50F5               	movf	tablat,w,c
 11125  0043B4  D005               	bra	i2u549_40
 11126  0043B6                     i2u549_47:
 11127  0043B6  CFF6 FFE1          	movff	tblptrl,fsr1l
 11128  0043BA  CFF7 FFE2          	movff	tblptrh,fsr1h
 11129  0043BE  50E7               	movf	indf1,w,c
 11130  0043C0                     i2u549_40:
 11131  0043C0  0900               	iorlw	0
 11132  0043C2  A4D8               	btfss	status,2,c
 11133  0043C4  EFE6  F021         	goto	i2u550_41
 11134  0043C8  EFE8  F021         	goto	i2u550_40
 11135  0043CC                     i2u550_41:
 11136  0043CC  EFCE  F021         	goto	i2l4219
 11137  0043D0                     i2u550_40:
 11138  0043D0  5003               	movf	i2strlen@a^0,w,c
 11139  0043D2  5C01               	subwf	i2strlen@s^0,w,c
 11140  0043D4  6E01               	movwf	?i2_strlen^0,c
 11141  0043D6  5004               	movf	(i2strlen@a+1)^0,w,c
 11142  0043D8  5802               	subwfb	(i2strlen@s+1)^0,w,c
 11143  0043DA  6E02               	movwf	(?i2_strlen+1)^0,c
 11144  0043DC  0012               	return		;funcret
 11145  0043DE                     __end_ofi2_strlen:
 11146                           	callstack 0
 11147                           
 11148 ;; *************** function i2_dado_lcd *****************
 11149 ;; Defined at:
 11150 ;;		line 16 in file "./lcd.intermed.h"
 11151 ;; Parameters:    Size  Location     Type
 11152 ;;  dado            2    0[COMRAM] unsigned int 
 11153 ;; Auto vars:     Size  Location     Type
 11154 ;;		None
 11155 ;; Return value:  Size  Location     Type
 11156 ;;                  1    wreg      void 
 11157 ;; Registers used:
 11158 ;;		wreg
 11159 ;; Tracked objects:
 11160 ;;		On entry : 0/0
 11161 ;;		On exit  : 0/0
 11162 ;;		Unchanged: 0/0
 11163 ;; Data sizes:     COMRAM   BANK0   BANK1   BANK2   BANK3   BANK4   BANK5   BANK6   BANK7
 11164 ;;      Params:         2       0       0       0       0       0       0       0       0
 11165 ;;      Locals:         0       0       0       0       0       0       0       0       0
 11166 ;;      Temps:          1       0       0       0       0       0       0       0       0
 11167 ;;      Totals:         3       0       0       0       0       0       0       0       0
 11168 ;;Total ram usage:        3 bytes
 11169 ;; Hardware stack levels used: 1
 11170 ;; This function calls:
 11171 ;;		Nothing
 11172 ;; This function is called by:
 11173 ;;		i2_imprime_lcd
 11174 ;; This function uses a non-reentrant model
 11175 ;;
 11176                           
 11177                           	psect	text44
 11178  0045C4                     __ptext44:
 11179                           	callstack 0
 11180  0045C4                     i2_dado_lcd:
 11181                           	callstack 19
 11182  0045C4                     
 11183                           ;./lcd.intermed.h: 16: void dado_lcd(unsigned int dado);./lcd.intermed.h: 17: {;./lcd.in
      +                          termed.h: 18:     PORTEbits.RE2 = 1;
 11184  0045C4  8484               	bsf	132,2,c	;volatile
 11185                           
 11186                           ;./lcd.intermed.h: 19:     PORTEbits.RE1 = 1;
 11187  0045C6  8284               	bsf	132,1,c	;volatile
 11188                           
 11189                           ;./lcd.intermed.h: 20:     PORTD = dado;
 11190  0045C8  C001  FF83         	movff	i2dado_lcd@dado,3971	;volatile
 11191  0045CC                     
 11192                           ;./lcd.intermed.h: 21:     _delay((unsigned long)((2)*(4000000/4000.0)));
 11193  0045CC  0E03               	movlw	3
 11194  0045CE  6E03               	movwf	??i2_dado_lcd^0,c
 11195  0045D0  0E98               	movlw	152
 11196  0045D2                     i2u886_47:
 11197  0045D2  2EE8               	decfsz	wreg,f,c
 11198  0045D4  D7FE               	bra	i2u886_47
 11199  0045D6  2E03               	decfsz	??i2_dado_lcd^0,f,c
 11200  0045D8  D7FC               	bra	i2u886_47
 11201  0045DA                     
 11202                           ;./lcd.intermed.h: 22:     PORTEbits.RE1 = 0;
 11203  0045DA  9284               	bcf	132,1,c	;volatile
 11204  0045DC  0012               	return		;funcret
 11205  0045DE                     __end_ofi2_dado_lcd:
 11206                           	callstack 0
 11207                           
 11208 ;; *************** function i2___xxtofl *****************
 11209 ;; Defined at:
 11210 ;;		line 10 in file "C:\Program Files\Microchip\xc8\v2.32\pic\sources\c99\common\xxtofl.c"
 11211 ;; Parameters:    Size  Location     Type
 11212 ;;  sign            1    wreg     unsigned char 
 11213 ;;  val             4    0[COMRAM] long 
 11214 ;; Auto vars:     Size  Location     Type
 11215 ;;  sign            1    8[COMRAM] unsigned char 
 11216 ;;  arg             4   10[COMRAM] unsigned long 
 11217 ;;  exp             1    9[COMRAM] unsigned char 
 11218 ;; Return value:  Size  Location     Type
 11219 ;;                  4    0[COMRAM] unsigned char 
 11220 ;; Registers used:
 11221 ;;		wreg, status,2, status,0
 11222 ;; Tracked objects:
 11223 ;;		On entry : 0/0
 11224 ;;		On exit  : 0/0
 11225 ;;		Unchanged: 0/0
 11226 ;; Data sizes:     COMRAM   BANK0   BANK1   BANK2   BANK3   BANK4   BANK5   BANK6   BANK7
 11227 ;;      Params:         4       0       0       0       0       0       0       0       0
 11228 ;;      Locals:         6       0       0       0       0       0       0       0       0
 11229 ;;      Temps:          4       0       0       0       0       0       0       0       0
 11230 ;;      Totals:        14       0       0       0       0       0       0       0       0
 11231 ;;Total ram usage:       14 bytes
 11232 ;; Hardware stack levels used: 1
 11233 ;; This function calls:
 11234 ;;		Nothing
 11235 ;; This function is called by:
 11236 ;;		_alarmeTemperatura
 11237 ;; This function uses a non-reentrant model
 11238 ;;
 11239                           
 11240                           	psect	text45
 11241  003130                     __ptext45:
 11242                           	callstack 0
 11243  003130                     i2___xxtofl:
 11244                           	callstack 20
 11245                           
 11246                           ;incstack = 0
 11247                           ;i2___xxtofl@sign stored from wreg
 11248  003130  6E09               	movwf	i2___xxtofl@sign^0,c
 11249  003132  5009               	movf	i2___xxtofl@sign^0,w,c
 11250  003134  B4D8               	btfsc	status,2,c
 11251  003136  EF9F  F018         	goto	i2u559_41
 11252  00313A  EFA1  F018         	goto	i2u559_40
 11253  00313E                     i2u559_41:
 11254  00313E  EFC3  F018         	goto	i2l784
 11255  003142                     i2u559_40:
 11256  003142  BE04               	btfsc	(i2___xxtofl@val+3)^0,7,c
 11257  003144  EFA8  F018         	goto	i2u560_40
 11258  003148  EFA6  F018         	goto	i2u560_41
 11259  00314C                     i2u560_41:
 11260  00314C  EFC3  F018         	goto	i2l784
 11261  003150                     i2u560_40:
 11262  003150  C001  F005         	movff	i2___xxtofl@val,??i2___xxtofl
 11263  003154  C002  F006         	movff	i2___xxtofl@val+1,??i2___xxtofl+1
 11264  003158  C003  F007         	movff	i2___xxtofl@val+2,??i2___xxtofl+2
 11265  00315C  C004  F008         	movff	i2___xxtofl@val+3,??i2___xxtofl+3
 11266  003160  1E05               	comf	??i2___xxtofl^0,f,c
 11267  003162  1E06               	comf	(??i2___xxtofl+1)^0,f,c
 11268  003164  1E07               	comf	(??i2___xxtofl+2)^0,f,c
 11269  003166  1E08               	comf	(??i2___xxtofl+3)^0,f,c
 11270  003168  2A05               	incf	??i2___xxtofl^0,f,c
 11271  00316A  0E00               	movlw	0
 11272  00316C  2206               	addwfc	(??i2___xxtofl+1)^0,f,c
 11273  00316E  2207               	addwfc	(??i2___xxtofl+2)^0,f,c
 11274  003170  2208               	addwfc	(??i2___xxtofl+3)^0,f,c
 11275  003172  C005  F00B         	movff	??i2___xxtofl,i2___xxtofl@arg
 11276  003176  C006  F00C         	movff	??i2___xxtofl+1,i2___xxtofl@arg+1
 11277  00317A  C007  F00D         	movff	??i2___xxtofl+2,i2___xxtofl@arg+2
 11278  00317E  C008  F00E         	movff	??i2___xxtofl+3,i2___xxtofl@arg+3
 11279  003182  EFCB  F018         	goto	i2l4287
 11280  003186                     i2l784:
 11281  003186  C001  F00B         	movff	i2___xxtofl@val,i2___xxtofl@arg
 11282  00318A  C002  F00C         	movff	i2___xxtofl@val+1,i2___xxtofl@arg+1
 11283  00318E  C003  F00D         	movff	i2___xxtofl@val+2,i2___xxtofl@arg+2
 11284  003192  C004  F00E         	movff	i2___xxtofl@val+3,i2___xxtofl@arg+3
 11285  003196                     i2l4287:
 11286  003196  5001               	movf	i2___xxtofl@val^0,w,c
 11287  003198  1002               	iorwf	(i2___xxtofl@val+1)^0,w,c
 11288  00319A  1003               	iorwf	(i2___xxtofl@val+2)^0,w,c
 11289  00319C  1004               	iorwf	(i2___xxtofl@val+3)^0,w,c
 11290  00319E  A4D8               	btfss	status,2,c
 11291  0031A0  EFD4  F018         	goto	i2u561_41
 11292  0031A4  EFD6  F018         	goto	i2u561_40
 11293  0031A8                     i2u561_41:
 11294  0031A8  EFE0  F018         	goto	i2l4293
 11295  0031AC                     i2u561_40:
 11296  0031AC  0E00               	movlw	0
 11297  0031AE  6E01               	movwf	?i2___xxtofl^0,c
 11298  0031B0  0E00               	movlw	0
 11299  0031B2  6E02               	movwf	(?i2___xxtofl+1)^0,c
 11300  0031B4  0E00               	movlw	0
 11301  0031B6  6E03               	movwf	(?i2___xxtofl+2)^0,c
 11302  0031B8  0E00               	movlw	0
 11303  0031BA  6E04               	movwf	(?i2___xxtofl+3)^0,c
 11304  0031BC  EF71  F019         	goto	i2l787
 11305  0031C0                     i2l4293:
 11306  0031C0  0E96               	movlw	150
 11307  0031C2  6E0A               	movwf	i2___xxtofl@exp^0,c
 11308  0031C4  EFEA  F018         	goto	i2l4297
 11309  0031C8                     i2l4295:
 11310  0031C8  2A0A               	incf	i2___xxtofl@exp^0,f,c
 11311  0031CA  90D8               	bcf	status,0,c
 11312  0031CC  320E               	rrcf	(i2___xxtofl@arg+3)^0,f,c
 11313  0031CE  320D               	rrcf	(i2___xxtofl@arg+2)^0,f,c
 11314  0031D0  320C               	rrcf	(i2___xxtofl@arg+1)^0,f,c
 11315  0031D2  320B               	rrcf	i2___xxtofl@arg^0,f,c
 11316  0031D4                     i2l4297:
 11317  0031D4  0E00               	movlw	0
 11318  0031D6  140B               	andwf	i2___xxtofl@arg^0,w,c
 11319  0031D8  6E05               	movwf	??i2___xxtofl^0,c
 11320  0031DA  0E00               	movlw	0
 11321  0031DC  140C               	andwf	(i2___xxtofl@arg+1)^0,w,c
 11322  0031DE  6E06               	movwf	(??i2___xxtofl+1)^0,c
 11323  0031E0  0E00               	movlw	0
 11324  0031E2  140D               	andwf	(i2___xxtofl@arg+2)^0,w,c
 11325  0031E4  6E07               	movwf	(??i2___xxtofl+2)^0,c
 11326  0031E6  0EFE               	movlw	254
 11327  0031E8  140E               	andwf	(i2___xxtofl@arg+3)^0,w,c
 11328  0031EA  6E08               	movwf	(??i2___xxtofl+3)^0,c
 11329  0031EC  5005               	movf	??i2___xxtofl^0,w,c
 11330  0031EE  1006               	iorwf	(??i2___xxtofl+1)^0,w,c
 11331  0031F0  1007               	iorwf	(??i2___xxtofl+2)^0,w,c
 11332  0031F2  1008               	iorwf	(??i2___xxtofl+3)^0,w,c
 11333  0031F4  A4D8               	btfss	status,2,c
 11334  0031F6  EFFF  F018         	goto	i2u562_41
 11335  0031FA  EF01  F019         	goto	i2u562_40
 11336  0031FE                     i2u562_41:
 11337  0031FE  EFE4  F018         	goto	i2l4295
 11338  003202                     i2u562_40:
 11339  003202  EF0F  F019         	goto	i2l791
 11340  003206                     i2l4299:
 11341  003206  2A0A               	incf	i2___xxtofl@exp^0,f,c
 11342  003208  0E01               	movlw	1
 11343  00320A  260B               	addwf	i2___xxtofl@arg^0,f,c
 11344  00320C  0E00               	movlw	0
 11345  00320E  220C               	addwfc	(i2___xxtofl@arg+1)^0,f,c
 11346  003210  220D               	addwfc	(i2___xxtofl@arg+2)^0,f,c
 11347  003212  220E               	addwfc	(i2___xxtofl@arg+3)^0,f,c
 11348  003214  90D8               	bcf	status,0,c
 11349  003216  320E               	rrcf	(i2___xxtofl@arg+3)^0,f,c
 11350  003218  320D               	rrcf	(i2___xxtofl@arg+2)^0,f,c
 11351  00321A  320C               	rrcf	(i2___xxtofl@arg+1)^0,f,c
 11352  00321C  320B               	rrcf	i2___xxtofl@arg^0,f,c
 11353  00321E                     i2l791:
 11354  00321E  0E00               	movlw	0
 11355  003220  140B               	andwf	i2___xxtofl@arg^0,w,c
 11356  003222  6E05               	movwf	??i2___xxtofl^0,c
 11357  003224  0E00               	movlw	0
 11358  003226  140C               	andwf	(i2___xxtofl@arg+1)^0,w,c
 11359  003228  6E06               	movwf	(??i2___xxtofl+1)^0,c
 11360  00322A  0E00               	movlw	0
 11361  00322C  140D               	andwf	(i2___xxtofl@arg+2)^0,w,c
 11362  00322E  6E07               	movwf	(??i2___xxtofl+2)^0,c
 11363  003230  0EFF               	movlw	255
 11364  003232  140E               	andwf	(i2___xxtofl@arg+3)^0,w,c
 11365  003234  6E08               	movwf	(??i2___xxtofl+3)^0,c
 11366  003236  5005               	movf	??i2___xxtofl^0,w,c
 11367  003238  1006               	iorwf	(??i2___xxtofl+1)^0,w,c
 11368  00323A  1007               	iorwf	(??i2___xxtofl+2)^0,w,c
 11369  00323C  1008               	iorwf	(??i2___xxtofl+3)^0,w,c
 11370  00323E  A4D8               	btfss	status,2,c
 11371  003240  EF24  F019         	goto	i2u563_41
 11372  003244  EF26  F019         	goto	i2u563_40
 11373  003248                     i2u563_41:
 11374  003248  EF03  F019         	goto	i2l4299
 11375  00324C                     i2u563_40:
 11376  00324C  EF2E  F019         	goto	i2l4307
 11377  003250                     i2l4305:
 11378  003250  060A               	decf	i2___xxtofl@exp^0,f,c
 11379  003252  90D8               	bcf	status,0,c
 11380  003254  360B               	rlcf	i2___xxtofl@arg^0,f,c
 11381  003256  360C               	rlcf	(i2___xxtofl@arg+1)^0,f,c
 11382  003258  360D               	rlcf	(i2___xxtofl@arg+2)^0,f,c
 11383  00325A  360E               	rlcf	(i2___xxtofl@arg+3)^0,f,c
 11384  00325C                     i2l4307:
 11385  00325C  BE0D               	btfsc	(i2___xxtofl@arg+2)^0,7,c
 11386  00325E  EF33  F019         	goto	i2u564_41
 11387  003262  EF35  F019         	goto	i2u564_40
 11388  003266                     i2u564_41:
 11389  003266  EF3D  F019         	goto	i2l798
 11390  00326A                     i2u564_40:
 11391  00326A  0E02               	movlw	2
 11392  00326C  600A               	cpfslt	i2___xxtofl@exp^0,c
 11393  00326E  EF3B  F019         	goto	i2u565_41
 11394  003272  EF3D  F019         	goto	i2u565_40
 11395  003276                     i2u565_41:
 11396  003276  EF28  F019         	goto	i2l4305
 11397  00327A                     i2u565_40:
 11398  00327A                     i2l798:
 11399  00327A  B00A               	btfsc	i2___xxtofl@exp^0,0,c
 11400  00327C  EF42  F019         	goto	i2u566_41
 11401  003280  EF44  F019         	goto	i2u566_40
 11402  003284                     i2u566_41:
 11403  003284  EF45  F019         	goto	i2l4313
 11404  003288                     i2u566_40:
 11405  003288  9E0D               	bcf	(i2___xxtofl@arg+2)^0,7,c
 11406  00328A                     i2l4313:
 11407  00328A  90D8               	bcf	status,0,c
 11408  00328C  320A               	rrcf	i2___xxtofl@exp^0,f,c
 11409  00328E  C00A  F005         	movff	i2___xxtofl@exp,??i2___xxtofl
 11410  003292  6A06               	clrf	(??i2___xxtofl+1)^0,c
 11411  003294  6A07               	clrf	(??i2___xxtofl+2)^0,c
 11412  003296  6A08               	clrf	(??i2___xxtofl+3)^0,c
 11413  003298  C005  F008         	movff	??i2___xxtofl,??i2___xxtofl+3
 11414  00329C  6A07               	clrf	(??i2___xxtofl+2)^0,c
 11415  00329E  6A06               	clrf	(??i2___xxtofl+1)^0,c
 11416  0032A0  6A05               	clrf	??i2___xxtofl^0,c
 11417  0032A2  5005               	movf	??i2___xxtofl^0,w,c
 11418  0032A4  120B               	iorwf	i2___xxtofl@arg^0,f,c
 11419  0032A6  5006               	movf	(??i2___xxtofl+1)^0,w,c
 11420  0032A8  120C               	iorwf	(i2___xxtofl@arg+1)^0,f,c
 11421  0032AA  5007               	movf	(??i2___xxtofl+2)^0,w,c
 11422  0032AC  120D               	iorwf	(i2___xxtofl@arg+2)^0,f,c
 11423  0032AE  5008               	movf	(??i2___xxtofl+3)^0,w,c
 11424  0032B0  120E               	iorwf	(i2___xxtofl@arg+3)^0,f,c
 11425  0032B2  5009               	movf	i2___xxtofl@sign^0,w,c
 11426  0032B4  B4D8               	btfsc	status,2,c
 11427  0032B6  EF5F  F019         	goto	i2u567_41
 11428  0032BA  EF61  F019         	goto	i2u567_40
 11429  0032BE                     i2u567_41:
 11430  0032BE  EF69  F019         	goto	i2l4323
 11431  0032C2                     i2u567_40:
 11432  0032C2  BE04               	btfsc	(i2___xxtofl@val+3)^0,7,c
 11433  0032C4  EF68  F019         	goto	i2u568_40
 11434  0032C8  EF66  F019         	goto	i2u568_41
 11435  0032CC                     i2u568_41:
 11436  0032CC  EF69  F019         	goto	i2l4323
 11437  0032D0                     i2u568_40:
 11438  0032D0  8E0E               	bsf	(i2___xxtofl@arg+3)^0,7,c
 11439  0032D2                     i2l4323:
 11440  0032D2  C00B  F001         	movff	i2___xxtofl@arg,?i2___xxtofl
 11441  0032D6  C00C  F002         	movff	i2___xxtofl@arg+1,?i2___xxtofl+1
 11442  0032DA  C00D  F003         	movff	i2___xxtofl@arg+2,?i2___xxtofl+2
 11443  0032DE  C00E  F004         	movff	i2___xxtofl@arg+3,?i2___xxtofl+3
 11444  0032E2                     i2l787:
 11445  0032E2  0012               	return		;funcret
 11446  0032E4                     __end_ofi2___xxtofl:
 11447                           	callstack 0
 11448                           
 11449 ;; *************** function i2___flge *****************
 11450 ;; Defined at:
 11451 ;;		line 4 in file "C:\Program Files\Microchip\xc8\v2.32\pic\sources\c99\common\flge.c"
 11452 ;; Parameters:    Size  Location     Type
 11453 ;;  ff1             4   14[COMRAM] unsigned char 
 11454 ;;  ff2             4   18[COMRAM] unsigned char 
 11455 ;; Auto vars:     Size  Location     Type
 11456 ;;		None
 11457 ;; Return value:  Size  Location     Type
 11458 ;;		None               void
 11459 ;; Registers used:
 11460 ;;		wreg, status,2, status,0
 11461 ;; Tracked objects:
 11462 ;;		On entry : 0/0
 11463 ;;		On exit  : 0/0
 11464 ;;		Unchanged: 0/0
 11465 ;; Data sizes:     COMRAM   BANK0   BANK1   BANK2   BANK3   BANK4   BANK5   BANK6   BANK7
 11466 ;;      Params:         8       0       0       0       0       0       0       0       0
 11467 ;;      Locals:         0       0       0       0       0       0       0       0       0
 11468 ;;      Temps:          4       0       0       0       0       0       0       0       0
 11469 ;;      Totals:        12       0       0       0       0       0       0       0       0
 11470 ;;Total ram usage:       12 bytes
 11471 ;; Hardware stack levels used: 1
 11472 ;; This function calls:
 11473 ;;		Nothing
 11474 ;; This function is called by:
 11475 ;;		_controlaVelocidade
 11476 ;;		_alarmeTemperatura
 11477 ;;		_isr
 11478 ;; This function uses a non-reentrant model
 11479 ;;
 11480                           
 11481                           	psect	text46
 11482  0037E4                     __ptext46:
 11483                           	callstack 0
 11484  0037E4                     i2___flge:
 11485                           	callstack 21
 11486  0037E4  0E00               	movlw	0
 11487  0037E6  140F               	andwf	i2___flge@ff1^0,w,c
 11488  0037E8  6E17               	movwf	??i2___flge^0,c
 11489  0037EA  0E00               	movlw	0
 11490  0037EC  1410               	andwf	(i2___flge@ff1+1)^0,w,c
 11491  0037EE  6E18               	movwf	(??i2___flge+1)^0,c
 11492  0037F0  0E80               	movlw	128
 11493  0037F2  1411               	andwf	(i2___flge@ff1+2)^0,w,c
 11494  0037F4  6E19               	movwf	(??i2___flge+2)^0,c
 11495  0037F6  0E7F               	movlw	127
 11496  0037F8  1412               	andwf	(i2___flge@ff1+3)^0,w,c
 11497  0037FA  6E1A               	movwf	(??i2___flge+3)^0,c
 11498  0037FC  5017               	movf	??i2___flge^0,w,c
 11499  0037FE  1018               	iorwf	(??i2___flge+1)^0,w,c
 11500  003800  1019               	iorwf	(??i2___flge+2)^0,w,c
 11501  003802  101A               	iorwf	(??i2___flge+3)^0,w,c
 11502  003804  A4D8               	btfss	status,2,c
 11503  003806  EF07  F01C         	goto	i2u554_41
 11504  00380A  EF09  F01C         	goto	i2u554_40
 11505  00380E                     i2u554_41:
 11506  00380E  EF11  F01C         	goto	i2l4263
 11507  003812                     i2u554_40:
 11508  003812  0E00               	movlw	0
 11509  003814  6E0F               	movwf	i2___flge@ff1^0,c
 11510  003816  0E00               	movlw	0
 11511  003818  6E10               	movwf	(i2___flge@ff1+1)^0,c
 11512  00381A  0E00               	movlw	0
 11513  00381C  6E11               	movwf	(i2___flge@ff1+2)^0,c
 11514  00381E  0E00               	movlw	0
 11515  003820  6E12               	movwf	(i2___flge@ff1+3)^0,c
 11516  003822                     i2l4263:
 11517  003822  0E00               	movlw	0
 11518  003824  1413               	andwf	i2___flge@ff2^0,w,c
 11519  003826  6E17               	movwf	??i2___flge^0,c
 11520  003828  0E00               	movlw	0
 11521  00382A  1414               	andwf	(i2___flge@ff2+1)^0,w,c
 11522  00382C  6E18               	movwf	(??i2___flge+1)^0,c
 11523  00382E  0E80               	movlw	128
 11524  003830  1415               	andwf	(i2___flge@ff2+2)^0,w,c
 11525  003832  6E19               	movwf	(??i2___flge+2)^0,c
 11526  003834  0E7F               	movlw	127
 11527  003836  1416               	andwf	(i2___flge@ff2+3)^0,w,c
 11528  003838  6E1A               	movwf	(??i2___flge+3)^0,c
 11529  00383A  5017               	movf	??i2___flge^0,w,c
 11530  00383C  1018               	iorwf	(??i2___flge+1)^0,w,c
 11531  00383E  1019               	iorwf	(??i2___flge+2)^0,w,c
 11532  003840  101A               	iorwf	(??i2___flge+3)^0,w,c
 11533  003842  A4D8               	btfss	status,2,c
 11534  003844  EF26  F01C         	goto	i2u555_41
 11535  003848  EF28  F01C         	goto	i2u555_40
 11536  00384C                     i2u555_41:
 11537  00384C  EF30  F01C         	goto	i2l4267
 11538  003850                     i2u555_40:
 11539  003850  0E00               	movlw	0
 11540  003852  6E13               	movwf	i2___flge@ff2^0,c
 11541  003854  0E00               	movlw	0
 11542  003856  6E14               	movwf	(i2___flge@ff2+1)^0,c
 11543  003858  0E00               	movlw	0
 11544  00385A  6E15               	movwf	(i2___flge@ff2+2)^0,c
 11545  00385C  0E00               	movlw	0
 11546  00385E  6E16               	movwf	(i2___flge@ff2+3)^0,c
 11547  003860                     i2l4267:
 11548  003860  AE12               	btfss	(i2___flge@ff1+3)^0,7,c
 11549  003862  EF35  F01C         	goto	i2u556_41
 11550  003866  EF37  F01C         	goto	i2u556_40
 11551  00386A                     i2u556_41:
 11552  00386A  EF40  F01C         	goto	i2l4271
 11553  00386E                     i2u556_40:
 11554  00386E  6C0F               	negf	i2___flge@ff1^0,c
 11555  003870  1E10               	comf	(i2___flge@ff1+1)^0,f,c
 11556  003872  B0D8               	btfsc	status,0,c
 11557  003874  2A10               	incf	(i2___flge@ff1+1)^0,f,c
 11558  003876  1E11               	comf	(i2___flge@ff1+2)^0,f,c
 11559  003878  B0D8               	btfsc	status,0,c
 11560  00387A  2A11               	incf	(i2___flge@ff1+2)^0,f,c
 11561  00387C  0E80               	movlw	128
 11562  00387E  5612               	subfwb	(i2___flge@ff1+3)^0,f,c
 11563  003880                     i2l4271:
 11564  003880  AE16               	btfss	(i2___flge@ff2+3)^0,7,c
 11565  003882  EF45  F01C         	goto	i2u557_41
 11566  003886  EF47  F01C         	goto	i2u557_40
 11567  00388A                     i2u557_41:
 11568  00388A  EF50  F01C         	goto	i2l394
 11569  00388E                     i2u557_40:
 11570  00388E  6C13               	negf	i2___flge@ff2^0,c
 11571  003890  1E14               	comf	(i2___flge@ff2+1)^0,f,c
 11572  003892  B0D8               	btfsc	status,0,c
 11573  003894  2A14               	incf	(i2___flge@ff2+1)^0,f,c
 11574  003896  1E15               	comf	(i2___flge@ff2+2)^0,f,c
 11575  003898  B0D8               	btfsc	status,0,c
 11576  00389A  2A15               	incf	(i2___flge@ff2+2)^0,f,c
 11577  00389C  0E80               	movlw	128
 11578  00389E  5616               	subfwb	(i2___flge@ff2+3)^0,f,c
 11579  0038A0                     i2l394:
 11580  0038A0  0E00               	movlw	0
 11581  0038A2  1A0F               	xorwf	i2___flge@ff1^0,f,c
 11582  0038A4  0E00               	movlw	0
 11583  0038A6  1A10               	xorwf	(i2___flge@ff1+1)^0,f,c
 11584  0038A8  0E00               	movlw	0
 11585  0038AA  1A11               	xorwf	(i2___flge@ff1+2)^0,f,c
 11586  0038AC  0E80               	movlw	128
 11587  0038AE  1A12               	xorwf	(i2___flge@ff1+3)^0,f,c
 11588  0038B0  0E00               	movlw	0
 11589  0038B2  1A13               	xorwf	i2___flge@ff2^0,f,c
 11590  0038B4  0E00               	movlw	0
 11591  0038B6  1A14               	xorwf	(i2___flge@ff2+1)^0,f,c
 11592  0038B8  0E00               	movlw	0
 11593  0038BA  1A15               	xorwf	(i2___flge@ff2+2)^0,f,c
 11594  0038BC  0E80               	movlw	128
 11595  0038BE  1A16               	xorwf	(i2___flge@ff2+3)^0,f,c
 11596  0038C0  5013               	movf	i2___flge@ff2^0,w,c
 11597  0038C2  5C0F               	subwf	i2___flge@ff1^0,w,c
 11598  0038C4  5014               	movf	(i2___flge@ff2+1)^0,w,c
 11599  0038C6  5810               	subwfb	(i2___flge@ff1+1)^0,w,c
 11600  0038C8  5015               	movf	(i2___flge@ff2+2)^0,w,c
 11601  0038CA  5811               	subwfb	(i2___flge@ff1+2)^0,w,c
 11602  0038CC  5016               	movf	(i2___flge@ff2+3)^0,w,c
 11603  0038CE  5812               	subwfb	(i2___flge@ff1+3)^0,w,c
 11604  0038D0  B0D8               	btfsc	status,0,c
 11605  0038D2  EF6D  F01C         	goto	i2u558_41
 11606  0038D6  EF6F  F01C         	goto	i2u558_40
 11607  0038DA                     i2u558_41:
 11608  0038DA  EF72  F01C         	goto	i2l4277
 11609  0038DE                     i2u558_40:
 11610  0038DE  90D8               	bcf	status,0,c
 11611  0038E0  EF73  F01C         	goto	i2l399
 11612  0038E4                     i2l4277:
 11613  0038E4  80D8               	bsf	status,0,c
 11614  0038E6                     i2l399:
 11615  0038E6  0012               	return		;funcret
 11616  0038E8                     __end_ofi2___flge:
 11617                           	callstack 0
 11618                           
 11619                           	psect	rparam
 11620  0000                     
 11621                           	psect	temp
 11622  000041                     btemp:
 11623                           	callstack 0
 11624  000041                     	ds	1
 11625  0000                     int$flags	set	btemp
 11626  0000                     wtemp8	set	btemp+1
 11627  0000                     ttemp5	set	btemp+1
 11628  0000                     ttemp6	set	btemp+4
 11629  0000                     ttemp7	set	btemp+8
 11630                           
 11631                           	psect	idloc
 11632                           
 11633                           ;Config register IDLOC0 @ 0x200000
 11634                           ;	unspecified, using default values
 11635  200000                     	org	2097152
 11636  200000  FF                 	db	255
 11637                           
 11638                           ;Config register IDLOC1 @ 0x200001
 11639                           ;	unspecified, using default values
 11640  200001                     	org	2097153
 11641  200001  FF                 	db	255
 11642                           
 11643                           ;Config register IDLOC2 @ 0x200002
 11644                           ;	unspecified, using default values
 11645  200002                     	org	2097154
 11646  200002  FF                 	db	255
 11647                           
 11648                           ;Config register IDLOC3 @ 0x200003
 11649                           ;	unspecified, using default values
 11650  200003                     	org	2097155
 11651  200003  FF                 	db	255
 11652                           
 11653                           ;Config register IDLOC4 @ 0x200004
 11654                           ;	unspecified, using default values
 11655  200004                     	org	2097156
 11656  200004  FF                 	db	255
 11657                           
 11658                           ;Config register IDLOC5 @ 0x200005
 11659                           ;	unspecified, using default values
 11660  200005                     	org	2097157
 11661  200005  FF                 	db	255
 11662                           
 11663                           ;Config register IDLOC6 @ 0x200006
 11664                           ;	unspecified, using default values
 11665  200006                     	org	2097158
 11666  200006  FF                 	db	255
 11667                           
 11668                           ;Config register IDLOC7 @ 0x200007
 11669                           ;	unspecified, using default values
 11670  200007                     	org	2097159
 11671  200007  FF                 	db	255
 11672                           
 11673                           	psect	config
 11674                           
 11675                           ;Config register CONFIG1L @ 0x300000
 11676                           ;	unspecified, using default values
 11677                           ;	PLL Prescaler Selection bits
 11678                           ;	PLLDIV = 0x0, unprogrammed default
 11679                           ;	System Clock Postscaler Selection bits
 11680                           ;	CPUDIV = 0x0, unprogrammed default
 11681                           ;	USB Clock Selection bit (used in Full-Speed USB mode only; UCFG:FSEN = 1)
 11682                           ;	USBDIV = 0x0, unprogrammed default
 11683  300000                     	org	3145728
 11684  300000  00                 	db	0
 11685                           
 11686                           ;Config register CONFIG1H @ 0x300001
 11687                           ;	Oscillator Selection bits
 11688                           ;	FOSC = HS, HS oscillator (HS)
 11689                           ;	Fail-Safe Clock Monitor Enable bit
 11690                           ;	FCMEN = 0x0, unprogrammed default
 11691                           ;	Internal/External Oscillator Switchover bit
 11692                           ;	IESO = 0x0, unprogrammed default
 11693  300001                     	org	3145729
 11694  300001  0C                 	db	12
 11695                           
 11696                           ;Config register CONFIG2L @ 0x300002
 11697                           ;	unspecified, using default values
 11698                           ;	Power-up Timer Enable bit
 11699                           ;	PWRT = 0x1, unprogrammed default
 11700                           ;	Brown-out Reset Enable bits
 11701                           ;	BOR = 0x3, unprogrammed default
 11702                           ;	Brown-out Reset Voltage bits
 11703                           ;	BORV = 0x3, unprogrammed default
 11704                           ;	USB Voltage Regulator Enable bit
 11705                           ;	VREGEN = 0x0, unprogrammed default
 11706  300002                     	org	3145730
 11707  300002  1F                 	db	31
 11708                           
 11709                           ;Config register CONFIG2H @ 0x300003
 11710                           ;	Watchdog Timer Enable bit
 11711                           ;	WDT = OFF, WDT disabled (control is placed on the SWDTEN bit)
 11712                           ;	Watchdog Timer Postscale Select bits
 11713                           ;	WDTPS = 0xF, unprogrammed default
 11714  300003                     	org	3145731
 11715  300003  1E                 	db	30
 11716                           
 11717                           ; Padding undefined space
 11718  300004                     	org	3145732
 11719  300004  FF                 	db	255
 11720                           
 11721                           ;Config register CONFIG3H @ 0x300005
 11722                           ;	CCP2 MUX bit
 11723                           ;	CCP2MX = 0x1, unprogrammed default
 11724                           ;	PORTB A/D Enable bit
 11725                           ;	PBADEN = 0x1, unprogrammed default
 11726                           ;	Low-Power Timer 1 Oscillator Enable bit
 11727                           ;	LPT1OSC = 0x0, unprogrammed default
 11728                           ;	MCLR Pin Enable bit
 11729                           ;	MCLRE = ON, MCLR pin enabled; RE3 input pin disabled
 11730  300005                     	org	3145733
 11731  300005  83                 	db	131
 11732                           
 11733                           ;Config register CONFIG4L @ 0x300006
 11734                           ;	unspecified, using default values
 11735                           ;	Stack Full/Underflow Reset Enable bit
 11736                           ;	STVREN = 0x1, unprogrammed default
 11737                           ;	Single-Supply ICSP Enable bit
 11738                           ;	LVP = 0x1, unprogrammed default
 11739                           ;	Dedicated In-Circuit Debug/Programming Port (ICPORT) Enable bit
 11740                           ;	ICPRT = 0x0, unprogrammed default
 11741                           ;	Extended Instruction Set Enable bit
 11742                           ;	XINST = 0x0, unprogrammed default
 11743                           ;	Background Debugger Enable bit
 11744                           ;	DEBUG = 0x1, unprogrammed default
 11745  300006                     	org	3145734
 11746  300006  85                 	db	133
 11747                           
 11748                           ; Padding undefined space
 11749  300007                     	org	3145735
 11750  300007  FF                 	db	255
 11751                           
 11752                           ;Config register CONFIG5L @ 0x300008
 11753                           ;	unspecified, using default values
 11754                           ;	Code Protection bit
 11755                           ;	CP0 = 0x1, unprogrammed default
 11756                           ;	Code Protection bit
 11757                           ;	CP1 = 0x1, unprogrammed default
 11758                           ;	Code Protection bit
 11759                           ;	CP2 = 0x1, unprogrammed default
 11760                           ;	Code Protection bit
 11761                           ;	CP3 = 0x1, unprogrammed default
 11762  300008                     	org	3145736
 11763  300008  0F                 	db	15
 11764                           
 11765                           ;Config register CONFIG5H @ 0x300009
 11766                           ;	unspecified, using default values
 11767                           ;	Boot Block Code Protection bit
 11768                           ;	CPB = 0x1, unprogrammed default
 11769                           ;	Data EEPROM Code Protection bit
 11770                           ;	CPD = 0x1, unprogrammed default
 11771  300009                     	org	3145737
 11772  300009  C0                 	db	192
 11773                           
 11774                           ;Config register CONFIG6L @ 0x30000A
 11775                           ;	unspecified, using default values
 11776                           ;	Write Protection bit
 11777                           ;	WRT0 = 0x1, unprogrammed default
 11778                           ;	Write Protection bit
 11779                           ;	WRT1 = 0x1, unprogrammed default
 11780                           ;	Write Protection bit
 11781                           ;	WRT2 = 0x1, unprogrammed default
 11782                           ;	Write Protection bit
 11783                           ;	WRT3 = 0x1, unprogrammed default
 11784  30000A                     	org	3145738
 11785  30000A  0F                 	db	15
 11786                           
 11787                           ;Config register CONFIG6H @ 0x30000B
 11788                           ;	unspecified, using default values
 11789                           ;	Configuration Register Write Protection bit
 11790                           ;	WRTC = 0x1, unprogrammed default
 11791                           ;	Boot Block Write Protection bit
 11792                           ;	WRTB = 0x1, unprogrammed default
 11793                           ;	Data EEPROM Write Protection bit
 11794                           ;	WRTD = 0x1, unprogrammed default
 11795  30000B                     	org	3145739
 11796  30000B  E0                 	db	224
 11797                           
 11798                           ;Config register CONFIG7L @ 0x30000C
 11799                           ;	unspecified, using default values
 11800                           ;	Table Read Protection bit
 11801                           ;	EBTR0 = 0x1, unprogrammed default
 11802                           ;	Table Read Protection bit
 11803                           ;	EBTR1 = 0x1, unprogrammed default
 11804                           ;	Table Read Protection bit
 11805                           ;	EBTR2 = 0x1, unprogrammed default
 11806                           ;	Table Read Protection bit
 11807                           ;	EBTR3 = 0x1, unprogrammed default
 11808  30000C                     	org	3145740
 11809  30000C  0F                 	db	15
 11810                           
 11811                           ;Config register CONFIG7H @ 0x30000D
 11812                           ;	unspecified, using default values
 11813                           ;	Boot Block Table Read Protection bit
 11814                           ;	EBTRB = 0x1, unprogrammed default
 11815  30000D                     	org	3145741
 11816  30000D  40                 	db	64
 11817                           tosu	equ	0xFFF
 11818                           tosh	equ	0xFFE
 11819                           tosl	equ	0xFFD
 11820                           stkptr	equ	0xFFC
 11821                           pclatu	equ	0xFFB
 11822                           pclath	equ	0xFFA
 11823                           pcl	equ	0xFF9
 11824                           tblptru	equ	0xFF8
 11825                           tblptrh	equ	0xFF7
 11826                           tblptrl	equ	0xFF6
 11827                           tablat	equ	0xFF5
 11828                           prodh	equ	0xFF4
 11829                           prodl	equ	0xFF3
 11830                           indf0	equ	0xFEF
 11831                           postinc0	equ	0xFEE
 11832                           postdec0	equ	0xFED
 11833                           preinc0	equ	0xFEC
 11834                           plusw0	equ	0xFEB
 11835                           fsr0h	equ	0xFEA
 11836                           fsr0l	equ	0xFE9
 11837                           wreg	equ	0xFE8
 11838                           indf1	equ	0xFE7
 11839                           postinc1	equ	0xFE6
 11840                           postdec1	equ	0xFE5
 11841                           preinc1	equ	0xFE4
 11842                           plusw1	equ	0xFE3
 11843                           fsr1h	equ	0xFE2
 11844                           fsr1l	equ	0xFE1
 11845                           bsr	equ	0xFE0
 11846                           indf2	equ	0xFDF
 11847                           postinc2	equ	0xFDE
 11848                           postdec2	equ	0xFDD
 11849                           preinc2	equ	0xFDC
 11850                           plusw2	equ	0xFDB
 11851                           fsr2h	equ	0xFDA
 11852                           fsr2l	equ	0xFD9
 11853                           status	equ	0xFD8

Data Sizes:
    Strings     89
    Constant    0
    Data        4
    BSS         118
    Persistent  4
    Stack       0

Auto Spaces:
    Space          Size  Autos    Used
    COMRAM           94     34      64
    BANK0           160    151     159
    BANK1           256     24     112
    BANK2           256      0       0
    BANK3           256      0       0
    BANK4           256      0       0
    BANK5           256      0       0
    BANK6           256      0       0
    BANK7           256      0       0

Pointer List with Targets:

    strncmp@_r	PTR const unsigned char  size(2) Largest target is 3
		 -> STR_18(CODE[3]), 

    strncmp@r	PTR const unsigned char  size(2) Largest target is 3
		 -> STR_18(CODE[3]), 

    strncmp@_l	PTR const unsigned char  size(2) Largest target is 3
		 -> vfpfcnvrt@ct(BANK0[3]), 

    strncmp@l	PTR const unsigned char  size(2) Largest target is 3
		 -> vfpfcnvrt@ct(BANK0[3]), 

    strlen@s	PTR const unsigned char  size(2) Largest target is 80
		 -> dbuf(BANK1[80]), STR_7(CODE[15]), temperature(BANK1[8]), STR_5(CODE[12]), 
		 -> STR_4(CODE[12]), STR_3(CODE[13]), STR_2(CODE[12]), STR_1(CODE[12]), 

    strlen@a	PTR const unsigned char  size(2) Largest target is 80
		 -> dbuf(BANK1[80]), STR_7(CODE[15]), temperature(BANK1[8]), STR_5(CODE[12]), 
		 -> STR_4(CODE[12]), STR_3(CODE[13]), STR_2(CODE[12]), STR_1(CODE[12]), 

    strcpy@dest	PTR unsigned char  size(2) Largest target is 80
		 -> dbuf(BANK1[80]), 

    strcpy@d	PTR unsigned char  size(2) Largest target is 80
		 -> dbuf(BANK1[80]), 

    strcpy@src	PTR const unsigned char  size(2) Largest target is 80
		 -> STR_13(CODE[4]), STR_12(CODE[4]), STR_9(CODE[4]), STR_8(CODE[4]), 
		 -> dbuf(BANK1[80]), 

    strcpy@s	PTR const unsigned char  size(2) Largest target is 80
		 -> STR_13(CODE[4]), STR_12(CODE[4]), STR_9(CODE[4]), STR_8(CODE[4]), 
		 -> dbuf(BANK1[80]), 

    fputs@s	PTR const unsigned char  size(2) Largest target is 80
		 -> dbuf(BANK1[80]), 

    fputs@fp	PTR struct _IO_FILE size(2) Largest target is 7
		 -> sprintf@f(BANK1[6]), 

    fputc@fp.buffer	PTR unsigned char  size(2) Largest target is 8
		 -> temperature(BANK1[8]), 

    fputc@fp	PTR struct _IO_FILE size(2) Largest target is 7
		 -> sprintf@f(BANK1[6]), 

    atoi@s	PTR const unsigned char  size(2) Largest target is 6
		 -> STR_6(CODE[6]), 

    vfprintf@ap	PTR PTR void  size(2) Largest target is 2
		 -> sprintf@ap(BANK1[2]), 

    vfprintf@fp	PTR struct _IO_FILE size(2) Largest target is 7
		 -> sprintf@f(BANK1[6]), 

    vfprintf@fmt	PTR const unsigned char  size(2) Largest target is 6
		 -> STR_6(CODE[6]), 

    vfprintf@cfmt	PTR unsigned char  size(2) Largest target is 6
		 -> STR_6(CODE[6]), 

    vfpfcnvrt@fp	PTR struct _IO_FILE size(2) Largest target is 7
		 -> sprintf@f(BANK1[6]), 

    vfpfcnvrt@ap	PTR PTR void  size(2) Largest target is 2
		 -> sprintf@ap(BANK1[2]), 

    vfpfcnvrt@fmt	PTR PTR unsigned char  size(2) Largest target is 2
		 -> vfprintf@cfmt(BANK0[2]), 

    efgtoa@fp	PTR struct _IO_FILE size(2) Largest target is 7
		 -> sprintf@f(BANK1[6]), 

    sp__strcpy	PTR unsigned char  size(2) Largest target is 80
		 -> dbuf(BANK1[80]), 

    pad@fp	PTR struct _IO_FILE size(2) Largest target is 7
		 -> sprintf@f(BANK1[6]), 

    pad@buf	PTR unsigned char  size(2) Largest target is 80
		 -> dbuf(BANK1[80]), 

    sprintf@fmt	PTR const unsigned char  size(2) Largest target is 6
		 -> STR_6(CODE[6]), 

    sprintf@s	PTR unsigned char  size(2) Largest target is 8
		 -> temperature(BANK1[8]), 

    sprintf@ap	PTR void [1] size(2) Largest target is 2
		 -> ?_sprintf(BANK1[2]), 

    S985_IO_FILE$buffer	PTR unsigned char  size(2) Largest target is 8
		 -> temperature(BANK1[8]), 

    f.buffer	PTR unsigned char  size(2) Largest target is 8
		 -> temperature(BANK1[8]), 

    imprime_lcd@frase	PTR unsigned char  size(2) Largest target is 15
		 -> STR_7(CODE[15]), temperature(BANK1[8]), STR_5(CODE[12]), STR_4(CODE[12]), 
		 -> STR_3(CODE[13]), STR_2(CODE[12]), STR_1(CODE[12]), 


Critical Paths under _main in COMRAM

    None.

Critical Paths under _isr in COMRAM

    _isr->_alarmeTemperatura
    _controlaVelocidade->i2___flge
    _alarmeTemperatura->i2___flge
    i2_limpa_lcd->i2_comando_lcd
    i2_imprime_lcd->i2_strlen
    i2___flge->i2___xxtofl

Critical Paths under _main in BANK0

    _sprintf->_vfprintf
    _vfprintf->_vfpfcnvrt
    _vfpfcnvrt->_efgtoa
    _efgtoa->___flge
    _tolower->_isupper
    _pad->_fputs
    _fputs->_fputc
    _floorf->___fldiv
    ___flsub->___flmul
    ___flmul->___xxtofl
    ___flge->___flmul
    _atoi->_isspace
    _limpa_lcd->_comando_lcd
    _imprime_lcd->_strlen
    ___xxtofl->___wmul

Critical Paths under _isr in BANK0

    None.

Critical Paths under _main in BANK1

    _main->_sprintf
    _sprintf->_vfprintf

Critical Paths under _isr in BANK1

    None.

Critical Paths under _main in BANK2

    None.

Critical Paths under _isr in BANK2

    None.

Critical Paths under _main in BANK3

    None.

Critical Paths under _isr in BANK3

    None.

Critical Paths under _main in BANK4

    None.

Critical Paths under _isr in BANK4

    None.

Critical Paths under _main in BANK5

    None.

Critical Paths under _isr in BANK5

    None.

Critical Paths under _main in BANK6

    None.

Critical Paths under _isr in BANK6

    None.

Critical Paths under _main in BANK7

    None.

Critical Paths under _isr in BANK7

    None.

Call Graph Tables:

 ---------------------------------------------------------------------------------
 (Depth) Function   	        Calls       Base Space   Used Autos Params    Refs
 ---------------------------------------------------------------------------------
 (0) _main                                                 2     2      0   47849
                                             22 BANK1      2     2      0
                            ___flmul
                            ___fltol
                             ___wmul
                           ___xxtofl
                        _comando_lcd
                        _imprime_lcd
                          _limpa_lcd
                           _setupADC
                            _sprintf
 ---------------------------------------------------------------------------------
 (1) _sprintf                                             18    10      8   39534
                                              6 BANK1     16     8      8
                           _vfprintf
 ---------------------------------------------------------------------------------
 (2) _vfprintf                                             8     2      6   39024
                                            149 BANK0      2     2      0
                                              0 BANK1      6     0      6
                          _vfpfcnvrt
 ---------------------------------------------------------------------------------
 (3) _vfpfcnvrt                                           50    44      6   38473
                                            125 BANK0     24    18      6
                               _atoi
                             _efgtoa
                              _fputc
                            _isdigit
                            _isupper
                            _strncmp
                            _tolower
 ---------------------------------------------------------------------------------
 (4) _strncmp                                             11     5      6     595
                                              0 BANK0     11     5      6
 ---------------------------------------------------------------------------------
 (4) _efgtoa                                              68    61      7   30960
                                             57 BANK0     68    61      7
                            ___awdiv
                            ___awmod
                            ___fladd
                            ___fldiv
                             ___fleq
                             ___flge
                            ___flmul
                            ___flneg
                            ___flsub
                            ___fltol
                      ___fpclassifyf
                             _floorf
                            _isupper
                                _pad
                             _strcpy
                            _tolower
 ---------------------------------------------------------------------------------
 (4) _tolower                                              8     6      2    1142
                                              6 BANK0      8     6      2
                            _isupper
 ---------------------------------------------------------------------------------
 (5) _isupper                                              6     4      2     551
                                              0 BANK0      6     4      2
 ---------------------------------------------------------------------------------
 (5) _strcpy                                              10     6      4    1037
                                              0 BANK0     10     6      4
 ---------------------------------------------------------------------------------
 (5) _pad                                                 11     5      6    4047
                                             16 BANK0     11     5      6
                              _fputc
                              _fputs
                             _strlen
 ---------------------------------------------------------------------------------
 (6) _fputs                                                7     3      4    1537
                                              9 BANK0      7     3      4
                              _fputc
 ---------------------------------------------------------------------------------
 (4) _fputc                                                9     5      4    1037
                                              0 BANK0      9     5      4
                              _putch
 ---------------------------------------------------------------------------------
 (5) _putch                                                1     1      0       0
 ---------------------------------------------------------------------------------
 (5) _floorf                                              20    16      4     669
                                             25 BANK0     20    16      4
                            ___fldiv (ARG)
 ---------------------------------------------------------------------------------
 (5) ___fpclassifyf                                       14    10      4     375
                                              0 BANK0     14    10      4
 ---------------------------------------------------------------------------------
 (5) ___fltol                                             10     6      4     607
                                              0 BANK0     10     6      4
 ---------------------------------------------------------------------------------
 (5) ___flsub                                              8     0      8    4117
                                             45 BANK0      8     0      8
                            ___fladd
                            ___flmul (ARG)
 ---------------------------------------------------------------------------------
 (6) ___fladd                                             16     8      8    3552
                                              0 BANK0     16     8      8
 ---------------------------------------------------------------------------------
 (5) ___flneg                                              4     0      4     155
                                              0 BANK0      4     0      4
 ---------------------------------------------------------------------------------
 (5) ___flmul                                             25    17      8    3953
                                             20 BANK0     25    17      8
                             ___wmul (ARG)
                           ___xxtofl (ARG)
 ---------------------------------------------------------------------------------
 (5) ___flge                                              12     4      8    1646
                                             45 BANK0     12     4      8
                            ___flmul (ARG)
 ---------------------------------------------------------------------------------
 (5) ___fleq                                              12     4      8     770
                                              0 BANK0     12     4      8
 ---------------------------------------------------------------------------------
 (5) ___fldiv                                             25    17      8    2723
                                              0 BANK0     25    17      8
 ---------------------------------------------------------------------------------
 (5) ___awmod                                              6     2      4     613
                                              0 BANK0      6     2      4
 ---------------------------------------------------------------------------------
 (5) ___awdiv                                              8     4      4     625
                                              0 BANK0      8     4      4
 ---------------------------------------------------------------------------------
 (4) _atoi                                                15    13      2    1875
                                              7 BANK0     15    13      2
                             ___wmul
                            _isdigit
                            _isspace
 ---------------------------------------------------------------------------------
 (5) _isspace                                              7     5      2     259
                                              0 BANK0      7     5      2
 ---------------------------------------------------------------------------------
 (4) _isdigit                                              6     4      2     371
                                              0 BANK0      6     4      2
 ---------------------------------------------------------------------------------
 (5) ___wmul                                               6     2      4     592
                                              0 BANK0      6     2      4
 ---------------------------------------------------------------------------------
 (1) _setupADC                                             0     0      0       0
 ---------------------------------------------------------------------------------
 (1) _limpa_lcd                                            0     0      0     701
                        _comando_lcd
 ---------------------------------------------------------------------------------
 (2) _comando_lcd                                          3     1      2     701
                                              0 BANK0      3     1      2
 ---------------------------------------------------------------------------------
 (1) _imprime_lcd                                          9     7      2    1085
                                              4 BANK0      9     7      2
                           _dado_lcd
                             _strlen
 ---------------------------------------------------------------------------------
 (6) _strlen                                               4     2      2     310
                                              0 BANK0      4     2      2
 ---------------------------------------------------------------------------------
 (2) _dado_lcd                                             3     1      2     121
                                              0 BANK0      3     1      2
 ---------------------------------------------------------------------------------
 (1) ___xxtofl                                            14    10      4     676
                                              6 BANK0     14    10      4
                             ___wmul (ARG)
 ---------------------------------------------------------------------------------
 Estimated maximum stack depth 6
 ---------------------------------------------------------------------------------
 (Depth) Function   	        Calls       Base Space   Used Autos Params    Refs
 ---------------------------------------------------------------------------------
 (9) _isr                                                  6     6      0    4577
                                             28 COMRAM     6     6      0
                  _alarmeTemperatura
                 _controlaVelocidade
                          i2___fladd
                           i2___flge
 ---------------------------------------------------------------------------------
 (10) i2___fladd                                          16     8      8    2036
                                              0 COMRAM    16     8      8
 ---------------------------------------------------------------------------------
 (10) _controlaVelocidade                                  0     0      0     494
                           i2___flge
 ---------------------------------------------------------------------------------
 (10) _alarmeTemperatura                                   2     2      0    1553
                                             26 COMRAM     2     2      0
                           i2___flge
                         i2___xxtofl
                      i2_comando_lcd
                      i2_imprime_lcd
                        i2_limpa_lcd
 ---------------------------------------------------------------------------------
 (11) i2_limpa_lcd                                         0     0      0     152
                      i2_comando_lcd
 ---------------------------------------------------------------------------------
 (12) i2_comando_lcd                                       3     1      2     152
                                              0 COMRAM     3     1      2
 ---------------------------------------------------------------------------------
 (11) i2_imprime_lcd                                       9     7      2     381
                                              4 COMRAM     9     7      2
                         i2_dado_lcd
                           i2_strlen
 ---------------------------------------------------------------------------------
 (12) i2_strlen                                            4     2      2     116
                                              0 COMRAM     4     2      2
 ---------------------------------------------------------------------------------
 (12) i2_dado_lcd                                          3     1      2      48
                                              0 COMRAM     3     1      2
 ---------------------------------------------------------------------------------
 (11) i2___xxtofl                                         14    10      4     374
                                              0 COMRAM    14    10      4
 ---------------------------------------------------------------------------------
 (10) i2___flge                                           12     4      8     494
                                             14 COMRAM    12     4      8
                         i2___xxtofl (ARG)
 ---------------------------------------------------------------------------------
 Estimated maximum stack depth 12
 ---------------------------------------------------------------------------------

 Call Graph Graphs:

 _main (ROOT)
   ___flmul
     ___wmul (ARG)
     ___xxtofl (ARG)
       ___wmul (ARG)
   ___fltol
   ___wmul
   ___xxtofl
   _comando_lcd
   _imprime_lcd
     _dado_lcd
     _strlen
   _limpa_lcd
     _comando_lcd
   _setupADC
   _sprintf
     _vfprintf
       _vfpfcnvrt
         _atoi
           ___wmul
           _isdigit
           _isspace
         _efgtoa
           ___awdiv
           ___awmod
           ___fladd
           ___fldiv
           ___fleq
           ___flge
             ___flmul (ARG)
           ___flmul
           ___flneg
           ___flsub
             ___fladd
             ___flmul (ARG)
           ___fltol
           ___fpclassifyf
           _floorf
             ___fldiv (ARG)
           _isupper
           _pad
             _fputc
               _putch
             _fputs
               _fputc
             _strlen
           _strcpy
           _tolower
             _isupper
         _fputc
         _isdigit
         _isupper
         _strncmp
         _tolower

 _isr (ROOT)
   _alarmeTemperatura
     i2___flge
       i2___xxtofl (ARG)
     i2___xxtofl
     i2_comando_lcd
     i2_imprime_lcd
       i2_dado_lcd
       i2_strlen
     i2_limpa_lcd
       i2_comando_lcd
   _controlaVelocidade
     i2___flge
   i2___fladd
   i2___flge

 Address spaces:
Name               Size   Autos  Total    Cost      Usage
BIGRAM             7FF      0       0      21        0.0%
EEDATA             100      0       0       0        0.0%
BITBANK7           100      0       0      18        0.0%
BANK7              100      0       0      19        0.0%
BITBANK6           100      0       0      16        0.0%
BANK6              100      0       0      17        0.0%
BITBANK5           100      0       0      14        0.0%
BANK5              100      0       0      15        0.0%
BITBANK4           100      0       0      12        0.0%
BANK4              100      0       0      13        0.0%
BITBANK3           100      0       0      10        0.0%
BANK3              100      0       0      11        0.0%
BITBANK2           100      0       0       8        0.0%
BANK2              100      0       0       9        0.0%
BITBANK1           100      0       0       6        0.0%
BANK1              100     18      70       7       43.8%
BITBANK0            A0      0       0       4        0.0%
BANK0               A0     97      9F       5       99.4%
BITCOMRAM           5E      0       0       0        0.0%
COMRAM              5E     22      40       1       68.1%
BITSFR               0      0       0     200        0.0%
SFR                  0      0       0     200        0.0%
STACK                0      0       0       2        0.0%
NULL                 0      0       0       0        0.0%
ABS                  0      0     14F      20        0.0%
DATA                 0      0     14F       3        0.0%
CODE                 0      0       0       0        0.0%


Microchip Technology PIC18 Macro Assembler V2.32 build 20210201212658 
Symbol Table                                                                                   Thu Dec 02 00:29:01 2021

               ___fldiv@aexp 0078                 ___fldiv@bexp 0077   __end_of_controlaVelocidade 3F78  
               ___fldiv@sign 0070                           l61 458A                           l64 45A8  
                         l73 40A6                           l67 45EC                           l94 4544  
               ___awdiv@sign 0065          ___wmul@multiplicand 0062                          l121 2E08  
                        l129 456C                          l403 44E0                          l360 3E16  
                        l426 36DC                          l373 3EC8                          l711 2B76  
                        l713 29D6                          l722 2A1C                          l394 379C  
                        l724 2A94                          l716 299A                          l388 4022  
                        l725 2A82                          l750 266C                          l399 37E2  
                        l743 2476                          l807 433C                          l760 279C  
                        l752 26E4                          l753 26D2                          l657 1C1E  
                        l674 1D38                          l666 1EEE                          l658 1C0C  
                        l747 27DA                          l683 1E08                          l659 1BD2  
                        l851 3D14                          l684 1DF6                          l853 3D50  
                        l917 1090                          l791 306A                          l871 14C0  
                        l784 2FD2                          l848 3CD0                          l787 312E  
                        l699 446C                          l980 1972                          l973 1A2C  
                        l798 30C6                          l889 0C4E                          l986 417C  
                        l987 4184                          l997 39E6                          _PR2 000FCB  
                i2___fladd@a 0005                  i2___fladd@b 0001                   i2_dado_lcd 45C4  
                        _pad 3C8A                          _isr 0008                 ___awmod@sign 0065  
                 i2___xxtofl 3130                          wreg 000FE8                 ___flmul@aexp 0081  
               ___flmul@bexp 0086                 ___flmul@sign 0080                 ___flmul@temp 008B  
               ___flmul@prod 0087                 ___fltol@exp1 0069                         l1101 3BBC  
                       l1111 41DE                         l1026 346E                         l1035 2D8C  
                       l1116 41E6                         l1045 451A                         l1053 4298  
                       l1029 3476                         l1038 2CD0                         l1074 3C88  
                       l1082 4424                         l1091 4244                         l1059 44A6  
                       l1085 4600                         l1097 438E                         l5001 27F8  
                       l5011 282C                         l5003 27FA                         l5021 285E  
                       l5005 280A                         l5013 2834                         l5103 2AA4  
                       l5111 2AEC                         l5031 2892                         l5023 2860  
                       l5015 2844                         l5007 281A                         l5121 2B56  
                       l5113 2B06                         l5105 2AB0                         l5041 28D8  
                       l5025 2870                         l5033 289A                         l5017 284A  
                       l5009 282A                         l5201 2572                         l6001 19B8  
                       l5123 2B64                         l5115 2B1C                         l5107 2ABE  
                       l5051 2900                         l5043 28DC                         l5035 28AA  
                       l5027 2880                         l5019 2850                         l5211 25F0  
                       l5203 2582                         l6003 19CC                         l6101 30D4  
                       l6021 456E                         l5301 3DE8                         l5125 2B6A  
                       l5117 2B36                         l5109 2AE8                         l5061 294E  
                       l5037 28C0                         l5029 2890                         l5221 266A  
                       l5213 2626                         l5205 259E                         l5141 23CE  
                       l6013 19F4                         l6111 311C                         l6103 30D6  
                       l6031 45A6                         l6023 4576                         l5311 3E0E  
                       l5303 3DEA                         l5127 2B6C                         l5119 2B52  
                       l5071 2998                         l5063 295E                         l5055 2914  
                       l5039 28D0                         l5047 28F0                         l5231 26CA  
                       l5223 267C                         l5215 2634                         l5207 25AA  
                       l5151 2414                         l5143 23DE                         l5135 23B0  
                       l6015 1A1A                         l6007 19DA                         l6113 311E  
                       l6105 30DA                         l6025 4588                         l6041 45DE  
                       l5305 3DF0                         l5321 3E34                         l5081 29E6  
                       l5073 29A4                         l5065 2966                         l5057 292E  
                       l5049 2900                         l5241 2738                         l5225 268A  
                       l5217 2652                         l5209 25C6                         l5161 2440  
                       l5153 241A                         l5145 23EE                         l5137 23BE  
                       l6009 19E8                         l6033 4124                         l6121 2DA0  
                       l6107 30FE                         l6027 458C                         l6051 4086  
                       l6043 4024                         l5307 3DF6                         l5331 3E68  
                       l5323 3E38                         l5315 3E18                         l5083 29FC  
                       l5091 2A2C                         l5075 29C2                         l5067 2976  
                       l5059 293E                         l5251 27A0                         l5235 26F4  
                       l5243 273C                         l5227 268E                         l5219 265C  
                       l5171 2496                         l5163 2450                         l5155 2420  
                       l5147 23FE                         l5139 23CC                         l5411 3642  
                       l5403 3602                         l6035 412C                         l6131 2DCC  
                       l6123 2DA2                         l6109 310E                         l6029 4594  
                       l6045 402E                         l6053 451C                         l5309 3E06  
                       l5341 3EA2                         l5333 3E70                         l5325 3E46  
                       l5317 3E1E                         l5093 2A3A                         l5085 2A02  
                       l5077 29C4                         l5069 298A                         l5261 27CA  
                       l5253 27B0                         l5245 2756                         l5237 2700  
                       l5229 269C                         l5181 24D6                         l5165 2460  
                       l5157 242E                         l5149 2404                         l5421 3672  
                       l5413 3650                         l5405 362C                         l5501 2B98  
                       l6037 413A                         l6061 42FE                         l6141 2DDC  
                       l6133 2DD0                         l6125 2DC0                         l6117 2D8E  
                       ?_pad 0070                         l6071 2F7C                         l6047 4046  
                       l6055 4534                         l5271 3D52                         l5335 3E7E  
                       l5343 3EA8                         l5327 3E4E                         l5319 3E2C  
                       l5095 2A3E                         l5087 2A0C                         l5079 29D4  
                       l5351 3F78                         l5255 27BE                         l5247 276A  
                       l5239 270E                         l5191 2520                         l5183 24E2  
                       l5175 24AA                         l5167 2466                         l5159 2430  
                       l5431 369C                         l5423 367C                         l5407 362E  
                       l5511 2C84                         l5503 2BF0                         l6039 4160  
                       l6063 4306                         l6151 2E16                         l6143 2DDE  
                       l6135 2DD4                         l6127 2DC4                         l6119 2D9E  
                       l6073 2F8E                         l6049 4080                         l6057 4542  
                       l5281 3D80                         l5273 3D58                         l5345 3EB8  
                       l5337 3E94                         l5329 3E60                         l5097 2A4C  
                       l5089 2A1A                         l5361 401A                         l5353 3FA8  
                       l5257 27C0                         l5249 2784                         l5193 252C  
                       l5185 24FA                         l5177 24B6                         l5169 2486  
                       l4801 1AB0                         l5265 4426                         l5433 36AC  
                       l5409 363E                         l5521 2D6C                         l5513 2CC0  
                       l5505 2C04                         l5441 3C8A                         l5601 0A76  
                       l6065 430E                         l6161 2F00                         l6153 2E30  
                       l6145 2DE0                         l6137 2DD6                         l6129 2DC8  
                       l6091 3054                         l6083 300C                         l6075 2F9C  
                       l5531 4246                         l5291 3DAE                         l5283 3D88  
                       l5275 3D66                         l5347 3EC0                         l5339 3E9C  
                       l5099 2A7A                         l5363 4020                         l5355 3FB8  
                       l5371 371E                         l5259 27C6                         l5195 253C  
                       l5187 2506                         l5179 24C0                         l4811 1AE6  
                       l4803 1AB6                         l5267 4438                         l5435 36BC  
                       l5419 3668                         l5523 2D7C                         l5507 2C12  
                       l5515 2CF4                         l5451 3CDC                         l5443 3C98  
                       l5611 0AAA                         l6067 432A                         l6059 42EC  
                       l6171 2F54                         l6163 2F04                         l6155 2E94  
                       l6147 2E02                         l6139 2DD8                         l6093 3060  
                       l6085 3014                         l6077 2FE2                         l5533 424C  
                       l5293 3DB6                         l5285 3D8C                         l5277 3D6E  
                       l5357 3FE6                         l5381 378A                         l5373 374C  
                       l5197 2548                         l5189 2512                         l4901 1CAC  
                       l4821 1B22                         l4813 1AF6                         l4805 1AC4  
                       l5437 36CC                         l5429 3690                         l5517 2D30  
                       l5453 3CF0                         l5445 3CAC                         l5701 0F5E  
                       l5621 0B78                         l6173 2F62                         l6165 2F12  
                       l6157 2ECA                         l6149 2E06                         l6095 309C  
                       l6087 3020                         l6079 2FF8                         l5527 44E2  
                       l5535 4260                         l5295 3DC4                         l5287 3D94  
                       l5279 3D72                         l5359 3FF6                         l5383 37DA  
                       l5375 375C                         l5367 36DE                         l5199 2558  
                       l5391 44C0                         l4903 1CD2                         l4911 1D28  
                       l4831 1B40                         l4823 1B30                         l4815 1AF8  
                       l4807 1AC6                         l5471 397C                         l5463 38E8  
                       l5519 2D44                         l5455 3CF6                         l5447 3CBC  
                       l5711 100E                         l5703 0F6C                         l5631 0BFC  
                       l5623 0BAC                         l5615 0AE2                         l5551 088C  
                       l5543 085C                         l6167 2F20                         l6159 2EE6  
                       l6097 30A8                         l6089 3052                         l5537 428E  
                       l5297 3DCA                         l5289 3DA6                         l5385 37E0  
                       l5377 376A                         l5369 370E                         l5393 44D0  
                       l4921 1D7C                         l4913 1D4E                         l4905 1D06  
                       l4841 1B54                         l4833 1B44                         l4825 1B34  
                       l4809 1AD6                         l4817 1B00                         l5481 39DE  
                       l5465 3908                         l4761 3C0C                         l4753 3BBE  
                       l5457 3D22                         l5449 3CC8                         l5801 1358  
                       l5721 107C                         l5713 1042                         l5705 0F7C  
                       l5633 0C0E                         l5641 0C5A                         l5625 0BB4  
                       l5617 0B16                         l5609 0A92                         l5561 08E2  
                       l5553 08B0                         l5545 0866                         l6169 2F2E  
                       l6099 30B6                         l4771 4350                         l5539 4292  
                       l6195 33A2                         l5299 3DE0                         l5379 377C  
                       l4931 1DA6                         l4923 1D8A                         l4915 1D5E  
                       l4907 1D08                         l4851 1B68                         l4843 1B58  
                       l4835 1B48                         l4827 1B38                         l4819 1B10  
                       l5467 3948                         l5475 3988                         l4763 3C42  
                       l4755 3BD2                         l5459 3D36                         l5811 13B6  
                       l5803 1364                         l5731 1132                         l5723 1088  
                       l5715 1056                         l5707 0FB0                         l5651 0C9A  
                       l5635 0C20                         l5619 0B1C                         l5627 0BE8  
                       l5571 0910                         l5563 08F4                         l5555 08BA  
                       l5547 0876                         l4773 4380                         l5389 44A8  
                       l4941 1DD8                         l4933 1DB6                         l4925 1D8C  
                       l4909 1D18                         l4861 1BBA                         l4853 1B6C  
                       l4845 1B5C                         l4837 1B4C                         l4829 1B3C  
                       l4781 1A4A                         l5397 35D6                         l5477 399A  
                       l5469 3970                         l4757 3BE4                         l5485 41E8  
                       l5493 41BE                         l5821 1400                         l5805 136A  
                       l5813 13BC                         l5741 117C                         l5733 1144  
                       l5725 10AC                         l5709 100A                         l5717 105A  
                       l5661 0CF6                         l5653 0CD0                         l5637 0C28  
                       l5629 0BF8                         l5581 0984                         l5565 0900  
                       l5573 0916                         l5557 08C2                         l5549 0884  
                       l5901 3B2C                         l4767 433E                         l4951 1E32  
                       l4943 1DEE                         l4927 1D9A                         l4919 1D72  
                       l4935 1DB8                         l4871 1BFE                         l4863 1BCA  
                       l4847 1B60                         l4839 1B50                         l4855 1B70  
                       l4791 1A7E                         l4783 1A4C                         l5399 35EE  
                       l4759 3BEE                         l5487 41F8                         l5495 41D0  
                       l5831 1430                         l5823 140C                         l5815 13CE  
                       l5807 1392                         l5751 11B2                         l5743 118C  
                       l5735 1152                         l5727 1110                         l5719 106A  
                       l5671 0D3A                         l5663 0D08                         l5655 0CD8  
                       l5647 0C6C                         l5639 0C42                         l5583 09A0  
                       l5575 093E                         l5591 09EC                         l5567 0908  
                       l5559 08D4                         l5903 3B44                         l4769 434A  
                       l4961 1EAE                         l4953 1E6C                         l4929 1DA2  
                       l4937 1DC6                         l4873 1C00                         l4865 1BE0  
                       l4857 1B74                         l4849 1B64                         l4785 1A5C  
                       l4793 1A86                         l4777 1A2E                         l5489 4186  
                       l5841 148A                         l5825 1414                         l5817 13E8  
                       l5809 13AE                         l5761 11E6                         l5753 11B6  
                       l5745 1190                         l5729 111E                         l5737 115A  
                       l5681 0D84                         l5673 0D52                         l5665 0D16  
                       l5649 0C7E                         l5657 0CDC                         l5593 0A14  
                       l5585 09B8                         l5569 090C                         l5905 3B60  
                       l5921 150A                         l5913 14C2                         l5851 32E4  
                       l4971 1ECE                         l4963 1EB2                         l4947 1E18  
                       l4955 1E6E                         l4939 1DCA                         l4891 1C88  
                       l4883 1C50                         l4875 1C0A                         l4867 1BEC  
                       l4859 1B9E                         l4795 1A96                         l4787 1A6C  
                       l4779 1A3C                         l5499 2B78                         l5843 149A  
                       l5835 1464                         l5827 1424                         l5819 13EE  
                       l5771 1286                         l5763 11EA                         l5755 11BC  
                       l5747 1196                         l5739 116E                         l5683 0D98  
                       l5691 0E90                         l5675 0D64                         l5667 0D1A  
                       l5659 0CE4                         l5587 09C2                         l5579 0972  
                       l5907 3B72                         l5931 15A0                         l5923 152E  
                       l5915 14E6                         ?_isr 0001                         l5861 3354  
                       l5853 32FA                         l4973 1EDC                         l4965 1EC0  
                       l4957 1E7E                         l4949 1E24                         l4893 1C8C  
                       l4885 1C60                         l4877 1C2C                         l4869 1BF0  
                       l4797 1A9C                         l4789 1A7C                         l4981 43EC  
                       l5845 14A0                         l5837 1476                         l5829 142A  
                       l5781 12E4                         l5749 11A2                         l5757 11C2  
                       l5765 11F0                         l5773 128A                         l5693 0EAE  
                       l5685 0DFC                         l5669 0D2C                         l5677 0D6C  
                       l5597 0A48                         l5909 3B9A                         l5941 162C  
                       l5933 15AE                         l5925 1564                         l5917 14F4  
                       l4991 4546                         l5871 337C                         l5863 3358  
                       l5855 32FE                         l4975 1EDE                         l4967 1EC6  
                       l4959 1E8E                         l4895 1C9A                         l4887 1C6E  
                       l4879 1C3C                         l4799 1AAE                         l4983 43FE  
                       l5839 1482                         l5791 1322                         l5783 12F4  
                       l5775 12A8                         l5767 1248                         l5759 11D4  
                       l5695 0EE2                         l5687 0E54                         l5679 0D74  
                       l5599 0A5A                         l5951 16C0                         l5943 1634  
                       l5927 1572                         l5919 1506                         l4993 4564  
                       l5873 3384                         l5857 3302                         l4969 1EC8  
                       l4897 1C9C                         l4889 1C7C                         l4985 4404  
                       l5793 1332                         l5785 12F8                         l5777 12C4  
                       l5769 127E                         l5697 0F16                         l5689 0E8A  
                       l5961 174A                         l5953 16CE                         l5945 1642  
                       l5937 15F6                         l5929 1580                         l5883 342E  
                       l5875 33B8                         l5867 335E                         l5859 331E  
                       l4899 1CA6                         l4979 43DE                         l4987 446E  
                       l5795 133A                         l5787 1308                         l5779 12D6  
                       l5699 0F2A                         l5971 17E0                         l5963 175A  
                       l5947 1666                         l5939 1608                         l5885 3440  
                       l5869 3374                         l4997 27DC                         l5797 1348  
                       l5789 131A                         l5893 3AE6                         l5973 17F6  
                       l5981 1860                         l5965 178C                         l5957 1716  
                       l5949 16A0                         l5887 3452                         l5879 33F0  
                       l4999 27EA                         l5799 1350                         l5895 3B12  
                       l5991 1942                         l5983 1890                         l5975 1804  
                       l5967 179C                         l5959 1728                         l5977 1834  
                       l5969 17CE                         l5899 3B1E                         l5987 18FC  
                       l5989 190E                         l5997 1986                         l5999 19AA  
                       STR_1 0829                         STR_2 081D                         STR_3 0810  
                       STR_4 081D                         STR_5 0835                         STR_6 0841  
                       STR_7 0801                         STR_8 0847                         STR_9 084F  
                       u7000 2B36                         u7001 2B32                         u7010 2B64  
                       u7011 2B60                         u7100 2610                         u7020 23CC  
                       u7021 23C8                         u7110 266A                         u7030 23DE  
                       u6310 3BD2                         u7111 2666                         u7031 23DA  
                       u6311 3BCE                         u7200 27BE                         u7120 268A  
                       u7040 23EE                         u6400 1AAE                         u6320 3BE4  
                       u8000 0CD0                         u7201 27BA                         u7121 2686  
                       u7105 2606                         u7041 23EA                         u6401 1AAA  
                       u6321 3BE0                         u8001 0CCC                         u7210 3D66  
                       u7130 269C                         u7050 242E                         u6410 1AC4  
                       u6330 3C0C                         u8010 0CF6                         u7211 3D62  
                       u7131 2698                         u7051 242A                         u6411 1AC0  
                       u6331 3C08                         u8011 0CF2                         u7220 3D80  
                       u7300 3E7E                         u7140 26CA                         u7060 2440  
                       u6500 1BFE                         u6420 1AD6                         u6340 3C42  
                       u8100 0F6C                         u8020 0D08                         u7221 3D7C  
                       u7301 3E7A                         u7141 26C6                         u7061 243C  
                       u6501 1BFA                         u6421 1AD2                         u6341 3C3E  
                       u8101 0F68                         u8021 0D04                         u6350 4370  
                       u7230 3DA6                         u7310 3E94                         u7150 26E0  
                       u7070 2450                         u6510 1C1E                         u6430 1AE6  
                       u8110 100A                         u8030 0D16                         u7231 3DA2  
                       u7311 3E90                         u7151 26DC                         u7071 244C  
                       u6511 1C1A                         u6431 1AE2                         u8111 1006  
                       u8031 0D12                         u6360 4380                         u7240 3DC4  
                       u7320 3EB8                         u7400 37DA                         u7160 26F4  
                       u7080 2486                         u6600 1D5E                         u6520 1C2C  
                       u6440 1B22                         u8200 11D4                         u8120 1056  
                       u8040 0D2C                         u6361 437C                         u7241 3DC0  
                       u7321 3EB4                         u7401 37D6                         u7161 26F0  
                       u7081 2482                         u6601 1D5A                         u6521 1C28  
                       u6441 1B1E                         u8201 11D0                         u8121 1052  
                       u8041 0D28                         u7250 3DE0                         u7330 3FA8  
                       u7170 270E                         u7090 2496                         u7410 44C0  
                       u6610 1D8A                         u6530 1C3C                         u6450 1B30  
                       u6370 1A4A                         u8210 12A8                         u8130 107C  
                       u8050 0D3A                         u7251 3DDC                         u7331 3FA4  
                       u7171 270A                         u7091 2492                         u7411 44BC  
                       u6611 1D86                         u6531 1C38                         u6451 1B2C  
                       u6371 1A46                         u8211 12A4                         u8131 1078  
                       u8051 0D36                         u7260 3E06                         u7340 3FE6  
                       u7180 2756                         u6700 1E6C                         u6620 1D9A  
                       u6540 1C6E                         u6460 1B9E                         u6380 1A5C  
                       u7420 35EE                         u7500 3CBC                         u8300 145E  
                       u8220 12C4                         u8140 111E                         u8060 0D64  
                       i2l61 45C2                         u6357 4366                         u7261 3E02  
                       u7341 3FE2                         u7181 2752                         u6701 1E68  
                       u6621 1D96                         u6541 1C6A                         u6461 1B9A  
                       u6381 1A58                         u7421 35EA                         u7501 3CB8  
                       u8301 1458                         u8221 12C0                         u8141 111A  
                       u8061 0D60                         u7270 3E2C                         u7350 401A  
                       u7190 2784                         u6710 1E7E                         u6630 1DB6  
                       u6550 1C7C                         u6470 1BB6                         u6390 1A6C  
                       u7430 3622                         u7510 3D14                         u8310 1460  
                       u8230 12D6                         u8150 1132                         u8070 0EAE  
                       u7271 3E28                         u7351 4016                         u7191 2780  
                       u6711 1E7A                         u6631 1DB2                         u6551 1C78  
                       u6471 1BB0                         u6391 1A68                         u7511 3D10  
                       u8231 12D2                         u8151 112E                         u8071 0EAA  
                       i2l64 45DC                         u7280 3E46                         u6800 280A  
                       u7360 370E                         u6720 1E8E                         u6640 1DC6  
                       u6560 1C9A                         u6480 1BB8                         u7440 3650  
                       u7520 3D22                         u7600 4232                         u8320 1476  
                       u8240 12E4                         u8160 1144                         u8080 0F16  
                       u8400 3B12                         i2l73 4122                         u7281 3E42  
                       u6801 2806                         u7361 370A                         u6721 1E8A  
                       u6641 1DC2                         u6561 1C96                         u7441 364C  
                       u7521 3D1E                         u8321 1472                         u8241 12E0  
                       u8161 1140                         u8081 0F12                         u8401 3B0E  
                       u8330 331E                         u7290 3E60                         u6810 281A  
                       u7370 374C                         u6730 1EAE                         u6650 1DD8  
                       u6570 1CD2                         u6490 1BE0                         u7450 3664  
                       u7530 392A                         u7610 4244                         u8250 131A  
                       u8170 1152                         u8090 0F5E                         u8410 3B44  
                       i2l67 45FA                         u8331 331A                         u7291 3E5C  
                       u6811 2816                         u7371 3748                         u6731 1EAA  
                       u6651 1DD4                         u6571 1CCE                         u6491 1BDC  
                       u7451 3660                         u7435 3618                         u7611 4240  
                       u8251 1316                         u8171 114E                         u8091 0F5A  
                       u8411 3B40                         u8340 3354                         u6900 29E6  
                       u6820 285E                         u7380 376A                         u6740 1EC0  
                       u6660 1DEE                         u6580 1D18                         u7460 368C  
                       u7540 3948                         u7700 2CA4                         u7620 41B8  
                       u8260 1348                         u8180 116E                         u8420 3B60  
                       u8500 1608                         u8341 3350                         u6901 29E2  
                       u6821 285A                         u7381 3766                         u6741 1EBC  
                       u6661 1DEA                         u6581 1D14                         u7461 3688  
                       u7541 3944                         u7621 41B2                         u8261 1344  
                       u8181 116A                         u8421 3B5C                         u8501 1604  
                       u8350 3370                         u6910 29FC                         u6830 2870  
                       u7390 378A                         u6750 1EDC                         u6670 1E04  
                       u6590 1D4E                         u7470 36AC                         u7550 3970  
                       u7710 2CC0                         u7630 41BA                         u8270 13CE  
                       u8190 117C                         u8430 3B72                         u8510 162C  
                       u8351 336C                         u6911 29F8                         u6831 286C  
                       u7391 3786                         u6751 1ED8                         u6671 1E00  
                       u6591 1D4A                         u7471 36A8                         u7551 396C  
                       u7535 391E                         u7711 2CBC                         u7607 4228  
                       u8271 13CA                         u8191 1178                         u8431 3B6E  
                       u8511 1628                         u8360 3428                         u6920 2A1A  
                       u6840 2880                         u6680 1E18                         u7480 36BC  
                       u7560 399A                         u7720 2D14                         u6760 4424  
                       u7640 41D0                         u8280 13E8                         u7800 08D4  
                       u8440 3B9A                         u8600 18F6                         u8520 1666  
                       u8361 3422                         u6921 2A16                         u6841 287C  
                       u6681 1E14                         u7481 36B8                         u7561 3996  
                       u7705 2C9A                         u6761 4420                         u7641 41CC  
                       u8281 13E4                         u7801 08D0                         u8441 3B96  
                       u8601 18F0                         u8521 1662                         u8370 342A  
                       u6930 2A3A                         u6850 28C0                         u6690 1E32  
                       u7730 2D30                         u7650 2BC2                         u7490 3C98  
                       u6770 44A0                         u8290 1400                         u7810 08E2  
                       u8610 18F8                         u8530 1710                         u8450 14E6  
                       u6931 2A36                         u6851 28BC                         u6691 1E2E  
                       u7731 2D2C                         u7491 3C94                         u6771 449A  
                       u8291 13FC                         u7811 08DE                         u8531 170A  
                       u8451 14E2                         u8700 304E                         u8380 3440  
                       u6940 2A4C                         u6860 2900                         u7580 39D4  
                       u7740 2D6C                         u7660 2BF0                         u6780 44A2  
                       u7900 0A5A                         u7820 08F4                         u8620 190E  
                       u8540 1712                         u8460 152E                         u8701 304A  
                       u8381 343C                         u6941 2A48                         u6861 28FC  
                       u7581 39CE                         u7741 2D68                         u7725 2D0A  
                       u7661 2BEC                         u7901 0A56                         u7821 08F0  
                       u8621 190A                         u8461 152A                         u8710 3098  
                       u7750 4514                         u8390 3452                         u6950 2A7A  
                       u6870 2976                         u6790 27F8                         u7590 39D6  
                       u7670 2C12                         u7910 0ADE                         u7830 093E  
                       u8630 19AA                         u8550 1728                         u8470 1572  
                       u8711 3094                         u7751 450E                         u8391 344E  
                       u6951 2A76                         u6871 2972                         u6791 27F4  
                       u7575 39AC                         u7671 2C0E                         u7655 2BB8  
                       u7911 0ADA                         u7831 093A                         u8631 19A6  
                       u8551 1724                         u8471 156E                         u8720 30B6  
                       u7760 4516                         u6960 2A90                         u6880 2998  
                       u7920 0B74                         u7840 096C                         u8560 175A  
                       u8480 15F0                         u8640 417C                         u8721 30B2  
                       u6961 2A8C                         u6881 2994                         u7921 0B70  
                       u7841 0966                         u8561 1756                         u8481 15EA  
                       u8641 4178                         u8730 30C6                         u8650 4072  
                       u7770 4260                         u6970 2AA4                         u6890 29C2  
                       u7690 2C80                         u7930 0BE8                         u7850 096E  
                       u8570 179C                         u8490 15F2                         u8731 30C2  
                       u7771 425C                         u6971 2AA0                         u6891 29BE  
                       u7691 2C7C                         u7931 0BE4                         u8571 1798  
                       u8740 30D4                         u8660 40A6                         u7780 428E  
                       u6980 2ABE                         u7940 0C0E                         u7860 0984  
                       u8580 17E0                         u8741 30D0                         u8661 40A2  
                       u7781 428A                         u6981 2ABA                         u7685 2C26  
                       u7941 0C0A                         u7861 0980                         u8581 17DC  
                       u8750 310E                         u8670 2F8E                         u6990 2B06  
                       u7686 2C30                         u7950 0C20                         u7870 0A14  
                       u7790 0884                         u8590 1890                         u8751 310A  
                       u8671 2F8A                         u8807 459C                         u6991 2B02  
                       u7687 2C40                         u7951 0C1C                         u7871 0A10  
                       u7791 0880                         u8591 188C                         u8760 311C  
                       u8680 2F9C                         u7960 0C42                         u7880 0A42  
                       u8761 3118                         u8681 2F98                         u8657 4068  
                       u7961 0C3E                         u7881 0A3C                         u8690 2FF8  
                       u7970 0C68                         u7890 0A44                         u8770 2E16  
                       u8691 2FF4                         u7971 0C64                         u8771 2E12  
                       u7980 0C7E                         u7981 0C7A                         u7990 0C9A  
                       u7991 0C96                         u8787 2EF2                         u8797 457E  
                       _TMR2 000FCC                 i2___flge@ff1 000F                 i2___flge@ff2 0013  
                       _dbuf 0100                         _atoi 32E4                         _main 2D8E  
                       _prec 00FB                         _nout 00F7                         pad@i 0077  
                       pad@p 0074                         fsr1h 000FE2                         fsr2h 000FDA  
                       indf1 000FE7                         indf2 000FDF                         fsr1l 000FE1  
                       pad@w 0079                         fsr2l 000FD9                         btemp 0041  
              ___fpclassifyf 38E8                         prodh 000FF4                         prodl 000FF3  
       i2comando_lcd@comando 0001                         start 000E              ___fldiv@new_exp 0071  
               _tolower$1266 006C                 ___param_bank 000000                        ??_pad 0076  
                      ??_isr 001D                ___fltol@sign1 0068                        ?_atoi 0067  
            __end_of___fladd 1EF0                        ?_main 0001              __end_of___fldiv 2B78  
            __end_of___awdiv 3E18              __end_of___flneg 44E2                        STR_12 084B  
                      STR_13 0853                        STR_16 0857                        STR_18 0857  
            __end_of___awmod 3ECA              __end_of___flmul 27DC              __end_of___flsub 446E  
            __end_of___fltol 36DE                        _T0CON 000FD5              ___awdiv@divisor 0062  
                      _T2CON 000FCA                        i2l101 3F76                        i2l106 35D4  
                      i2l115 3ACA                        i2l394 38A0                        i2l399 38E6  
                      i2l657 20DE                        i2l674 21F8                        i2l666 23AE  
                      i2l658 20CC                        i2l683 22C8                        i2l659 2092  
                      i2l684 22B6                        i2l791 321E                        i2l784 3186  
                      i2l787 32E2              ___awdiv@counter 0064                        i2l798 327A  
               vfpfcnvrt@fmt 00DF                        _TMR0L 000FD6                        _PORTC 000F82  
                      _PORTD 000F83                        _TRISA 000F92                        _TRISC 000F94  
                      _TRISD 000F95                        _TRISE 000F96           i2imprime_lcd@frase 0005  
              i2___fladd@grs 0010                        _flags 002F                        _fputc 3BBE  
                      _fputs 43DE              __end_of_isdigit 451C                        atoi@n 0074  
                      pad@fp 0070                        atoi@s 0067                        _width 00F9  
                      _putch 4600                  i2_limpa_lcd 45EE              __end_of_isspace 429A  
            __end_of_isupper 44A8             __end_ofi2___flge 38E8                        tablat 000FF5  
                      ttemp5 0042                        ttemp6 0045                        ttemp7 0049  
               ?_imprime_lcd 0064                        status 000FD8                        wtemp8 0042  
            __end_of_sprintf 433E               ?___fpclassifyf 0060              __end_of_tolower 41E8  
            __end_of_strncmp 3BBE           __size_ofi2___fladd 04C0             __end_ofi2_strlen 43DE  
           _velocidadeCooler 002B              __initialization 429A            _alarmeTemperatura 3478  
               __end_of_atoi 3478                 __end_of_main 2F78           ?_alarmeTemperatura 0001  
                     ??_atoi 0069                       ??_main 016E                __activetblptr 000002  
                ?i2_dado_lcd 0001          ??_alarmeTemperatura 001B                  ?i2___xxtofl 0001  
                     _ADCON0 000FC2                       _ADCON1 000FC1                       ?_fputc 0060  
                     ?_fputs 0069                       _ADRESH 000FC4                       _ADRESL 000FC3  
                     _CCPR1L 000FBE             ___awdiv@dividend 0060                       ?_putch 0001  
                     i2l1097 43DC                       i2l4211 45C4                       i2l4301 3208  
                     i2l4213 45CC                       i2l4221 43A0                       i2l4205 45AA  
                     i2l4311 3288                       i2l4303 3214                       i2l4215 45DA  
                     i2l4223 43D0                       i2l4207 45B2                       i2l4321 32D0  
                     i2l4313 328A                       i2l4305 3250                       i2l4217 4390  
                     i2l4209 45C0                       i2l4323 32D2                       i2l4315 328E  
                     i2l4307 325C                       i2l4219 439C                       i2l4251 40B0  
                     i2l4261 3812                       i2l4317 32B2                       i2l4309 326A  
                     i2l4253 40C8                       i2l4501 2000                       i2l4271 3880  
                     i2l4263 3822                       i2l4319 32C2                       i2l4255 4100  
                     i2l4247 45EE                       i2l4351 3F34                       i2l4511 2014  
                     i2l4503 2004                       i2l4273 388E                       i2l4265 3850  
                     i2l4281 3132                       i2l4257 4104                       i2l4249 40A8  
                     i2l4361 34C6                       i2l4353 3F3E                       i2l4345 3ECA  
                     i2l4601 2266                       i2l4521 2028                       i2l4513 2018  
                     i2l4505 2008                       i2l4275 38DE                       i2l4267 3860  
                     i2l4259 37E4                       i2l4283 3142                       i2l4371 350C  
                     i2l4363 34DC                       i2l4355 3F70                       i2l4347 3EFC  
                     i2l4611 2298                       i2l4603 2276                       i2l4531 207A  
                     i2l4523 202C                       i2l4515 201C                       i2l4507 200C  
                     i2l4451 1F0A                       i2l4277 38E4                       i2l4269 386E  
                     i2l4293 31C0                       i2l4285 3150                       i2l4381 3596  
                     i2l4365 34E8                       i2l4373 3526                       i2l4357 3478  
                     i2l4349 3F02                       i2l4621 22F2                       i2l4613 22AE  
                     i2l4605 2278                       i2l4541 20BE                       i2l4533 208A  
                     i2l4517 2020                       i2l4509 2010                       i2l4525 2030  
                     i2l4461 1F3E                       i2l4453 1F0C                       i2l4295 31C8  
                     i2l4287 3196                       i2l4383 35A2                       i2l4375 3570  
                     i2l4367 34F4                       i2l4359 34C2                       i2l4631 236E  
                     i2l4623 232C                       i2l4607 2286                       i2l4543 20C0  
                     i2l4535 20A0                       i2l4527 2034                       i2l4519 2024  
                     i2l4471 1F70                       i2l4455 1F1C                       i2l4463 1F46  
                     i2l4447 1EF0                       i2l4297 31D4                       i2l4289 31AC  
                     i2l4385 35AE                       i2l4377 3574                       i2l4369 3500  
                     i2l4641 238E                       i2l4633 2372                       i2l4617 22D8  
                     i2l4625 232E                       i2l4609 228A                       i2l4561 2148  
                     i2l4553 2110                       i2l4545 20CA                       i2l4537 20AC  
                     i2l4529 205E                       i2l4481 1FA6                       i2l4473 1F76  
                     i2l4465 1F56                       i2l4457 1F2C                       i2l4449 1EFC  
                     i2l4299 3206                       i2l4387 35BA                       i2l4379 358A  
                     i2l4643 239C                       i2l4635 2380                       i2l4627 233E  
                     i2l4619 22E4                       i2l4563 214C                       i2l4555 2120  
                     i2l4547 20EC                       i2l4571 216C                       i2l4539 20B0  
                     i2l4491 1FE2                       i2l4483 1FB6                       i2l4475 1F84  
                     i2l4467 1F5C                       i2l4459 1F3C                       i2l4651 3A10  
                     i2l4645 239E                       i2l4637 2386                       i2l4629 234E  
                     i2l4573 2192                       i2l4581 21E8                       i2l4565 215A  
                     i2l4557 212E                       i2l4549 20FC                       i2l4493 1FF0  
                     i2l4485 1FB8                       i2l4477 1F86                       i2l4469 1F6E  
                     i2l4661 3A94                       i2l4653 3A12                       i2l4639 2388  
                     i2l4591 223C                       i2l4583 220E                       i2l4575 21C6  
                     i2l4567 215C                       i2l4559 213C                       i2l4495 1FF4  
                     i2l4479 1F96                       i2l4487 1FC0                       i2l4671 3AC4  
                     i2l4663 3A98                       i2l4655 3A44                       i2l4593 224A  
                     i2l4585 221E                       i2l4577 21C8                       i2l4569 2166  
                     i2l4497 1FF8                       i2l4489 1FD0                       i2l4673 3AC8  
                     i2l4665 3AB4                       i2l4657 3A78                       i2l4649 3A02  
                     i2l4595 224C                       i2l4579 21D8                       i2l4499 1FFC  
                     i2l4667 3AB8                       i2l4659 3A86                       i2l4597 225A  
                     i2l4589 2232                       i2l4669 3AC0                       i2l4599 2262  
                     _TMR2IF 007CF1             __end_of_dado_lcd 45AA          i2imprime_lcd@indice 000C  
           __end_of___xxtofl 3130    __end_of_alarmeTemperatura 35D6               i2___fladd@aexp 000E  
             i2___fladd@bexp 000F         __size_of_comando_lcd 001E                 vfprintf@cfmt 00F5  
                     ___flge 36DE                       ___fleq 3F78                    ??___fladd 0068  
                     ___wmul 4546                    ??___fldiv 0068                    ??___awdiv 0064  
                  ??___flneg 0064                    ??___awmod 0064                    ??___flmul 007C  
                  ??___flsub 0095                    ??___fltol 0064                       _efgtoa 085C  
                     _floorf 2B78                       clear_0 42C0                       clear_1 42CC  
                     clear_2 42D8             ___awdiv@quotient 0066              ___awmod@divisor 0062  
                     isa$std 000001                       _tensao 0035              ___awmod@counter 0064  
                     pad@buf 0072                       _strcpy 41E8                       _strlen 433E  
                     fputc@c 0060                       fputs@c 006D                       fputs@i 006E  
               __pdataCOMRAM 003D                       fputs@s 0069            __end_ofi2___fladd 23B0  
                  ??_isdigit 0062             __end_of_setupADC 4546       __size_ofi2_comando_lcd 001A  
            ___fpclassifyf@e 0068              ___fpclassifyf@u 006A              ___fpclassifyf@x 0060  
               __mediumconst 0000                    ??_isspace 0062                       tblptrh 000FF7  
                  ??_isupper 0062                       tblptrl 000FF6                       tblptru 000FF8  
                     putch@c 0001             __end_of_vfprintf 4186                    ??_sprintf 00F7  
                  ??_tolower 0068                    ??_strncmp 0066                   ___flge@ff1 008D  
                 ___flge@ff2 0091              ??___fpclassifyf 0064                 ___xxtofl@arg 0070  
               ___xxtofl@exp 006F                 ___xxtofl@val 0066                   ___fleq@ff1 0060  
                 ___fleq@ff2 0064                   __accesstop 0060      __end_of__initialization 42DE  
                 ___flneg@f1 0060                ___rparam_used 000001                   ___fltol@f1 0060  
        __size_ofi2_dado_lcd 001A          __size_ofi2___xxtofl 01B4               __pcstackCOMRAM 0001  
              __end_of_fputc 3C8A                __end_of_fputs 4426                __end_of_putch 4602  
                  ?i2___flge 000F           _controlaVelocidade 3ECA                    ?i2_strlen 0001  
                    ??_fputc 0064                      ??_fputs 006D                      ??_putch 0060  
                 __pbssBANK0 00F7                   __pbssBANK1 0100          ?_controlaVelocidade 0001  
                 __pnvCOMRAM 0039   __size_of_alarmeTemperatura 015E                i2_comando_lcd 45AA  
       __size_of_imprime_lcd 0084           __size_of_limpa_lcd 0010                      ?___flge 008D  
                    ?___fleq 0060                      ?___wmul 0060                      ?_efgtoa 0099  
                    _CCP1CON 000FBD                      ?_floorf 0079         ??_controlaVelocidade 001B  
                 ??i2___flge 0017                      ?_strcpy 0060                      ?_strlen 0060  
                  ?_dado_lcd 0060       __size_ofi2_imprime_lcd 007C                    ?___xxtofl 0066  
         __size_of_vfpfcnvrt 056C                   ??i2_strlen 0003                 ?i2_limpa_lcd 0001  
       i2imprime_lcd@tamanho 000A               ?i2_comando_lcd 0001              i2___fladd@signs 000D  
                    __Hparam 0000                      __Lparam 0000                    ?_setupADC 0001  
            __size_of___flge 0106              __size_of___fleq 00AC                      ___fladd 1A2E  
                    ___fldiv 27DC                      ___awdiv 3D52                      ___flneg 44A8  
                    ___awmod 3E18                      ___flmul 23B0                      ___flsub 4426  
                    ___fltol 35D6              __size_of___wmul 0028                    ?_vfprintf 0158  
               __psmallconst 0800              __size_of_efgtoa 0C66              __size_of_floorf 0216  
                    __pcinit 429A                      __ramtop 0800                      __ptext0 2D8E  
                    __ptext1 42EC                      __ptext2 4124                      __ptext3 14C2  
                    __ptext4 3AE6                      __ptext5 085C                      __ptext6 4186  
                    __ptext7 446E                      __ptext8 41E8                      __ptext9 3C8A  
            __size_of_strcpy 005E              __size_of_strlen 0052                 ??i2_dado_lcd 0003  
                 ??_dado_lcd 0062                 __size_of_pad 00C8                      _isdigit 44E2  
               __size_of_isr 3ADE                 ??i2___xxtofl 0005                   ??___xxtofl 006A  
           ___awmod@dividend 0060            __end_of_limpa_lcd 45EE                      _isspace 4246  
                    _isupper 446E                      efgtoa@c 009F                      efgtoa@d 00BD  
                    efgtoa@e 00D5                      efgtoa@f 009B                      efgtoa@g 00D1  
                    efgtoa@h 00C7                      efgtoa@i 00CF                      efgtoa@l 00CB  
                    efgtoa@m 00B7                      efgtoa@n 00D7                      efgtoa@p 00C1  
                    efgtoa@t 00B1                      efgtoa@u 00D9                      efgtoa@w 00C3  
                    atoi@neg 006D                      _sprintf 42EC                      _tolower 4186  
                    _strncmp 3AE6               __pintcode_body 39E8         end_of_initialization 42DE  
                    floorf@e 0087                      floorf@m 0083                      floorf@u 0089  
                    floorf@x 0079                      fputc@fp 0062                __Lmediumconst 0000  
                    int_func 39E8                      fputs@fp 006B               i2___xxtofl@arg 000B  
             i2___xxtofl@exp 000A                i2_imprime_lcd 40A8               i2___xxtofl@val 0001  
         __end_ofi2_dado_lcd 45DE            __end_of_vfpfcnvrt 1A2E                   ??_setupADC 0060  
                 efgtoa@mode 00C6                   efgtoa@sign 00BF           __end_ofi2___xxtofl 32E4  
                    postdec1 000FE5                      postdec2 000FDD                      postinc0 000FEE  
                    postinc1 000FE6                      postinc2 000FDE                   ??_vfprintf 00F5  
                    strcpy@d 0068                      strlen@a 0062                      strcpy@s 0066  
                    strlen@s 0060                    _PORTAbits 000F80                    _PORTEbits 000F84  
          imprime_lcd@indice 006B                  ___fladd@grs 006F                ___xxtofl@sign 006E  
                  _TRISCbits 000F94                  ___fldiv@grs 0073                  ___fldiv@rem 006C  
                  i2___fladd 1EF0              ??i2_comando_lcd 0003                  ___flmul@grs 0082  
               dado_lcd@dado 0060                ??_comando_lcd 0062               ?i2_imprime_lcd 0005  
             __end_of___flge 37E4               __end_of___fleq 4024                  vfpfcnvrt@ap 00E1  
                vfpfcnvrt@ct 00F1                  vfpfcnvrt@fp 00DD               __end_of___wmul 456E  
              __pidataCOMRAM 45FC               __end_of_efgtoa 14C2               __end_of_floorf 2D8E  
                 floorf@F527 0023               __end_of_strcpy 4246               __end_of_strlen 4390  
          __size_ofi2___flge 0104          start_initialization 429A                  __end_of_pad 3D52  
                __end_of_isr 3AE6                   ?i2___fladd 0001            __size_ofi2_strlen 004E  
                  i2strlen@a 0003                    i2strlen@s 0001         __size_ofi2_limpa_lcd 000E  
      __end_of___fpclassifyf 39E8                  vfprintf@fmt 015A                     ??___flge 0095  
                   ??___fleq 0068          __end_of_comando_lcd 458C                     ??___wmul 0064  
                   ??_efgtoa 00A0                     ??_floorf 007D                     ??_strcpy 0064  
                   ??_strlen 0062                    ___fladd@a 0064                    ___fladd@b 0060  
                  ___fldiv@a 0064                    ___fldiv@b 0060                    ___flmul@a 0078  
                  ___flmul@b 0074                  __pbssCOMRAM 0023                    ___flsub@a 0091  
                  ___flsub@b 008D                __pcstackBANK0 0060                __pcstackBANK1 0158  
          __size_of_dado_lcd 001E            __size_of___xxtofl 01B8               _temperaturaMax 003F  
             _temperaturaMin 003D              ??i2_imprime_lcd 0007                ??_imprime_lcd 0066  
                  _atoi$1171 006F                    _atoi$1172 0073                    _atoi$1173 0071  
         comando_lcd@comando 0060                  _efgtoa$1112 00A9                  _efgtoa$1106 00A5  
                _efgtoa$1107 00A7                  _efgtoa$1116 00AB                  _efgtoa$1117 00AD  
                _efgtoa$1118 00AF                    __pintcode 0008                     ?___fladd 0060  
                   ?___fldiv 0060                     ?___awdiv 0060                     ?___flneg 0060  
                   ?___awmod 0060                     ?___flmul 0074                     ?___flsub 008D  
                   ?___fltol 0060            __size_of_setupADC 002A  __size_of_controlaVelocidade 00AE  
          __size_of_vfprintf 0062                  __smallconst 0800                     ?_isdigit 0060  
                   ?_isspace 0060                     ?_isupper 0060                  ??i2___fladd 0009  
                   ?_sprintf 015E                     ?_tolower 0066               __size_of_fputc 00CC  
             __size_of_fputs 0048                     ?_strncmp 0060                    _limpa_lcd 45DE  
             __size_of_putch 0002               ___wmul@product 0064                  _comando_lcd 456E  
             i2dado_lcd@dado 0001                     i2u600_40 20DE                     i2u600_41 20DA  
                   i2u601_40 20EC                     i2u601_41 20E8                     i2u610_40 224A  
                   i2u602_40 20FC                     i2u610_41 2246                     i2u602_41 20F8  
                   i2u611_40 225A                     i2u603_40 212E                     i2u611_41 2256  
                   i2u603_41 212A                     i2u620_40 233E                     i2u612_40 2276  
                   i2u604_40 213C                     i2u620_41 233A                     i2u612_41 2272  
                   i2u604_41 2138                     i2u621_40 234E                     i2u613_40 2286  
                   i2u605_40 215A                     i2u621_41 234A                     i2u613_41 2282  
                   i2u605_41 2156                     i2u550_40 43D0                     i2u622_40 236E  
                   i2u614_40 2298                     i2u606_40 2192                     i2u550_41 43CC  
                   i2u622_41 236A                     i2u614_41 2294                     i2u606_41 218E  
                   i2u623_40 2380                     i2u615_40 22AE                     i2u607_40 21D8  
                   i2u623_41 237C                     i2u615_41 22AA                     i2u607_41 21D4  
                   i2u560_40 3150                     i2u552_40 40F4                     i2u624_40 239C  
                   i2u616_40 22C4                     i2u608_40 220E                     i2u560_41 314C  
                   i2u624_41 2398                     i2u616_41 22C0                     i2u608_41 220A  
                   i2u552_47 40EA                     i2u561_40 31AC                     i2u553_40 4122  
                   i2u617_40 22D8                     i2u609_40 221E                     i2u625_40 3A10  
                   i2u561_41 31A8                     i2u553_41 411E                     i2u617_41 22D4  
                   i2u609_41 221A                     i2u625_41 3A0C                     i2u554_40 3812  
                   i2u562_40 3202                     i2u618_40 22F2                     i2u626_40 3A44  
                   i2u554_41 380E                     i2u562_41 31FE                     i2u618_41 22EE  
                   i2u626_41 3A40                     i2u555_40 3850                     i2u563_40 324C  
                   i2u571_40 3EFC                     i2u619_40 232C                     i2u627_40 3A86  
                   i2u555_41 384C                     i2u563_41 3248                     i2u571_41 3EF8  
                   i2u619_41 2328                     i2u627_41 3A82                     i2u556_40 386E  
                   i2u564_40 326A                     i2u572_40 3F34                     i2u628_40 3A94  
                   i2u556_41 386A                     i2u564_41 3266                     i2u572_41 3F30  
                   i2u628_41 3A90                     i2u557_40 388E                     i2u565_40 327A  
                   i2u549_40 43C0                     i2u573_40 3F70                     i2u629_40 3AB4  
                   i2u557_41 388A                     i2u565_41 3276                     i2u573_41 3F6C  
                   i2u629_41 3AB0                     i2u549_47 43B6                     i2u558_40 38DE  
                   i2u566_40 3288                     i2u574_40 34C2                     i2u590_40 1F84  
                   i2u558_41 38DA                     i2u566_41 3284                     i2u574_41 34BE  
                   i2u590_41 1F80                     i2u567_40 32C2                     i2u559_40 3142  
                   i2u575_40 3570                     i2u591_40 1F96                     i2u567_41 32BE  
                   i2u559_41 313E                     i2u575_41 356C                     i2u591_41 1F92  
                   i2u568_40 32D0                     i2u592_40 1FA6                     i2u568_41 32CC  
                   i2u592_41 1FA2                     i2u593_40 1FE2                     i2u593_41 1FDE  
                   i2u594_40 1FF0                     i2u586_40 1F0A                     i2u594_41 1FEC  
                   i2u586_41 1F06                     i2u595_40 205E                     i2u587_40 1F1C  
                   i2u595_41 205A                     i2u587_41 1F18                     i2u596_40 2076  
                   i2u588_40 1F2C                     i2u596_41 2070                     i2u588_41 1F28  
                   i2u597_40 2078                     i2u589_40 1F6E                     i2u589_41 1F6A  
                   i2u598_40 20A0                     i2u598_41 209C                     i2u599_40 20BE  
                   i2u599_41 20BA                     i2u881_47 34D0          __end_of_imprime_lcd 40A8  
                   i2u882_47 3516                     i2u883_47 357E                     i2u884_47 35C4  
                   i2u885_47 45B8                     i2u886_47 45D2             imprime_lcd@frase 0064  
                  _vfpfcnvrt 14C2                   _ADCON0bits 000FC2                   _ADCON2bits 000FC0  
                   i2___flge 37E4            ___wmul@multiplier 0060                  _contadorInt 0031  
               _isspace$1202 0066                     i2_strlen 4390                   vfpfcnvrt@c 00F4  
                 vfpfcnvrt@f 00ED                  _INTCON2bits 000FF1                  _INTCON3bits 000FF0  
                  copy_data0 42AE                   ?_limpa_lcd 0001                     __Hrparam 0000  
                 vfprintf@ap 015C                     __Lrparam 0000                   vfprintf@fp 0158  
           __size_of___fladd 04C2             __size_of___fldiv 039C             __size_of___awdiv 00C6  
           __size_of___flneg 003A             __size_of___awmod 00B2             __size_of___flmul 042C  
           __size_of___flsub 0048             __size_of___fltol 0108                   ?_vfpfcnvrt 00DD  
         ___fpclassifyf@F465 0027                     _dado_lcd 458C                   sprintf@fmt 0160  
                   ___xxtofl 2F78             __size_of_isdigit 003A             __size_of_isspace 0054  
                   __ptext10 43DE                     __ptext11 3BBE                     __ptext20 36DE  
                   __ptext12 4600                     __ptext21 3F78                     __ptext13 2B78  
                   __ptext30 45DE                     __ptext22 27DC                     __ptext14 38E8  
                   __ptext31 456E                     __ptext23 3E18                     __ptext15 35D6  
                   __ptext40 45EE                     __ptext32 4024                     __ptext24 3D52  
                   __ptext16 4426                     __ptext41 45AA                     __ptext33 433E  
                   __ptext25 32E4                     __ptext17 1A2E                     __ptext42 40A8  
                   __ptext34 458C                     __ptext26 4246                     __ptext18 44A8  
                   __ptext43 4390                     __ptext35 2F78                     __ptext27 44E2  
                   __ptext19 23B0                     __ptext44 45C4                     __ptext28 4546  
                   __ptext45 3130                     __ptext37 1EF0                     __ptext29 451C  
                   __ptext46 37E4                     __ptext38 3ECA                     __ptext39 3478  
           __size_of_isupper 003A                     _contador 00FD             __size_of_sprintf 0052  
           __size_of_tolower 0062                   strcpy@dest 0060             __size_of_strncmp 00D8  
                _imprime_lcd 4024                __size_of_atoi 0194                __size_of_main 01EA  
      __end_ofi2_comando_lcd 45C4                     efgtoa@fp 0099                     efgtoa@ne 00B5  
                   efgtoa@pp 00B3                     efgtoa@ou 00B9                     _setupADC 451C  
                   _tempdisp 0033                     isa$xinst 000000                     int$flags 0041  
                   _vfprintf 4124               _vfpfcnvrt$1132 00E7               _vfpfcnvrt$1133 00E9  
             _vfpfcnvrt$1137 00EB                   _INTCONbits 000FF2                     isdigit@c 0060  
              ??i2_limpa_lcd 0004                  ??_limpa_lcd 0063                     intlevel2 0000  
                  sprintf@ap 0166              i2___xxtofl@sign 0009                     isspace@c 0060  
                  strcpy@src 0062                     isupper@c 0060                    strncmp@_l 0060  
                  strncmp@_r 0062                  efgtoa@nmode 00C5                  ??_vfpfcnvrt 00E3  
                _temperatura 0039                  _temperature 0150                     sprintf@f 0168  
                   tolower@c 0066                     sprintf@s 015E       __size_of___fpclassifyf 0100  
                   strncmp@l 0067                     strncmp@n 0064                     strncmp@r 0069  
              ___fladd@signs 006C           imprime_lcd@tamanho 0069                 ___fladd@aexp 006D  
               ___fladd@bexp 006E        __end_ofi2_imprime_lcd 4124                 ?_comando_lcd 0060  
        __end_ofi2_limpa_lcd 45FC  
